GAS LISTING /tmp/ccoShZ4S.s 			page 1


   1              		.file	"bounded_buffer.cpp"
   2              		.option pic
   3              		.option norelax
   4              		.text
   5              	.Ltext0:
   6              		.align	2
   7              		.globl	_ZN13BoundedBufferC2Ev
   9              	_ZN13BoundedBufferC2Ev:
  10              	.LFB65:
  11              		.file 1 "src/bounded_buffer.cpp"
   1:src/bounded_buffer.cpp **** #include "../h/bounded_buffer.hpp"
   2:src/bounded_buffer.cpp **** 
   3:src/bounded_buffer.cpp **** BoundedBuffer::BoundedBuffer() {
  12              		.loc 1 3 1
  13              		.cfi_startproc
  14              	.LVL0:
  15 0000 130101FE 		addi	sp,sp,-32
  16              		.cfi_def_cfa_offset 32
  17 0004 233C1100 		sd	ra,24(sp)
  18 0008 23388100 		sd	s0,16(sp)
  19 000c 23349100 		sd	s1,8(sp)
  20              		.cfi_offset 1, -8
  21              		.cfi_offset 8, -16
  22              		.cfi_offset 9, -24
  23 0010 13040102 		addi	s0,sp,32
  24              		.cfi_def_cfa 8, 0
  25 0014 93040500 		mv	s1,a0
  26              	.LBB2:
  27              		.loc 1 3 30 is_stmt 0
  28 0018 23280510 		sw	zero,272(a0)
  29 001c 232A0510 		sw	zero,276(a0)
  30 0020 232C0510 		sw	zero,280(a0)
   4:src/bounded_buffer.cpp ****     //this->buffer = (char*) MemoryAllocator::mem_alloc(256 * sizeof(char));
   5:src/bounded_buffer.cpp ****     sem_open(&itemAvailable, 0);
  31              		.loc 1 5 5 is_stmt 1
  32              		.loc 1 5 13 is_stmt 0
  33 0024 93050000 		li	a1,0
  34 0028 97000000 		call	_Z8sem_openPP10_Semaphorej@plt
  34      E7800000 
  35              	.LVL1:
   6:src/bounded_buffer.cpp ****     sem_open(&spaceAvailable, 256);
  36              		.loc 1 6 5 is_stmt 1
  37              		.loc 1 6 13 is_stmt 0
  38 0030 93050010 		li	a1,256
  39 0034 13858400 		addi	a0,s1,8
  40 0038 97000000 		call	_Z8sem_openPP10_Semaphorej@plt
  40      E7800000 
  41              	.LVL2:
  42              	.LBE2:
   7:src/bounded_buffer.cpp **** }
  43              		.loc 1 7 1
  44 0040 83308101 		ld	ra,24(sp)
  45              		.cfi_restore 1
  46 0044 03340101 		ld	s0,16(sp)
  47              		.cfi_restore 8
  48              		.cfi_def_cfa 2, 32
  49 0048 83348100 		ld	s1,8(sp)
GAS LISTING /tmp/ccoShZ4S.s 			page 2


  50              		.cfi_restore 9
  51              	.LVL3:
  52 004c 13010102 		addi	sp,sp,32
  53              		.cfi_def_cfa_offset 0
  54 0050 67800000 		jr	ra
  55              		.cfi_endproc
  56              	.LFE65:
  58              		.globl	_ZN13BoundedBufferC1Ev
  59              		.set	_ZN13BoundedBufferC1Ev,_ZN13BoundedBufferC2Ev
  60              		.align	2
  61              		.globl	_ZN13BoundedBuffer4takeEv
  63              	_ZN13BoundedBuffer4takeEv:
  64              	.LFB67:
   8:src/bounded_buffer.cpp **** 
   9:src/bounded_buffer.cpp **** char BoundedBuffer::take() {
  65              		.loc 1 9 28 is_stmt 1
  66              		.cfi_startproc
  67              	.LVL4:
  68 0054 130101FE 		addi	sp,sp,-32
  69              		.cfi_def_cfa_offset 32
  70 0058 233C1100 		sd	ra,24(sp)
  71 005c 23388100 		sd	s0,16(sp)
  72 0060 23349100 		sd	s1,8(sp)
  73 0064 23302101 		sd	s2,0(sp)
  74              		.cfi_offset 1, -8
  75              		.cfi_offset 8, -16
  76              		.cfi_offset 9, -24
  77              		.cfi_offset 18, -32
  78 0068 13040102 		addi	s0,sp,32
  79              		.cfi_def_cfa 8, 0
  80 006c 93040500 		mv	s1,a0
  10:src/bounded_buffer.cpp ****     itemAvailable->wait();
  81              		.loc 1 10 5
  82              		.loc 1 10 24 is_stmt 0
  83 0070 03350500 		ld	a0,0(a0)
  84              	.LVL5:
  85 0074 97000000 		call	_ZN10_Semaphore4waitEv@plt
  85      E7800000 
  86              	.LVL6:
  11:src/bounded_buffer.cpp ****     char c = buffer[head];
  87              		.loc 1 11 5 is_stmt 1
  88              		.loc 1 11 21 is_stmt 0
  89 007c 83A70411 		lw	a5,272(s1)
  90              		.loc 1 11 10
  91 0080 3387F400 		add	a4,s1,a5
  92 0084 03490701 		lbu	s2,16(a4)
  93              	.LVL7:
  12:src/bounded_buffer.cpp ****     head = (head + 1) % 256;
  94              		.loc 1 12 5 is_stmt 1
  95              		.loc 1 12 18 is_stmt 0
  96 0088 9B871700 		addiw	a5,a5,1
  97              		.loc 1 12 23
  98 008c 1BD7F741 		sraiw	a4,a5,31
  99 0090 1B578701 		srliw	a4,a4,24
 100 0094 BB87E700 		addw	a5,a5,a4
 101 0098 93F7F70F 		andi	a5,a5,255
 102 009c BB87E740 		subw	a5,a5,a4
GAS LISTING /tmp/ccoShZ4S.s 			page 3


 103              		.loc 1 12 10
 104 00a0 23A8F410 		sw	a5,272(s1)
  13:src/bounded_buffer.cpp ****     count--;
 105              		.loc 1 13 5 is_stmt 1
 106 00a4 83A78411 		lw	a5,280(s1)
 107              		.loc 1 13 10 is_stmt 0
 108 00a8 9B87F7FF 		addiw	a5,a5,-1
 109 00ac 23ACF410 		sw	a5,280(s1)
  14:src/bounded_buffer.cpp ****     spaceAvailable->signal();
 110              		.loc 1 14 5 is_stmt 1
 111              		.loc 1 14 27 is_stmt 0
 112 00b0 03B58400 		ld	a0,8(s1)
 113 00b4 97000000 		call	_ZN10_Semaphore6signalEv@plt
 113      E7800000 
 114              	.LVL8:
  15:src/bounded_buffer.cpp ****     return c;
 115              		.loc 1 15 5 is_stmt 1
  16:src/bounded_buffer.cpp **** }
 116              		.loc 1 16 1 is_stmt 0
 117 00bc 13050900 		mv	a0,s2
 118 00c0 83308101 		ld	ra,24(sp)
 119              		.cfi_restore 1
 120 00c4 03340101 		ld	s0,16(sp)
 121              		.cfi_restore 8
 122              		.cfi_def_cfa 2, 32
 123 00c8 83348100 		ld	s1,8(sp)
 124              		.cfi_restore 9
 125              	.LVL9:
 126 00cc 03390100 		ld	s2,0(sp)
 127              		.cfi_restore 18
 128              	.LVL10:
 129 00d0 13010102 		addi	sp,sp,32
 130              		.cfi_def_cfa_offset 0
 131 00d4 67800000 		jr	ra
 132              		.cfi_endproc
 133              	.LFE67:
 135              		.align	2
 136              		.globl	_ZN13BoundedBuffer6appendEc
 138              	_ZN13BoundedBuffer6appendEc:
 139              	.LFB68:
  17:src/bounded_buffer.cpp **** 
  18:src/bounded_buffer.cpp **** void BoundedBuffer::append(char c) {
 140              		.loc 1 18 36 is_stmt 1
 141              		.cfi_startproc
 142              	.LVL11:
 143 00d8 130101FE 		addi	sp,sp,-32
 144              		.cfi_def_cfa_offset 32
 145 00dc 233C1100 		sd	ra,24(sp)
 146 00e0 23388100 		sd	s0,16(sp)
 147 00e4 23349100 		sd	s1,8(sp)
 148 00e8 23302101 		sd	s2,0(sp)
 149              		.cfi_offset 1, -8
 150              		.cfi_offset 8, -16
 151              		.cfi_offset 9, -24
 152              		.cfi_offset 18, -32
 153 00ec 13040102 		addi	s0,sp,32
 154              		.cfi_def_cfa 8, 0
GAS LISTING /tmp/ccoShZ4S.s 			page 4


 155 00f0 93040500 		mv	s1,a0
 156 00f4 13890500 		mv	s2,a1
  19:src/bounded_buffer.cpp ****     if (spaceAvailable->tryWait() == 1)
 157              		.loc 1 19 5
 158              		.loc 1 19 32 is_stmt 0
 159 00f8 03358500 		ld	a0,8(a0)
 160              	.LVL12:
 161 00fc 97000000 		call	_ZN10_Semaphore7tryWaitEv@plt
 161      E7800000 
 162              	.LVL13:
 163              		.loc 1 19 5
 164 0104 93071000 		li	a5,1
 165 0108 6302F504 		beq	a0,a5,.L5
  20:src/bounded_buffer.cpp ****         return;
  21:src/bounded_buffer.cpp **** 
  22:src/bounded_buffer.cpp ****     buffer[tail] = c;
 166              		.loc 1 22 5 is_stmt 1
 167              		.loc 1 22 12 is_stmt 0
 168 010c 83A74411 		lw	a5,276(s1)
 169              		.loc 1 22 18
 170 0110 3387F400 		add	a4,s1,a5
 171 0114 23082701 		sb	s2,16(a4)
  23:src/bounded_buffer.cpp ****     tail = (tail + 1) % 256;
 172              		.loc 1 23 5 is_stmt 1
 173              		.loc 1 23 18 is_stmt 0
 174 0118 9B871700 		addiw	a5,a5,1
 175              		.loc 1 23 23
 176 011c 1BD7F741 		sraiw	a4,a5,31
 177 0120 1B578701 		srliw	a4,a4,24
 178 0124 BB87E700 		addw	a5,a5,a4
 179 0128 93F7F70F 		andi	a5,a5,255
 180 012c BB87E740 		subw	a5,a5,a4
 181              		.loc 1 23 10
 182 0130 23AAF410 		sw	a5,276(s1)
  24:src/bounded_buffer.cpp ****     count++;
 183              		.loc 1 24 5 is_stmt 1
 184 0134 83A78411 		lw	a5,280(s1)
 185              		.loc 1 24 10 is_stmt 0
 186 0138 9B871700 		addiw	a5,a5,1
 187 013c 23ACF410 		sw	a5,280(s1)
  25:src/bounded_buffer.cpp ****     itemAvailable->signal();
 188              		.loc 1 25 5 is_stmt 1
 189              		.loc 1 25 26 is_stmt 0
 190 0140 03B50400 		ld	a0,0(s1)
 191 0144 97000000 		call	_ZN10_Semaphore6signalEv@plt
 191      E7800000 
 192              	.LVL14:
 193              	.L5:
  26:src/bounded_buffer.cpp **** }
 194              		.loc 1 26 1
 195 014c 83308101 		ld	ra,24(sp)
 196              		.cfi_restore 1
 197 0150 03340101 		ld	s0,16(sp)
 198              		.cfi_restore 8
 199              		.cfi_def_cfa 2, 32
 200 0154 83348100 		ld	s1,8(sp)
 201              		.cfi_restore 9
GAS LISTING /tmp/ccoShZ4S.s 			page 5


 202              	.LVL15:
 203 0158 03390100 		ld	s2,0(sp)
 204              		.cfi_restore 18
 205 015c 13010102 		addi	sp,sp,32
 206              		.cfi_def_cfa_offset 0
 207 0160 67800000 		jr	ra
 208              		.cfi_endproc
 209              	.LFE68:
 211              	.Letext0:
 212              		.file 2 "src/../h/../h/../lib/hw.h"
 213              		.file 3 "src/../h/../h/../h/../h/list.hpp"
 214              		.file 4 "src/../h/../h/../h/tcb.hpp"
 215              		.file 5 "src/../h/../h/../h/semaphore.hpp"
 216              		.file 6 "src/../h/../h/syscall_c.hpp"
 217              		.file 7 "src/../h/bounded_buffer.hpp"
GAS LISTING /tmp/ccoShZ4S.s 			page 6

