GAS LISTING /tmp/ccmfqP29.s 			page 1


   1              		.file	"console.cpp"
   2              		.option pic
   3              		.option norelax
   4              		.text
   5              	.Ltext0:
   6              		.align	2
   7              		.globl	_ZN8_Console11initConsoleEv
   9              	_ZN8_Console11initConsoleEv:
  10              	.LFB67:
  11              		.file 1 "src/console.cpp"
   1:src/console.cpp **** #include "../h/console.hpp"
   2:src/console.cpp **** 
   3:src/console.cpp **** BoundedBuffer* _Console::putcBuffer = 0;
   4:src/console.cpp **** BoundedBuffer* _Console::getcBuffer = 0;
   5:src/console.cpp **** 
   6:src/console.cpp **** void _Console::initConsole() {
  12              		.loc 1 6 30
  13              		.cfi_startproc
  14              		.cfi_personality 0x9b,DW.ref.__gxx_personality_v0
  15              		.cfi_lsda 0x1b,.LLSDA67
  16 0000 130101FE 		addi	sp,sp,-32
  17              		.cfi_def_cfa_offset 32
  18 0004 233C1100 		sd	ra,24(sp)
  19 0008 23388100 		sd	s0,16(sp)
  20 000c 23349100 		sd	s1,8(sp)
  21 0010 23302101 		sd	s2,0(sp)
  22              		.cfi_offset 1, -8
  23              		.cfi_offset 8, -16
  24              		.cfi_offset 9, -24
  25              		.cfi_offset 18, -32
  26 0014 13040102 		addi	s0,sp,32
  27              		.cfi_def_cfa 8, 0
   7:src/console.cpp ****     putcBuffer = new BoundedBuffer();
  28              		.loc 1 7 5
  29              		.loc 1 7 36 is_stmt 0
  30 0018 13050012 		li	a0,288
  31              	.LEHB0:
  32 001c 97000000 		call	_Znwm@plt
  32      E7800000 
  33              	.LVL0:
  34              	.LEHE0:
  35 0024 93040500 		mv	s1,a0
  36              	.LEHB1:
  37 0028 97000000 		call	_ZN13BoundedBufferC1Ev@plt
  37      E7800000 
  38              	.LVL1:
  39              	.LEHE1:
  40              		.loc 1 7 16 discriminator 2
  41 0030 97070000 		sd	s1,.LANCHOR0,a5
  41      23B09700 
   8:src/console.cpp ****     getcBuffer = new BoundedBuffer();
  42              		.loc 1 8 5 is_stmt 1 discriminator 2
  43              		.loc 1 8 36 is_stmt 0 discriminator 2
  44 0038 13050012 		li	a0,288
  45              	.LEHB2:
  46 003c 97000000 		call	_Znwm@plt
  46      E7800000 
GAS LISTING /tmp/ccmfqP29.s 			page 2


  47              	.LVL2:
  48              	.LEHE2:
  49 0044 93040500 		mv	s1,a0
  50              	.LEHB3:
  51 0048 97000000 		call	_ZN13BoundedBufferC1Ev@plt
  51      E7800000 
  52              	.LVL3:
  53              	.LEHE3:
  54              		.loc 1 8 16
  55 0050 97070000 		sd	s1,.LANCHOR0+8,a5
  55      23B09700 
   9:src/console.cpp **** }
  56              		.loc 1 9 1
  57 0058 83308101 		ld	ra,24(sp)
  58              		.cfi_remember_state
  59              		.cfi_restore 1
  60 005c 03340101 		ld	s0,16(sp)
  61              		.cfi_restore 8
  62              		.cfi_def_cfa 2, 32
  63 0060 83348100 		ld	s1,8(sp)
  64              		.cfi_restore 9
  65 0064 03390100 		ld	s2,0(sp)
  66              		.cfi_restore 18
  67 0068 13010102 		addi	sp,sp,32
  68              		.cfi_def_cfa_offset 0
  69 006c 67800000 		jr	ra
  70              	.L4:
  71              		.cfi_restore_state
  72 0070 13090500 		mv	s2,a0
   7:src/console.cpp ****     putcBuffer = new BoundedBuffer();
  73              		.loc 1 7 36
  74 0074 13850400 		mv	a0,s1
  75 0078 97000000 		call	_ZdlPv@plt
  75      E7800000 
  76              	.LVL4:
  77 0080 13050900 		mv	a0,s2
  78              	.LEHB4:
  79 0084 97000000 		call	_Unwind_Resume@plt
  79      E7800000 
  80              	.LVL5:
  81              	.L5:
  82 008c 13090500 		mv	s2,a0
   8:src/console.cpp ****     getcBuffer = new BoundedBuffer();
  83              		.loc 1 8 36
  84 0090 13850400 		mv	a0,s1
  85 0094 97000000 		call	_ZdlPv@plt
  85      E7800000 
  86              	.LVL6:
  87 009c 13050900 		mv	a0,s2
  88 00a0 97000000 		call	_Unwind_Resume@plt
  88      E7800000 
  89              	.LVL7:
  90              	.LEHE4:
  91              		.cfi_endproc
  92              	.LFE67:
  93              		.globl	__gxx_personality_v0
  94              		.section	.gcc_except_table,"a",@progbits
GAS LISTING /tmp/ccmfqP29.s 			page 3


  95              	.LLSDA67:
  96 0000 FF       		.byte	0xff
  97 0001 FF       		.byte	0xff
  98 0002 03       		.byte	0x3
  99 0003 41       		.byte	0x41
 100 0004 00000000 		.4byte	.LEHB0-.LFB67
 101 0008 00000000 		.4byte	.LEHE0-.LEHB0
 102 000c 00000000 		.4byte	0
 103 0010 00       		.byte	0
 104 0011 00000000 		.4byte	.LEHB1-.LFB67
 105 0015 00000000 		.4byte	.LEHE1-.LEHB1
 106 0019 00000000 		.4byte	.L4-.LFB67
 107 001d 00       		.byte	0
 108 001e 00000000 		.4byte	.LEHB2-.LFB67
 109 0022 00000000 		.4byte	.LEHE2-.LEHB2
 110 0026 00000000 		.4byte	0
 111 002a 00       		.byte	0
 112 002b 00000000 		.4byte	.LEHB3-.LFB67
 113 002f 00000000 		.4byte	.LEHE3-.LEHB3
 114 0033 00000000 		.4byte	.L5-.LFB67
 115 0037 00       		.byte	0
 116 0038 00000000 		.4byte	.LEHB4-.LFB67
 117 003c 00000000 		.4byte	.LEHE4-.LEHB4
 118 0040 00000000 		.4byte	0
 119 0044 00       		.byte	0
 120              		.text
 122              		.align	2
 123              		.globl	_ZN8_Console4PUTCEc
 125              	_ZN8_Console4PUTCEc:
 126              	.LFB68:
  10:src/console.cpp **** 
  11:src/console.cpp **** void _Console::PUTC(char c) {
 127              		.loc 1 11 29 is_stmt 1
 128              		.cfi_startproc
 129              	.LVL8:
 130 00a8 130101FF 		addi	sp,sp,-16
 131              		.cfi_def_cfa_offset 16
 132 00ac 23341100 		sd	ra,8(sp)
 133 00b0 23308100 		sd	s0,0(sp)
 134              		.cfi_offset 1, -8
 135              		.cfi_offset 8, -16
 136 00b4 13040101 		addi	s0,sp,16
 137              		.cfi_def_cfa 8, 0
 138 00b8 93050500 		mv	a1,a0
  12:src/console.cpp ****     putcBuffer->append(c);
 139              		.loc 1 12 5
 140              		.loc 1 12 23 is_stmt 0
 141 00bc 17050000 		ld	a0,.LANCHOR0
 141      03350500 
 142              	.LVL9:
 143 00c4 97000000 		call	_ZN13BoundedBuffer6appendEc@plt
 143      E7800000 
 144              	.LVL10:
  13:src/console.cpp **** }
 145              		.loc 1 13 1
 146 00cc 83308100 		ld	ra,8(sp)
 147              		.cfi_restore 1
GAS LISTING /tmp/ccmfqP29.s 			page 4


 148 00d0 03340100 		ld	s0,0(sp)
 149              		.cfi_restore 8
 150              		.cfi_def_cfa 2, 16
 151 00d4 13010101 		addi	sp,sp,16
 152              		.cfi_def_cfa_offset 0
 153 00d8 67800000 		jr	ra
 154              		.cfi_endproc
 155              	.LFE68:
 157              		.align	2
 158              		.globl	_ZN8_Console4GETCEv
 160              	_ZN8_Console4GETCEv:
 161              	.LFB69:
  14:src/console.cpp **** 
  15:src/console.cpp **** char _Console::GETC() {
 162              		.loc 1 15 23 is_stmt 1
 163              		.cfi_startproc
 164 00dc 130101FF 		addi	sp,sp,-16
 165              		.cfi_def_cfa_offset 16
 166 00e0 23341100 		sd	ra,8(sp)
 167 00e4 23308100 		sd	s0,0(sp)
 168              		.cfi_offset 1, -8
 169              		.cfi_offset 8, -16
 170 00e8 13040101 		addi	s0,sp,16
 171              		.cfi_def_cfa 8, 0
  16:src/console.cpp ****     return getcBuffer->take();
 172              		.loc 1 16 5
 173              		.loc 1 16 28 is_stmt 0
 174 00ec 17050000 		ld	a0,.LANCHOR0+8
 174      03350500 
 175 00f4 97000000 		call	_ZN13BoundedBuffer4takeEv@plt
 175      E7800000 
 176              	.LVL11:
  17:src/console.cpp **** }
 177              		.loc 1 17 1
 178 00fc 83308100 		ld	ra,8(sp)
 179              		.cfi_restore 1
 180 0100 03340100 		ld	s0,0(sp)
 181              		.cfi_restore 8
 182              		.cfi_def_cfa 2, 16
 183 0104 13010101 		addi	sp,sp,16
 184              		.cfi_def_cfa_offset 0
 185 0108 67800000 		jr	ra
 186              		.cfi_endproc
 187              	.LFE69:
 189              		.align	2
 190              		.globl	_ZN8_Console11putcHandlerEv
 192              	_ZN8_Console11putcHandlerEv:
 193              	.LFB70:
  18:src/console.cpp **** 
  19:src/console.cpp **** void _Console::putcHandler() {
 194              		.loc 1 19 30 is_stmt 1
 195              		.cfi_startproc
  20:src/console.cpp ****     while(((*(char*)(CONSOLE_STATUS)) & CONSOLE_TX_STATUS_BIT)) {
 196              		.loc 1 20 5
 197              		.loc 1 20 62
 198              		.loc 1 20 13 is_stmt 0
 199 010c 97070000 		la	a5,CONSOLE_STATUS
GAS LISTING /tmp/ccmfqP29.s 			page 5


 199      83B70700 
 200 0114 83B70700 		ld	a5,0(a5)
 201 0118 83C70700 		lbu	a5,0(a5)
 202              		.loc 1 20 62
 203 011c 93F70702 		andi	a5,a5,32
 204 0120 63820706 		beqz	a5,.L20
  19:src/console.cpp ****     while(((*(char*)(CONSOLE_STATUS)) & CONSOLE_TX_STATUS_BIT)) {
 205              		.loc 1 19 30
 206 0124 130101FE 		addi	sp,sp,-32
 207              		.cfi_def_cfa_offset 32
 208 0128 233C1100 		sd	ra,24(sp)
 209 012c 23388100 		sd	s0,16(sp)
 210              		.cfi_offset 1, -8
 211              		.cfi_offset 8, -16
 212 0130 13040102 		addi	s0,sp,32
 213              		.cfi_def_cfa 8, 0
 214              	.L17:
 215              	.LBB6:
  21:src/console.cpp ****         char volatile c = putcBuffer->take();
 216              		.loc 1 21 9 is_stmt 1
 217              		.loc 1 21 43 is_stmt 0
 218 0134 17050000 		ld	a0,.LANCHOR0
 218      03350500 
 219 013c 97000000 		call	_ZN13BoundedBuffer4takeEv@plt
 219      E7800000 
 220              	.LVL12:
 221              		.loc 1 21 44
 222 0144 A307A4FE 		sb	a0,-17(s0)
  22:src/console.cpp ****         *((char*)(CONSOLE_TX_DATA)) = c;
 223              		.loc 1 22 9 is_stmt 1
 224 0148 97070000 		la	a5,CONSOLE_TX_DATA
 224      83B70700 
 225 0150 83B70700 		ld	a5,0(a5)
 226              		.loc 1 22 37 is_stmt 0
 227 0154 0347F4FE 		lbu	a4,-17(s0)
 228 0158 2380E700 		sb	a4,0(a5)
 229              	.LBE6:
  20:src/console.cpp ****         char volatile c = putcBuffer->take();
 230              		.loc 1 20 5 is_stmt 1
  20:src/console.cpp ****         char volatile c = putcBuffer->take();
 231              		.loc 1 20 62
  20:src/console.cpp ****         char volatile c = putcBuffer->take();
 232              		.loc 1 20 13 is_stmt 0
 233 015c 97070000 		la	a5,CONSOLE_STATUS
 233      83B70700 
 234 0164 83B70700 		ld	a5,0(a5)
 235 0168 83C70700 		lbu	a5,0(a5)
  20:src/console.cpp ****         char volatile c = putcBuffer->take();
 236              		.loc 1 20 62
 237 016c 93F70702 		andi	a5,a5,32
 238 0170 E39207FC 		bnez	a5,.L17
  23:src/console.cpp ****     }
  24:src/console.cpp **** }
 239              		.loc 1 24 1
 240 0174 83308101 		ld	ra,24(sp)
 241              		.cfi_restore 1
 242 0178 03340101 		ld	s0,16(sp)
GAS LISTING /tmp/ccmfqP29.s 			page 6


 243              		.cfi_restore 8
 244              		.cfi_def_cfa 2, 32
 245 017c 13010102 		addi	sp,sp,32
 246              		.cfi_def_cfa_offset 0
 247 0180 67800000 		jr	ra
 248              	.L20:
 249 0184 67800000 		ret
 250              		.cfi_endproc
 251              	.LFE70:
 253              		.align	2
 254              		.globl	_ZN8_Console18putcHandlerWrapperEPv
 256              	_ZN8_Console18putcHandlerWrapperEPv:
 257              	.LFB71:
  25:src/console.cpp **** 
  26:src/console.cpp **** void _Console::putcHandlerWrapper(void* arg) {
 258              		.loc 1 26 46 is_stmt 1
 259              		.cfi_startproc
 260              	.LVL13:
 261 0188 130101FF 		addi	sp,sp,-16
 262              		.cfi_def_cfa_offset 16
 263 018c 23341100 		sd	ra,8(sp)
 264 0190 23308100 		sd	s0,0(sp)
 265              		.cfi_offset 1, -8
 266              		.cfi_offset 8, -16
 267 0194 13040101 		addi	s0,sp,16
 268              		.cfi_def_cfa 8, 0
 269              	.LVL14:
 270              	.L22:
  27:src/console.cpp ****     while (true) {
 271              		.loc 1 27 5 discriminator 1
  28:src/console.cpp ****         putc_handler();
 272              		.loc 1 28 9 discriminator 1
 273              		.loc 1 28 21 is_stmt 0 discriminator 1
 274 0198 97000000 		call	_Z12putc_handlerv@plt
 274      E7800000 
 275              	.LVL15:
  27:src/console.cpp ****     while (true) {
 276              		.loc 1 27 5 is_stmt 1 discriminator 1
 277 01a0 6FF09FFF 		j	.L22
 278              		.cfi_endproc
 279              	.LFE71:
 281              		.align	2
 282              		.globl	_ZN8_Console15console_handlerEv
 284              	_ZN8_Console15console_handlerEv:
 285              	.LFB72:
  29:src/console.cpp ****     }
  30:src/console.cpp **** }
  31:src/console.cpp **** 
  32:src/console.cpp **** void _Console::console_handler() {
 286              		.loc 1 32 34
 287              		.cfi_startproc
 288 01a4 130101FE 		addi	sp,sp,-32
 289              		.cfi_def_cfa_offset 32
 290 01a8 233C1100 		sd	ra,24(sp)
 291 01ac 23388100 		sd	s0,16(sp)
 292              		.cfi_offset 1, -8
 293              		.cfi_offset 8, -16
GAS LISTING /tmp/ccmfqP29.s 			page 7


 294 01b0 13040102 		addi	s0,sp,32
 295              		.cfi_def_cfa 8, 0
  33:src/console.cpp ****     int volatile code = plic_claim();
 296              		.loc 1 33 5
 297              		.loc 1 33 35 is_stmt 0
 298 01b4 97000000 		call	plic_claim@plt
 298      E7800000 
 299              	.LVL16:
 300              		.loc 1 33 36
 301 01bc 2326A4FE 		sw	a0,-20(s0)
  34:src/console.cpp ****     char volatile c;
 302              		.loc 1 34 5 is_stmt 1
  35:src/console.cpp ****     if (code == 10) {
 303              		.loc 1 35 5
 304              		.loc 1 35 14 is_stmt 0
 305 01c0 8327C4FE 		lw	a5,-20(s0)
 306 01c4 9B870700 		sext.w	a5,a5
 307              		.loc 1 35 5
 308 01c8 1307A000 		li	a4,10
 309 01cc 638AE700 		beq	a5,a4,.L27
 310              	.L24:
  36:src/console.cpp ****         while ((*(char*)CONSOLE_STATUS) & CONSOLE_RX_STATUS_BIT) {
  37:src/console.cpp ****             c = *((char*)CONSOLE_RX_DATA);
  38:src/console.cpp ****             getcBuffer->append(c);
  39:src/console.cpp ****         }
  40:src/console.cpp ****         plic_complete(code);
  41:src/console.cpp ****     }
  42:src/console.cpp **** }
 311              		.loc 1 42 1
 312 01d0 83308101 		ld	ra,24(sp)
 313              		.cfi_remember_state
 314              		.cfi_restore 1
 315 01d4 03340101 		ld	s0,16(sp)
 316              		.cfi_restore 8
 317              		.cfi_def_cfa 2, 32
 318 01d8 13010102 		addi	sp,sp,32
 319              		.cfi_def_cfa_offset 0
 320 01dc 67800000 		jr	ra
 321              	.L27:
 322              		.cfi_restore_state
  36:src/console.cpp ****         while ((*(char*)CONSOLE_STATUS) & CONSOLE_RX_STATUS_BIT) {
 323              		.loc 1 36 9 is_stmt 1
  36:src/console.cpp ****         while ((*(char*)CONSOLE_STATUS) & CONSOLE_RX_STATUS_BIT) {
 324              		.loc 1 36 43
  36:src/console.cpp ****         while ((*(char*)CONSOLE_STATUS) & CONSOLE_RX_STATUS_BIT) {
 325              		.loc 1 36 17 is_stmt 0
 326 01e0 97070000 		la	a5,CONSOLE_STATUS
 326      83B70700 
 327 01e8 83B70700 		ld	a5,0(a5)
 328 01ec 83C70700 		lbu	a5,0(a5)
  36:src/console.cpp ****         while ((*(char*)CONSOLE_STATUS) & CONSOLE_RX_STATUS_BIT) {
 329              		.loc 1 36 43
 330 01f0 93F71700 		andi	a5,a5,1
 331 01f4 638A0702 		beqz	a5,.L26
  37:src/console.cpp ****             getcBuffer->append(c);
 332              		.loc 1 37 13 is_stmt 1
  37:src/console.cpp ****             getcBuffer->append(c);
GAS LISTING /tmp/ccmfqP29.s 			page 8


 333              		.loc 1 37 17 is_stmt 0
 334 01f8 97070000 		la	a5,CONSOLE_RX_DATA
 334      83B70700 
 335 0200 83B70700 		ld	a5,0(a5)
 336 0204 83C70700 		lbu	a5,0(a5)
  37:src/console.cpp ****             getcBuffer->append(c);
 337              		.loc 1 37 15
 338 0208 A305F4FE 		sb	a5,-21(s0)
  38:src/console.cpp ****         }
 339              		.loc 1 38 13 is_stmt 1
  38:src/console.cpp ****         }
 340              		.loc 1 38 31 is_stmt 0
 341 020c 8345B4FE 		lbu	a1,-21(s0)
 342 0210 93F5F50F 		andi	a1,a1,0xff
 343 0214 17050000 		ld	a0,.LANCHOR0+8
 343      03350500 
 344 021c 97000000 		call	_ZN13BoundedBuffer6appendEc@plt
 344      E7800000 
 345              	.LVL17:
  36:src/console.cpp ****         while ((*(char*)CONSOLE_STATUS) & CONSOLE_RX_STATUS_BIT) {
 346              		.loc 1 36 9
 347 0224 6FF0DFFB 		j	.L27
 348              	.L26:
  40:src/console.cpp ****     }
 349              		.loc 1 40 9 is_stmt 1
  40:src/console.cpp ****     }
 350              		.loc 1 40 22 is_stmt 0
 351 0228 0325C4FE 		lw	a0,-20(s0)
 352 022c 1B050500 		sext.w	a0,a0
 353 0230 97000000 		call	plic_complete@plt
 353      E7800000 
 354              	.LVL18:
 355              		.loc 1 42 1
 356 0238 6FF09FF9 		j	.L24
 357              		.cfi_endproc
 358              	.LFE72:
 360              		.align	2
 361              		.globl	_ZN8_Console5flushEv
 363              	_ZN8_Console5flushEv:
 364              	.LFB73:
  43:src/console.cpp **** 
  44:src/console.cpp **** void _Console::flush() {
 365              		.loc 1 44 24 is_stmt 1
 366              		.cfi_startproc
 367 023c 130101FF 		addi	sp,sp,-16
 368              		.cfi_def_cfa_offset 16
 369 0240 23348100 		sd	s0,8(sp)
 370              		.cfi_offset 8, -8
 371 0244 13040101 		addi	s0,sp,16
 372              		.cfi_def_cfa 8, 0
 373              	.L31:
  45:src/console.cpp ****     while (putcBuffer->getCount() > 0) {
 374              		.loc 1 45 5
 375              		.loc 1 45 35
 376              		.loc 1 45 32 is_stmt 0
 377 0248 97070000 		ld	a5,.LANCHOR0
 377      83B70700 
GAS LISTING /tmp/ccmfqP29.s 			page 9


 378              	.LVL19:
 379              	.LBB7:
 380              	.LBB8:
 381              		.file 2 "src/../h/../h/bounded_buffer.hpp"
   1:src/../h/../h/bounded_buffer.hpp **** #ifndef BUFFER_HPP
   2:src/../h/../h/bounded_buffer.hpp **** #define BUFFER_HPP
   3:src/../h/../h/bounded_buffer.hpp **** 
   4:src/../h/../h/bounded_buffer.hpp **** #include "../h/syscall_c.hpp"
   5:src/../h/../h/bounded_buffer.hpp **** 
   6:src/../h/../h/bounded_buffer.hpp **** class BoundedBuffer
   7:src/../h/../h/bounded_buffer.hpp **** {
   8:src/../h/../h/bounded_buffer.hpp **** private:
   9:src/../h/../h/bounded_buffer.hpp ****     sem_t itemAvailable;
  10:src/../h/../h/bounded_buffer.hpp ****     sem_t spaceAvailable;
  11:src/../h/../h/bounded_buffer.hpp ****     char buffer[256];
  12:src/../h/../h/bounded_buffer.hpp ****     int head = 0;
  13:src/../h/../h/bounded_buffer.hpp ****     int tail = 0;
  14:src/../h/../h/bounded_buffer.hpp ****     int count = 0;
  15:src/../h/../h/bounded_buffer.hpp **** 
  16:src/../h/../h/bounded_buffer.hpp **** public:
  17:src/../h/../h/bounded_buffer.hpp ****     BoundedBuffer();
  18:src/../h/../h/bounded_buffer.hpp ****     void append(char c);
  19:src/../h/../h/bounded_buffer.hpp ****     char take();
  20:src/../h/../h/bounded_buffer.hpp ****     int getCount() const { return this->count; }
 382              		.loc 2 20 28 is_stmt 1
 383              		.loc 2 20 41 is_stmt 0
 384 0250 83A78711 		lw	a5,280(a5)
 385              	.LVL20:
 386              	.LBE8:
 387              	.LBE7:
 388              		.loc 1 45 35
 389 0254 635EF006 		blez	a5,.L29
 390              	.L33:
 391              	.LBB9:
  46:src/console.cpp ****         while(((*(char*)(CONSOLE_STATUS)) & CONSOLE_TX_STATUS_BIT)) {
 392              		.loc 1 46 9 is_stmt 1
 393              		.loc 1 46 66
 394              		.loc 1 46 17 is_stmt 0
 395 0258 97070000 		la	a5,CONSOLE_STATUS
 395      83B70700 
 396 0260 83B70700 		ld	a5,0(a5)
 397 0264 83C70700 		lbu	a5,0(a5)
 398              		.loc 1 46 66
 399 0268 93F70702 		andi	a5,a5,32
 400 026c E38E07FC 		beqz	a5,.L31
 401              	.LBB10:
  47:src/console.cpp ****             char c = putcBuffer->buffer[putcBuffer->head];
 402              		.loc 1 47 13 is_stmt 1
 403              		.loc 1 47 57 is_stmt 0
 404 0270 17060000 		lla	a2,.LANCHOR0
 404      13060600 
 405 0278 03370600 		ld	a4,0(a2)
 406              		.loc 1 47 53
 407 027c 83270711 		lw	a5,272(a4)
 408              		.loc 1 47 18
 409 0280 B306F700 		add	a3,a4,a5
 410 0284 83C50601 		lbu	a1,16(a3)
GAS LISTING /tmp/ccmfqP29.s 			page 10


 411              	.LVL21:
  48:src/console.cpp ****             putcBuffer->head = (putcBuffer->head + 1) % 256;
 412              		.loc 1 48 13 is_stmt 1
 413              		.loc 1 48 50 is_stmt 0
 414 0288 9B871700 		addiw	a5,a5,1
 415              		.loc 1 48 55
 416 028c 9BD6F741 		sraiw	a3,a5,31
 417 0290 9BD68601 		srliw	a3,a3,24
 418 0294 BB87D700 		addw	a5,a5,a3
 419 0298 93F7F70F 		andi	a5,a5,255
 420 029c BB87D740 		subw	a5,a5,a3
 421              		.loc 1 48 30
 422 02a0 2328F710 		sw	a5,272(a4)
  49:src/console.cpp ****             putcBuffer->count--;
 423              		.loc 1 49 13 is_stmt 1
 424              		.loc 1 49 25 is_stmt 0
 425 02a4 83278711 		lw	a5,280(a4)
 426              		.loc 1 49 30
 427 02a8 9B87F7FF 		addiw	a5,a5,-1
 428 02ac 232CF710 		sw	a5,280(a4)
  50:src/console.cpp ****             *((char*)(CONSOLE_TX_DATA)) = c;
 429              		.loc 1 50 13 is_stmt 1
 430 02b0 97070000 		la	a5,CONSOLE_TX_DATA
 430      83B70700 
 431 02b8 83B70700 		ld	a5,0(a5)
 432              		.loc 1 50 41 is_stmt 0
 433 02bc 2380B700 		sb	a1,0(a5)
  51:src/console.cpp ****             if (putcBuffer->count <= 0)
 434              		.loc 1 51 13 is_stmt 1
 435              		.loc 1 51 29 is_stmt 0
 436 02c0 83370600 		ld	a5,0(a2)
 437 02c4 83A78711 		lw	a5,280(a5)
 438              		.loc 1 51 13
 439 02c8 E348F0F8 		bgtz	a5,.L33
 440 02cc 6FF0DFF7 		j	.L31
 441              	.LVL22:
 442              	.L29:
 443              	.LBE10:
 444              	.LBE9:
  52:src/console.cpp ****                 break;
  53:src/console.cpp ****         }
  54:src/console.cpp ****     }
  55:src/console.cpp **** }
 445              		.loc 1 55 1
 446 02d0 03348100 		ld	s0,8(sp)
 447              		.cfi_restore 8
 448              		.cfi_def_cfa 2, 16
 449 02d4 13010101 		addi	sp,sp,16
 450              		.cfi_def_cfa_offset 0
 451 02d8 67800000 		jr	ra
 452              		.cfi_endproc
 453              	.LFE73:
 455              		.globl	_ZN8_Console10getcBufferE
 456              		.globl	_ZN8_Console10putcBufferE
 457              		.bss
 458              		.align	3
 459              		.set	.LANCHOR0,. + 0
GAS LISTING /tmp/ccmfqP29.s 			page 11


 462              	_ZN8_Console10putcBufferE:
 463 0000 00000000 		.zero	8
 463      00000000 
 466              	_ZN8_Console10getcBufferE:
 467 0008 00000000 		.zero	8
 467      00000000 
 468              		.text
 469              	.Letext0:
 470              		.file 3 "src/../h/../h/../h/../lib/hw.h"
 471              		.file 4 "src/../h/../h/../h/../h/../h/list.hpp"
 472              		.file 5 "src/../h/../h/../h/../h/tcb.hpp"
 473              		.file 6 "src/../h/../h/../h/../h/semaphore.hpp"
 474              		.file 7 "src/../h/../h/../h/syscall_c.hpp"
 475              		.file 8 "src/../h/console.hpp"
 3358              		.align	3
 3361              	DW.ref.__gxx_personality_v0:
 3362 0000 00000000 		.dword	__gxx_personality_v0
 3362      00000000 
 3363              		.ident	"GCC: (Ubuntu 9.4.0-1ubuntu1~20.04) 9.4.0"
 3364              		.section	.note.GNU-stack,"",@progbits
GAS LISTING /tmp/ccmfqP29.s 			page 12

