GAS LISTING /tmp/ccWtz1qF.s 			page 1


   1              		.file	"semaphore.cpp"
   2              		.option pic
   3              		.option norelax
   4              		.text
   5              	.Ltext0:
   6              		.align	2
   7              		.globl	_ZN10_Semaphore4waitEv
   9              	_ZN10_Semaphore4waitEv:
  10              	.LFB63:
  11              		.file 1 "src/semaphore.cpp"
   1:src/semaphore.cpp **** #include "../h/semaphore.hpp"
   2:src/semaphore.cpp **** #include "../h/syscall_c.hpp"
   3:src/semaphore.cpp **** 
   4:src/semaphore.cpp **** int _Semaphore::wait() {
  12              		.loc 1 4 24
  13              		.cfi_startproc
  14              	.LVL0:
   5:src/semaphore.cpp ****     if (this->closed)
  15              		.loc 1 5 5
  16              		.loc 1 5 15 is_stmt 0
  17 0000 83478501 		lbu	a5,24(a0)
  18              		.loc 1 5 5
  19 0004 639C070A 		bnez	a5,.L5
   4:src/semaphore.cpp ****     if (this->closed)
  20              		.loc 1 4 24
  21 0008 130101FE 		addi	sp,sp,-32
  22              		.cfi_def_cfa_offset 32
  23 000c 233C1100 		sd	ra,24(sp)
  24 0010 23388100 		sd	s0,16(sp)
  25 0014 23349100 		sd	s1,8(sp)
  26 0018 23302101 		sd	s2,0(sp)
  27              		.cfi_offset 1, -8
  28              		.cfi_offset 8, -16
  29              		.cfi_offset 9, -24
  30              		.cfi_offset 18, -32
  31 001c 13040102 		addi	s0,sp,32
  32              		.cfi_def_cfa 8, 0
  33 0020 93040500 		mv	s1,a0
   6:src/semaphore.cpp ****         return -1;
   7:src/semaphore.cpp **** 
   8:src/semaphore.cpp ****     if (--value < 0) {
  34              		.loc 1 8 5 is_stmt 1
  35              		.loc 1 8 11 is_stmt 0
  36 0024 83270500 		lw	a5,0(a0)
  37              		.loc 1 8 9
  38 0028 9B87F7FF 		addiw	a5,a5,-1
  39              		.loc 1 8 17
  40 002c 2320F500 		sw	a5,0(a0)
  41              		.loc 1 8 5
  42 0030 13970702 		slli	a4,a5,32
  43 0034 63400702 		bltz	a4,.L12
   9:src/semaphore.cpp ****         this->blocked.addLast(TCB::running);
  10:src/semaphore.cpp ****         TCB::running->setBlocked(true);
  11:src/semaphore.cpp ****         thread_dispatch();
  12:src/semaphore.cpp **** 
  13:src/semaphore.cpp ****         if (this->closed)
  14:src/semaphore.cpp ****             return -1;
GAS LISTING /tmp/ccWtz1qF.s 			page 2


  15:src/semaphore.cpp ****     }
  16:src/semaphore.cpp **** 
  17:src/semaphore.cpp ****     return 0;
  44              		.loc 1 17 12
  45 0038 13050000 		li	a0,0
  46              	.LVL1:
  47              	.L2:
  18:src/semaphore.cpp **** }
  48              		.loc 1 18 1
  49 003c 83308101 		ld	ra,24(sp)
  50              		.cfi_remember_state
  51              		.cfi_restore 1
  52 0040 03340101 		ld	s0,16(sp)
  53              		.cfi_restore 8
  54              		.cfi_def_cfa 2, 32
  55 0044 83348100 		ld	s1,8(sp)
  56              		.cfi_restore 9
  57              	.LVL2:
  58 0048 03390100 		ld	s2,0(sp)
  59              		.cfi_restore 18
  60 004c 13010102 		addi	sp,sp,32
  61              		.cfi_def_cfa_offset 0
  62 0050 67800000 		jr	ra
  63              	.LVL3:
  64              	.L12:
  65              		.cfi_restore_state
   9:src/semaphore.cpp ****         this->blocked.addLast(TCB::running);
  66              		.loc 1 9 9 is_stmt 1
   9:src/semaphore.cpp ****         this->blocked.addLast(TCB::running);
  67              		.loc 1 9 30 is_stmt 0
  68 0054 97070000 		la	a5,_ZN3TCB7runningE
  68      83B70700 
  69 005c 03B90700 		ld	s2,0(a5)
  70              	.LVL4:
  71              	.LBB56:
  72              	.LBB57:
  73              	.LBB58:
  74              	.LBB59:
  75              		.file 2 "src/../h/../h/list.hpp"
   1:src/../h/../h/list.hpp **** #ifndef LIST_HPP
   2:src/../h/../h/list.hpp **** #define LIST_HPP
   3:src/../h/../h/list.hpp **** 
   4:src/../h/../h/list.hpp **** #include "../h/memory_allocator.hpp"
   5:src/../h/../h/list.hpp **** 
   6:src/../h/../h/list.hpp **** template<typename T>
   7:src/../h/../h/list.hpp **** class List {
   8:src/../h/../h/list.hpp **** private:
   9:src/../h/../h/list.hpp ****     struct Elem {
  10:src/../h/../h/list.hpp ****         T *data;
  11:src/../h/../h/list.hpp ****         Elem *next;
  12:src/../h/../h/list.hpp **** 
  13:src/../h/../h/list.hpp ****         Elem(T *data, Elem *next) : data(data), next(next) {}
  14:src/../h/../h/list.hpp **** 
  15:src/../h/../h/list.hpp ****         void* operator new(size_t size) {
  16:src/../h/../h/list.hpp ****             return MemoryAllocator::mem_alloc(size);
  76              		.loc 2 16 46
  77 0060 13050001 		li	a0,16
GAS LISTING /tmp/ccWtz1qF.s 			page 3


  78 0064 97000000 		call	_ZN15MemoryAllocator9mem_allocEm@plt
  78      E7800000 
  79              	.LVL5:
  80              	.LBE59:
  81              	.LBE58:
  82              	.LBB60:
  83              	.LBB61:
  13:src/../h/../h/list.hpp **** 
  84              		.loc 2 13 58
  85 006c 23302501 		sd	s2,0(a0)
  86 0070 23340500 		sd	zero,8(a0)
  87              	.LVL6:
  88              	.LBE61:
  89              	.LBE60:
  17:src/../h/../h/list.hpp ****         }
  18:src/../h/../h/list.hpp **** 
  19:src/../h/../h/list.hpp ****         void* operator new[] (size_t size) {
  20:src/../h/../h/list.hpp ****             return MemoryAllocator::mem_alloc(size);
  21:src/../h/../h/list.hpp ****         }
  22:src/../h/../h/list.hpp **** 
  23:src/../h/../h/list.hpp ****         void operator delete(void* ptr) noexcept {
  24:src/../h/../h/list.hpp ****             MemoryAllocator::mem_free(ptr);
  25:src/../h/../h/list.hpp ****         }
  26:src/../h/../h/list.hpp **** 
  27:src/../h/../h/list.hpp ****         void operator delete[] (void* ptr) noexcept {
  28:src/../h/../h/list.hpp ****             MemoryAllocator::mem_free(ptr);
  29:src/../h/../h/list.hpp ****         }
  30:src/../h/../h/list.hpp ****     };
  31:src/../h/../h/list.hpp **** 
  32:src/../h/../h/list.hpp ****     Elem *head, *tail;
  33:src/../h/../h/list.hpp **** 
  34:src/../h/../h/list.hpp **** public:
  35:src/../h/../h/list.hpp ****     List() : head(0), tail(0) {}
  36:src/../h/../h/list.hpp **** 
  37:src/../h/../h/list.hpp ****     List(const List<T> &) = delete;
  38:src/../h/../h/list.hpp ****     List<T> &operator=(const List<T> &) = delete;
  39:src/../h/../h/list.hpp **** 
  40:src/../h/../h/list.hpp ****     void addFirst(T* data) {
  41:src/../h/../h/list.hpp ****         Elem* elem = new Elem(data, head);
  42:src/../h/../h/list.hpp ****         head = elem;
  43:src/../h/../h/list.hpp ****         if (!tail)
  44:src/../h/../h/list.hpp ****             tail = head;
  45:src/../h/../h/list.hpp ****     }
  46:src/../h/../h/list.hpp **** 
  47:src/../h/../h/list.hpp ****     void addLast(T* data) {
  48:src/../h/../h/list.hpp ****         Elem* elem = new Elem(data, 0);
  49:src/../h/../h/list.hpp ****         if (tail) {
  90              		.loc 2 49 13
  91 0074 83B70401 		ld	a5,16(s1)
  92              		.loc 2 49 9
  93 0078 638C0702 		beqz	a5,.L3
  50:src/../h/../h/list.hpp ****             tail->next = elem;
  94              		.loc 2 50 13
  95 007c 23B4A700 		sd	a0,8(a5)
  51:src/../h/../h/list.hpp ****             tail = elem;
  96              		.loc 2 51 13
  97 0080 23B8A400 		sd	a0,16(s1)
GAS LISTING /tmp/ccWtz1qF.s 			page 4


  98              	.L4:
  99              	.LVL7:
 100              	.LBE57:
 101              	.LBE56:
  10:src/semaphore.cpp ****         thread_dispatch();
 102              		.loc 1 10 9 is_stmt 1
  10:src/semaphore.cpp ****         thread_dispatch();
 103              		.loc 1 10 33 is_stmt 0
 104 0084 97070000 		la	a5,_ZN3TCB7runningE
 104      83B70700 
 105 008c 83B70700 		ld	a5,0(a5)
 106              	.LVL8:
 107              	.LBB63:
 108              	.LBB64:
 109              		.file 3 "src/../h/../h/tcb.hpp"
   1:src/../h/../h/tcb.hpp **** #ifndef TCP_HPP
   2:src/../h/../h/tcb.hpp **** #define TCP_HPP
   3:src/../h/../h/tcb.hpp **** 
   4:src/../h/../h/tcb.hpp **** #include "../lib/hw.h"
   5:src/../h/../h/tcb.hpp **** #include "../h/scheduler.hpp"
   6:src/../h/../h/tcb.hpp **** #include "../h/riscv.hpp"
   7:src/../h/../h/tcb.hpp **** #include "../h/memory_allocator.hpp"
   8:src/../h/../h/tcb.hpp **** 
   9:src/../h/../h/tcb.hpp **** // Thread Control Block
  10:src/../h/../h/tcb.hpp **** class TCB
  11:src/../h/../h/tcb.hpp **** {
  12:src/../h/../h/tcb.hpp **** private:
  13:src/../h/../h/tcb.hpp ****     using Body = void (*)(void*);
  14:src/../h/../h/tcb.hpp ****     Body body;
  15:src/../h/../h/tcb.hpp ****     uint64* stack;
  16:src/../h/../h/tcb.hpp **** 
  17:src/../h/../h/tcb.hpp ****     // Thread context struct
  18:src/../h/../h/tcb.hpp ****     struct Context {
  19:src/../h/../h/tcb.hpp ****         uint64 ra; // Return address
  20:src/../h/../h/tcb.hpp ****         uint64 sp; // Stack pointer
  21:src/../h/../h/tcb.hpp ****     };
  22:src/../h/../h/tcb.hpp **** 
  23:src/../h/../h/tcb.hpp ****     // Thread context
  24:src/../h/../h/tcb.hpp ****     Context context;
  25:src/../h/../h/tcb.hpp ****     bool finished;
  26:src/../h/../h/tcb.hpp ****     bool blocked;
  27:src/../h/../h/tcb.hpp ****     uint64 timeSlice;
  28:src/../h/../h/tcb.hpp ****     time_t sleepingTime;
  29:src/../h/../h/tcb.hpp ****     bool sleep;
  30:src/../h/../h/tcb.hpp ****     void* arg;
  31:src/../h/../h/tcb.hpp **** 
  32:src/../h/../h/tcb.hpp ****     static void contextSwitch(Context* oldContext, Context* newContext);
  33:src/../h/../h/tcb.hpp **** 
  34:src/../h/../h/tcb.hpp ****     TCB(Body body, void* arg, uint64 timeSlice) :
  35:src/../h/../h/tcb.hpp ****             body(body),
  36:src/../h/../h/tcb.hpp ****             stack(body ? (uint64*)MemoryAllocator::mem_alloc(sizeof(uint64) * DEFAULT_STACK_SIZE) :
  37:src/../h/../h/tcb.hpp ****             context({(uint64)&threadWrapper, stack ? (uint64)&stack[DEFAULT_STACK_SIZE] : 0}),
  38:src/../h/../h/tcb.hpp ****             finished(false),
  39:src/../h/../h/tcb.hpp ****             blocked(false),
  40:src/../h/../h/tcb.hpp ****             timeSlice(timeSlice),
  41:src/../h/../h/tcb.hpp ****             sleepingTime(0),
  42:src/../h/../h/tcb.hpp ****             sleep(false),
GAS LISTING /tmp/ccWtz1qF.s 			page 5


  43:src/../h/../h/tcb.hpp ****             arg(arg)
  44:src/../h/../h/tcb.hpp ****     { if (body) Scheduler::put(this); }
  45:src/../h/../h/tcb.hpp **** 
  46:src/../h/../h/tcb.hpp **** public:
  47:src/../h/../h/tcb.hpp **** 
  48:src/../h/../h/tcb.hpp ****     void* operator new(size_t size) {
  49:src/../h/../h/tcb.hpp ****         return MemoryAllocator::mem_alloc(size);
  50:src/../h/../h/tcb.hpp ****     }
  51:src/../h/../h/tcb.hpp **** 
  52:src/../h/../h/tcb.hpp ****     void* operator new[] (size_t size) {
  53:src/../h/../h/tcb.hpp ****         return MemoryAllocator::mem_alloc(size);
  54:src/../h/../h/tcb.hpp ****     }
  55:src/../h/../h/tcb.hpp **** 
  56:src/../h/../h/tcb.hpp ****     void operator delete(void* ptr) noexcept {
  57:src/../h/../h/tcb.hpp ****         MemoryAllocator::mem_free(ptr);
  58:src/../h/../h/tcb.hpp ****     }
  59:src/../h/../h/tcb.hpp **** 
  60:src/../h/../h/tcb.hpp ****     void operator delete[] (void* ptr) noexcept {
  61:src/../h/../h/tcb.hpp ****         MemoryAllocator::mem_free(ptr);
  62:src/../h/../h/tcb.hpp ****     }
  63:src/../h/../h/tcb.hpp **** 
  64:src/../h/../h/tcb.hpp ****     static TCB* createThread(Body body, void* arg, uint64 timeSlice);
  65:src/../h/../h/tcb.hpp **** 
  66:src/../h/../h/tcb.hpp ****     // Getter and setter for finished
  67:src/../h/../h/tcb.hpp ****     bool isFinished() const { return this->finished; }
  68:src/../h/../h/tcb.hpp ****     void setFinished(bool value) { this->finished = value; }
  69:src/../h/../h/tcb.hpp **** 
  70:src/../h/../h/tcb.hpp ****     // Getter and setter for blocked
  71:src/../h/../h/tcb.hpp ****     bool isBlocked() const { return this->blocked; }
  72:src/../h/../h/tcb.hpp ****     void setBlocked(bool value) { this->blocked = value; }
 110              		.loc 3 72 35 is_stmt 1
 111              		.loc 3 72 49 is_stmt 0
 112 0090 13071000 		li	a4,1
 113 0094 A380E702 		sb	a4,33(a5)
 114              	.LVL9:
 115              	.LBE64:
 116              	.LBE63:
  11:src/semaphore.cpp **** 
 117              		.loc 1 11 9 is_stmt 1
  11:src/semaphore.cpp **** 
 118              		.loc 1 11 24 is_stmt 0
 119 0098 97000000 		call	_Z15thread_dispatchv@plt
 119      E7800000 
 120              	.LVL10:
  13:src/semaphore.cpp ****             return -1;
 121              		.loc 1 13 9 is_stmt 1
  13:src/semaphore.cpp ****             return -1;
 122              		.loc 1 13 19 is_stmt 0
 123 00a0 83C78401 		lbu	a5,24(s1)
  13:src/semaphore.cpp ****             return -1;
 124              		.loc 1 13 9
 125 00a4 63900702 		bnez	a5,.L7
  17:src/semaphore.cpp **** }
 126              		.loc 1 17 12
 127 00a8 13050000 		li	a0,0
 128 00ac 6FF01FF9 		j	.L2
 129              	.LVL11:
GAS LISTING /tmp/ccWtz1qF.s 			page 6


 130              	.L3:
 131              	.LBB65:
 132              	.LBB62:
  52:src/../h/../h/list.hpp ****         }
  53:src/../h/../h/list.hpp ****         else
  54:src/../h/../h/list.hpp ****             head = tail = elem;
 133              		.loc 2 54 13
 134 00b0 23B8A400 		sd	a0,16(s1)
 135 00b4 23B4A400 		sd	a0,8(s1)
 136 00b8 6FF0DFFC 		j	.L4
 137              	.LVL12:
 138              	.L5:
 139              		.cfi_def_cfa_register 2
 140              		.cfi_restore 1
 141              		.cfi_restore 8
 142              		.cfi_restore 9
 143              		.cfi_restore 18
 144              	.LBE62:
 145              	.LBE65:
   6:src/semaphore.cpp **** 
 146              		.loc 1 6 17
 147 00bc 1305F0FF 		li	a0,-1
 148              	.LVL13:
 149              		.loc 1 18 1
 150 00c0 67800000 		ret
 151              	.LVL14:
 152              	.L7:
 153              		.cfi_def_cfa_register 8
 154              		.cfi_offset 1, -8
 155              		.cfi_offset 8, -16
 156              		.cfi_offset 9, -24
 157              		.cfi_offset 18, -32
  14:src/semaphore.cpp ****     }
 158              		.loc 1 14 21
 159 00c4 1305F0FF 		li	a0,-1
 160 00c8 6FF05FF7 		j	.L2
 161              		.cfi_endproc
 162              	.LFE63:
 164              		.align	2
 165              		.globl	_ZN10_Semaphore6signalEv
 167              	_ZN10_Semaphore6signalEv:
 168              	.LFB64:
  19:src/semaphore.cpp **** 
  20:src/semaphore.cpp **** int _Semaphore::signal() {
 169              		.loc 1 20 26 is_stmt 1
 170              		.cfi_startproc
 171              		.cfi_personality 0x9b,DW.ref.__gxx_personality_v0
 172              		.cfi_lsda 0x1b,.LLSDA64
 173              	.LVL15:
  21:src/semaphore.cpp ****     if (this->closed)
 174              		.loc 1 21 5
 175              		.loc 1 21 15 is_stmt 0
 176 00cc 03478501 		lbu	a4,24(a0)
 177              		.loc 1 21 5
 178 00d0 6310070A 		bnez	a4,.L17
 179 00d4 93070500 		mv	a5,a0
  22:src/semaphore.cpp ****         return -1;
GAS LISTING /tmp/ccWtz1qF.s 			page 7


  23:src/semaphore.cpp **** 
  24:src/semaphore.cpp ****     if (++value <= 0) {
 180              		.loc 1 24 5 is_stmt 1
 181              	.LBB66:
 182              		.loc 1 24 11 is_stmt 0
 183 00d8 03270500 		lw	a4,0(a0)
 184              		.loc 1 24 9
 185 00dc 1B071700 		addiw	a4,a4,1
 186 00e0 9B060700 		sext.w	a3,a4
 187              		.loc 1 24 17
 188 00e4 2320E500 		sw	a4,0(a0)
 189              		.loc 1 24 5
 190 00e8 6356D000 		blez	a3,.L25
 191              	.LBE66:
  25:src/semaphore.cpp ****         TCB* newRunning = this->blocked.removeFirst();
  26:src/semaphore.cpp ****         if (newRunning->isBlocked()) {
  27:src/semaphore.cpp ****             newRunning->setBlocked(false);
  28:src/semaphore.cpp ****             Scheduler::put(newRunning);
  29:src/semaphore.cpp ****         }
  30:src/semaphore.cpp ****     }
  31:src/semaphore.cpp **** 
  32:src/semaphore.cpp ****     return 0;
 192              		.loc 1 32 12
 193 00ec 13050000 		li	a0,0
 194              	.LVL16:
  33:src/semaphore.cpp **** }
 195              		.loc 1 33 1
 196 00f0 67800000 		ret
 197              	.LVL17:
 198              	.L25:
  20:src/semaphore.cpp ****     if (this->closed)
 199              		.loc 1 20 26
 200 00f4 130101FE 		addi	sp,sp,-32
 201              		.cfi_def_cfa_offset 32
 202 00f8 233C1100 		sd	ra,24(sp)
 203 00fc 23388100 		sd	s0,16(sp)
 204 0100 23349100 		sd	s1,8(sp)
 205              		.cfi_offset 1, -8
 206              		.cfi_offset 8, -16
 207              		.cfi_offset 9, -24
 208 0104 13040102 		addi	s0,sp,32
 209              		.cfi_def_cfa 8, 0
 210              	.LBB80:
 211              	.LBB67:
  25:src/semaphore.cpp ****         TCB* newRunning = this->blocked.removeFirst();
 212              		.loc 1 25 9 is_stmt 1
 213              	.LVL18:
 214              	.LBB68:
 215              	.LBB69:
  55:src/../h/../h/list.hpp ****     }
  56:src/../h/../h/list.hpp **** 
  57:src/../h/../h/list.hpp ****     T* removeFirst() {
  58:src/../h/../h/list.hpp ****         if (!head)
 216              		.loc 2 58 14 is_stmt 0
 217 0108 03358500 		ld	a0,8(a0)
 218              	.LVL19:
 219              		.loc 2 58 9
GAS LISTING /tmp/ccWtz1qF.s 			page 8


 220 010c 63020504 		beqz	a0,.L19
 221              	.LVL20:
  59:src/../h/../h/list.hpp ****             return 0;
  60:src/../h/../h/list.hpp **** 
  61:src/../h/../h/list.hpp ****         Elem* elem = head;
  62:src/../h/../h/list.hpp ****         head = head->next;
 222              		.loc 2 62 22
 223 0110 03378500 		ld	a4,8(a0)
 224              		.loc 2 62 9
 225 0114 23B4E700 		sd	a4,8(a5)
  63:src/../h/../h/list.hpp ****         if (!head)
 226              		.loc 2 63 9
 227 0118 63080702 		beqz	a4,.L26
 228              	.L16:
  64:src/../h/../h/list.hpp ****             tail = 0;
  65:src/../h/../h/list.hpp **** 
  66:src/../h/../h/list.hpp ****         T* ret = elem->data;
 229              		.loc 2 66 12
 230 011c 83340500 		ld	s1,0(a0)
 231              	.LVL21:
 232              	.LBB70:
 233              	.LBB71:
  24:src/../h/../h/list.hpp ****         }
 234              		.loc 2 24 38
 235 0120 97000000 		call	_ZN15MemoryAllocator8mem_freeEPv@plt
 235      E7800000 
 236              	.LVL22:
 237              	.L15:
 238              	.LBE71:
 239              	.LBE70:
 240              	.LBE69:
 241              	.LBE68:
  26:src/semaphore.cpp ****             newRunning->setBlocked(false);
 242              		.loc 1 26 9 is_stmt 1
 243              	.LBB73:
 244              	.LBB74:
  71:src/../h/../h/tcb.hpp ****     void setBlocked(bool value) { this->blocked = value; }
 245              		.loc 3 71 30
  71:src/../h/../h/tcb.hpp ****     void setBlocked(bool value) { this->blocked = value; }
 246              		.loc 3 71 43 is_stmt 0
 247 0128 83C71402 		lbu	a5,33(s1)
 248              	.LVL23:
 249              	.LBE74:
 250              	.LBE73:
  26:src/semaphore.cpp ****             newRunning->setBlocked(false);
 251              		.loc 1 26 9
 252 012c 63960702 		bnez	a5,.L27
 253              	.LBE67:
 254              	.LBE80:
  32:src/semaphore.cpp **** }
 255              		.loc 1 32 12
 256 0130 13050000 		li	a0,0
 257              	.L14:
 258              		.loc 1 33 1
 259 0134 83308101 		ld	ra,24(sp)
 260              		.cfi_remember_state
 261              		.cfi_restore 1
GAS LISTING /tmp/ccWtz1qF.s 			page 9


 262 0138 03340101 		ld	s0,16(sp)
 263              		.cfi_restore 8
 264              		.cfi_def_cfa 2, 32
 265 013c 83348100 		ld	s1,8(sp)
 266              		.cfi_restore 9
 267              	.LVL24:
 268 0140 13010102 		addi	sp,sp,32
 269              		.cfi_def_cfa_offset 0
 270 0144 67800000 		jr	ra
 271              	.LVL25:
 272              	.L26:
 273              		.cfi_restore_state
 274              	.LBB81:
 275              	.LBB78:
 276              	.LBB75:
 277              	.LBB72:
  64:src/../h/../h/list.hpp **** 
 278              		.loc 2 64 13
 279 0148 23B80700 		sd	zero,16(a5)
 280 014c 6FF01FFD 		j	.L16
 281              	.LVL26:
 282              	.L19:
  59:src/../h/../h/list.hpp **** 
 283              		.loc 2 59 20
 284 0150 93040500 		mv	s1,a0
 285 0154 6FF05FFD 		j	.L15
 286              	.LVL27:
 287              	.L27:
 288              	.LBE72:
 289              	.LBE75:
  27:src/semaphore.cpp ****             Scheduler::put(newRunning);
 290              		.loc 1 27 13 is_stmt 1
 291              	.LBB76:
 292              	.LBB77:
 293              		.loc 3 72 35
 294              		.loc 3 72 49 is_stmt 0
 295 0158 A3800402 		sb	zero,33(s1)
 296              	.LVL28:
 297              	.LBE77:
 298              	.LBE76:
  28:src/semaphore.cpp ****         }
 299              		.loc 1 28 13 is_stmt 1
  28:src/semaphore.cpp ****         }
 300              		.loc 1 28 27 is_stmt 0
 301 015c 13850400 		mv	a0,s1
 302              	.LEHB0:
 303 0160 97000000 		call	_ZN9Scheduler3putEP3TCB@plt
 303      E7800000 
 304              	.LVL29:
 305              	.LEHE0:
 306              	.LBE78:
 307              	.LBE81:
  32:src/semaphore.cpp **** }
 308              		.loc 1 32 12
 309 0168 13050000 		li	a0,0
 310              	.LBB82:
 311              	.LBB79:
GAS LISTING /tmp/ccWtz1qF.s 			page 10


 312 016c 6FF09FFC 		j	.L14
 313              	.LVL30:
 314              	.L17:
 315              		.cfi_def_cfa_register 2
 316              		.cfi_restore 1
 317              		.cfi_restore 8
 318              		.cfi_restore 9
 319              	.LBE79:
 320              	.LBE82:
  22:src/semaphore.cpp **** 
 321              		.loc 1 22 17
 322 0170 1305F0FF 		li	a0,-1
 323              	.LVL31:
 324 0174 67800000 		ret
 325              		.cfi_endproc
 326              	.LFE64:
 327              		.globl	__gxx_personality_v0
 328              		.section	.gcc_except_table,"a",@progbits
 329              	.LLSDA64:
 330 0000 FF       		.byte	0xff
 331 0001 FF       		.byte	0xff
 332 0002 03       		.byte	0x3
 333 0003 0D       		.byte	0xd
 334 0004 00000000 		.4byte	.LEHB0-.LFB64
 335 0008 00000000 		.4byte	.LEHE0-.LEHB0
 336 000c 00000000 		.4byte	0
 337 0010 00       		.byte	0
 338              		.text
 340              		.align	2
 341              		.globl	_ZN10_Semaphore5closeEv
 343              	_ZN10_Semaphore5closeEv:
 344              	.LFB65:
  34:src/semaphore.cpp **** 
  35:src/semaphore.cpp **** int _Semaphore::close() {
 345              		.loc 1 35 25 is_stmt 1
 346              		.cfi_startproc
 347              		.cfi_personality 0x9b,DW.ref.__gxx_personality_v0
 348              		.cfi_lsda 0x1b,.LLSDA65
 349              	.LVL32:
 350 0178 130101FE 		addi	sp,sp,-32
 351              		.cfi_def_cfa_offset 32
 352 017c 233C1100 		sd	ra,24(sp)
 353 0180 23388100 		sd	s0,16(sp)
 354 0184 23349100 		sd	s1,8(sp)
 355 0188 23302101 		sd	s2,0(sp)
 356              		.cfi_offset 1, -8
 357              		.cfi_offset 8, -16
 358              		.cfi_offset 9, -24
 359              		.cfi_offset 18, -32
 360 018c 13040102 		addi	s0,sp,32
 361              		.cfi_def_cfa 8, 0
 362 0190 93040500 		mv	s1,a0
  36:src/semaphore.cpp ****     if (this->closed)
 363              		.loc 1 36 5
 364              		.loc 1 36 15 is_stmt 0
 365 0194 83478501 		lbu	a5,24(a0)
 366              		.loc 1 36 5
GAS LISTING /tmp/ccWtz1qF.s 			page 11


 367 0198 63860702 		beqz	a5,.L31
  37:src/semaphore.cpp ****         return -1;
 368              		.loc 1 37 17
 369 019c 1305F0FF 		li	a0,-1
 370              	.LVL33:
 371 01a0 6F008004 		j	.L29
 372              	.LVL34:
 373              	.L36:
 374              	.LBB83:
 375              	.LBB84:
 376              	.LBB85:
  64:src/../h/../h/list.hpp **** 
 377              		.loc 2 64 13
 378 01a4 23B80400 		sd	zero,16(s1)
 379              	.L30:
 380              		.loc 2 66 12
 381 01a8 03390500 		ld	s2,0(a0)
 382              	.LVL35:
 383              	.LBB86:
 384              	.LBB87:
  24:src/../h/../h/list.hpp ****         }
 385              		.loc 2 24 38
 386 01ac 97000000 		call	_ZN15MemoryAllocator8mem_freeEPv@plt
 386      E7800000 
 387              	.LVL36:
 388              	.LBE87:
 389              	.LBE86:
 390              	.LBE85:
 391              	.LBE84:
  38:src/semaphore.cpp **** 
  39:src/semaphore.cpp ****     while (this->blocked.peekFirst()) {
  40:src/semaphore.cpp ****         TCB* current = this->blocked.removeFirst();
  41:src/semaphore.cpp ****         current->setBlocked(false);
 392              		.loc 1 41 9 is_stmt 1
 393              	.LBB89:
 394              	.LBB90:
 395              		.loc 3 72 35
 396              		.loc 3 72 49 is_stmt 0
 397 01b4 A3000902 		sb	zero,33(s2)
 398              	.LVL37:
 399              	.LBE90:
 400              	.LBE89:
  42:src/semaphore.cpp ****         Scheduler::put(current);
 401              		.loc 1 42 9 is_stmt 1
 402              		.loc 1 42 23 is_stmt 0
 403 01b8 13050900 		mv	a0,s2
 404              	.LEHB1:
 405 01bc 97000000 		call	_ZN9Scheduler3putEP3TCB@plt
 405      E7800000 
 406              	.LVL38:
 407              	.LEHE1:
 408              	.L31:
 409              	.LBE83:
  39:src/semaphore.cpp ****         TCB* current = this->blocked.removeFirst();
 410              		.loc 1 39 5 is_stmt 1
  39:src/semaphore.cpp ****         TCB* current = this->blocked.removeFirst();
 411              		.loc 1 39 36
GAS LISTING /tmp/ccWtz1qF.s 			page 12


 412              	.LBB92:
 413              	.LBB93:
  67:src/../h/../h/list.hpp ****         delete elem;
  68:src/../h/../h/list.hpp ****         return ret;
  69:src/../h/../h/list.hpp ****     }
  70:src/../h/../h/list.hpp **** 
  71:src/../h/../h/list.hpp ****     T* peekFirst() {
  72:src/../h/../h/list.hpp ****         if (!head)
 414              		.loc 2 72 14 is_stmt 0
 415 01c4 03B58400 		ld	a0,8(s1)
 416              		.loc 2 72 9
 417 01c8 630E0500 		beqz	a0,.L33
  73:src/../h/../h/list.hpp ****             return 0;
  74:src/../h/../h/list.hpp ****         return head->data;
 418              		.loc 2 74 22
 419 01cc 83370500 		ld	a5,0(a0)
 420              	.LVL39:
 421              	.LBE93:
 422              	.LBE92:
  39:src/semaphore.cpp ****         TCB* current = this->blocked.removeFirst();
 423              		.loc 1 39 36
 424 01d0 63880702 		beqz	a5,.L34
 425              	.LBB94:
  40:src/semaphore.cpp ****         current->setBlocked(false);
 426              		.loc 1 40 9 is_stmt 1
 427              	.LVL40:
 428              	.LBB91:
 429              	.LBB88:
  62:src/../h/../h/list.hpp ****         if (!head)
 430              		.loc 2 62 22 is_stmt 0
 431 01d4 83378500 		ld	a5,8(a0)
  62:src/../h/../h/list.hpp ****         if (!head)
 432              		.loc 2 62 9
 433 01d8 23B4F400 		sd	a5,8(s1)
  63:src/../h/../h/list.hpp ****             tail = 0;
 434              		.loc 2 63 9
 435 01dc E39607FC 		bnez	a5,.L30
 436 01e0 6FF05FFC 		j	.L36
 437              	.LVL41:
 438              	.L33:
 439              	.LBE88:
 440              	.LBE91:
 441              	.LBE94:
  43:src/semaphore.cpp ****     }
  44:src/semaphore.cpp **** 
  45:src/semaphore.cpp ****     return 0;
 442              		.loc 1 45 12
 443 01e4 13050000 		li	a0,0
 444              	.LVL42:
 445              	.L29:
  46:src/semaphore.cpp **** }
 446              		.loc 1 46 1
 447 01e8 83308101 		ld	ra,24(sp)
 448              		.cfi_remember_state
 449              		.cfi_restore 1
 450 01ec 03340101 		ld	s0,16(sp)
 451              		.cfi_restore 8
GAS LISTING /tmp/ccWtz1qF.s 			page 13


 452              		.cfi_def_cfa 2, 32
 453 01f0 83348100 		ld	s1,8(sp)
 454              		.cfi_restore 9
 455              	.LVL43:
 456 01f4 03390100 		ld	s2,0(sp)
 457              		.cfi_restore 18
 458 01f8 13010102 		addi	sp,sp,32
 459              		.cfi_def_cfa_offset 0
 460 01fc 67800000 		jr	ra
 461              	.LVL44:
 462              	.L34:
 463              		.cfi_restore_state
  45:src/semaphore.cpp **** }
 464              		.loc 1 45 12
 465 0200 13050000 		li	a0,0
 466 0204 6FF05FFE 		j	.L29
 467              		.cfi_endproc
 468              	.LFE65:
 469              		.section	.gcc_except_table
 470              	.LLSDA65:
 471 0011 FF       		.byte	0xff
 472 0012 FF       		.byte	0xff
 473 0013 03       		.byte	0x3
 474 0014 0D       		.byte	0xd
 475 0015 00000000 		.4byte	.LEHB1-.LFB65
 476 0019 00000000 		.4byte	.LEHE1-.LEHB1
 477 001d 00000000 		.4byte	0
 478 0021 00       		.byte	0
 479              		.text
 481              		.align	2
 482              		.globl	_ZN10_Semaphore9timedwaitEm
 484              	_ZN10_Semaphore9timedwaitEm:
 485              	.LFB66:
  47:src/semaphore.cpp **** 
  48:src/semaphore.cpp **** int _Semaphore::timedwait(time_t timeout) {
 486              		.loc 1 48 43 is_stmt 1
 487              		.cfi_startproc
 488              	.LVL45:
  49:src/semaphore.cpp ****     if (this->closed)
 489              		.loc 1 49 5
 490              		.loc 1 49 15 is_stmt 0
 491 0208 83478501 		lbu	a5,24(a0)
 492              		.loc 1 49 5
 493 020c 639A070E 		bnez	a5,.L42
  48:src/semaphore.cpp ****     if (this->closed)
 494              		.loc 1 48 43
 495 0210 130101FD 		addi	sp,sp,-48
 496              		.cfi_def_cfa_offset 48
 497 0214 23341102 		sd	ra,40(sp)
 498 0218 23308102 		sd	s0,32(sp)
 499 021c 233C9100 		sd	s1,24(sp)
 500 0220 23382101 		sd	s2,16(sp)
 501 0224 23343101 		sd	s3,8(sp)
 502              		.cfi_offset 1, -8
 503              		.cfi_offset 8, -16
 504              		.cfi_offset 9, -24
 505              		.cfi_offset 18, -32
GAS LISTING /tmp/ccWtz1qF.s 			page 14


 506              		.cfi_offset 19, -40
 507 0228 13040103 		addi	s0,sp,48
 508              		.cfi_def_cfa 8, 0
 509 022c 93040500 		mv	s1,a0
 510 0230 13890500 		mv	s2,a1
  50:src/semaphore.cpp ****         return -1;
  51:src/semaphore.cpp **** 
  52:src/semaphore.cpp ****     int ret = 0;
 511              		.loc 1 52 5 is_stmt 1
 512              	.LVL46:
  53:src/semaphore.cpp **** 
  54:src/semaphore.cpp ****     if (--this->value < 0) {
 513              		.loc 1 54 5
 514              		.loc 1 54 17 is_stmt 0
 515 0234 83270500 		lw	a5,0(a0)
 516              		.loc 1 54 9
 517 0238 9B87F7FF 		addiw	a5,a5,-1
 518              		.loc 1 54 23
 519 023c 2320F500 		sw	a5,0(a0)
 520              		.loc 1 54 5
 521 0240 13970702 		slli	a4,a5,32
 522 0244 63420702 		bltz	a4,.L50
  52:src/semaphore.cpp **** 
 523              		.loc 1 52 9
 524 0248 13050000 		li	a0,0
 525              	.LVL47:
 526              	.L38:
  55:src/semaphore.cpp ****         this->blocked.addLast(TCB::running);
  56:src/semaphore.cpp ****         TCB::running->setBlocked(true);
  57:src/semaphore.cpp ****         TCB::running->setSleepingTime(timeout);
  58:src/semaphore.cpp ****         TCB::running->setSleep(true);
  59:src/semaphore.cpp ****         WaitList::add(TCB::running);
  60:src/semaphore.cpp **** 
  61:src/semaphore.cpp ****         thread_dispatch();
  62:src/semaphore.cpp **** 
  63:src/semaphore.cpp ****         if (TCB::running->isBlocked())
  64:src/semaphore.cpp ****             ret = -2;
  65:src/semaphore.cpp **** 
  66:src/semaphore.cpp ****         TCB::running->setBlocked(false);
  67:src/semaphore.cpp ****         TCB::running->setSleep(false);
  68:src/semaphore.cpp **** 
  69:src/semaphore.cpp ****         if (this->closed)
  70:src/semaphore.cpp ****             ret = -1;
  71:src/semaphore.cpp ****     }
  72:src/semaphore.cpp **** 
  73:src/semaphore.cpp ****     return ret;
  74:src/semaphore.cpp **** }
 527              		.loc 1 74 1
 528 024c 83308102 		ld	ra,40(sp)
 529              		.cfi_remember_state
 530              		.cfi_restore 1
 531 0250 03340102 		ld	s0,32(sp)
 532              		.cfi_restore 8
 533              		.cfi_def_cfa 2, 48
 534 0254 83348101 		ld	s1,24(sp)
 535              		.cfi_restore 9
 536              	.LVL48:
GAS LISTING /tmp/ccWtz1qF.s 			page 15


 537 0258 03390101 		ld	s2,16(sp)
 538              		.cfi_restore 18
 539              	.LVL49:
 540 025c 83398100 		ld	s3,8(sp)
 541              		.cfi_restore 19
 542 0260 13010103 		addi	sp,sp,48
 543              		.cfi_def_cfa_offset 0
 544 0264 67800000 		jr	ra
 545              	.LVL50:
 546              	.L50:
 547              		.cfi_restore_state
  55:src/semaphore.cpp ****         this->blocked.addLast(TCB::running);
 548              		.loc 1 55 9 is_stmt 1
  55:src/semaphore.cpp ****         this->blocked.addLast(TCB::running);
 549              		.loc 1 55 30 is_stmt 0
 550 0268 97070000 		la	a5,_ZN3TCB7runningE
 550      83B70700 
 551 0270 83B90700 		ld	s3,0(a5)
 552              	.LVL51:
 553              	.LBB95:
 554              	.LBB96:
 555              	.LBB97:
 556              	.LBB98:
  16:src/../h/../h/list.hpp ****         }
 557              		.loc 2 16 46
 558 0274 13050001 		li	a0,16
 559 0278 97000000 		call	_ZN15MemoryAllocator9mem_allocEm@plt
 559      E7800000 
 560              	.LVL52:
 561              	.LBE98:
 562              	.LBE97:
 563              	.LBB99:
 564              	.LBB100:
  13:src/../h/../h/list.hpp **** 
 565              		.loc 2 13 58
 566 0280 23303501 		sd	s3,0(a0)
 567 0284 23340500 		sd	zero,8(a0)
 568              	.LVL53:
 569              	.LBE100:
 570              	.LBE99:
  49:src/../h/../h/list.hpp ****             tail->next = elem;
 571              		.loc 2 49 13
 572 0288 83B70401 		ld	a5,16(s1)
  49:src/../h/../h/list.hpp ****             tail->next = elem;
 573              		.loc 2 49 9
 574 028c 63800706 		beqz	a5,.L39
  50:src/../h/../h/list.hpp ****             tail = elem;
 575              		.loc 2 50 13
 576 0290 23B4A700 		sd	a0,8(a5)
  51:src/../h/../h/list.hpp ****         }
 577              		.loc 2 51 13
 578 0294 23B8A400 		sd	a0,16(s1)
 579              	.L40:
 580              	.LVL54:
 581              	.LBE96:
 582              	.LBE95:
  56:src/semaphore.cpp ****         TCB::running->setSleepingTime(timeout);
GAS LISTING /tmp/ccWtz1qF.s 			page 16


 583              		.loc 1 56 9 is_stmt 1
  56:src/semaphore.cpp ****         TCB::running->setSleepingTime(timeout);
 584              		.loc 1 56 33 is_stmt 0
 585 0298 97090000 		la	s3,_ZN3TCB7runningE
 585      83B90900 
 586 02a0 03B50900 		ld	a0,0(s3)
 587              	.LVL55:
 588              	.LBB102:
 589              	.LBB103:
 590              		.loc 3 72 35 is_stmt 1
 591              		.loc 3 72 49 is_stmt 0
 592 02a4 93071000 		li	a5,1
 593 02a8 A300F502 		sb	a5,33(a0)
 594              	.LVL56:
 595              	.LBE103:
 596              	.LBE102:
  57:src/semaphore.cpp ****         TCB::running->setSleep(true);
 597              		.loc 1 57 9 is_stmt 1
 598              	.LBB104:
 599              	.LBB105:
  73:src/../h/../h/tcb.hpp **** 
  74:src/../h/../h/tcb.hpp ****     // Getter for time slice
  75:src/../h/../h/tcb.hpp ****     uint64 getTimeSlice() const { return this->timeSlice; }
  76:src/../h/../h/tcb.hpp ****     static uint64 timeSliceCounter;
  77:src/../h/../h/tcb.hpp **** 
  78:src/../h/../h/tcb.hpp ****     // Sleeping getters and setters
  79:src/../h/../h/tcb.hpp ****     void setSleepingTime(time_t time) { this->sleepingTime = time; }
 600              		.loc 3 79 41
 601              		.loc 3 79 60 is_stmt 0
 602 02ac 23382503 		sd	s2,48(a0)
 603              	.LVL57:
 604              	.LBE105:
 605              	.LBE104:
  58:src/semaphore.cpp ****         WaitList::add(TCB::running);
 606              		.loc 1 58 9 is_stmt 1
 607              	.LBB106:
 608              	.LBB107:
  80:src/../h/../h/tcb.hpp ****     time_t getSleepingTime() const { return this->sleepingTime; }
  81:src/../h/../h/tcb.hpp **** 
  82:src/../h/../h/tcb.hpp ****     void setSleep(bool val) { this->sleep = val; }
 609              		.loc 3 82 31
 610              		.loc 3 82 43 is_stmt 0
 611 02b0 230CF502 		sb	a5,56(a0)
 612              	.LVL58:
 613              	.LBE107:
 614              	.LBE106:
  59:src/semaphore.cpp **** 
 615              		.loc 1 59 9 is_stmt 1
  59:src/semaphore.cpp **** 
 616              		.loc 1 59 22 is_stmt 0
 617 02b4 97000000 		call	_ZN8WaitList3addEP3TCB@plt
 617      E7800000 
 618              	.LVL59:
  61:src/semaphore.cpp **** 
 619              		.loc 1 61 9 is_stmt 1
  61:src/semaphore.cpp **** 
 620              		.loc 1 61 24 is_stmt 0
GAS LISTING /tmp/ccWtz1qF.s 			page 17


 621 02bc 97000000 		call	_Z15thread_dispatchv@plt
 621      E7800000 
 622              	.LVL60:
  63:src/semaphore.cpp ****             ret = -2;
 623              		.loc 1 63 9 is_stmt 1
  63:src/semaphore.cpp ****             ret = -2;
 624              		.loc 1 63 36 is_stmt 0
 625 02c4 83B70900 		ld	a5,0(s3)
 626              	.LVL61:
 627              	.LBB108:
 628              	.LBB109:
  71:src/../h/../h/tcb.hpp ****     void setBlocked(bool value) { this->blocked = value; }
 629              		.loc 3 71 30 is_stmt 1
  71:src/../h/../h/tcb.hpp ****     void setBlocked(bool value) { this->blocked = value; }
 630              		.loc 3 71 43 is_stmt 0
 631 02c8 03C71702 		lbu	a4,33(a5)
 632              	.LVL62:
 633              	.LBE109:
 634              	.LBE108:
  63:src/semaphore.cpp ****             ret = -2;
 635              		.loc 1 63 9
 636 02cc 63160702 		bnez	a4,.L44
  52:src/semaphore.cpp **** 
 637              		.loc 1 52 9
 638 02d0 13050000 		li	a0,0
 639              	.L41:
 640              	.LVL63:
  66:src/semaphore.cpp ****         TCB::running->setSleep(false);
 641              		.loc 1 66 9 is_stmt 1
 642              	.LBB110:
 643              	.LBB111:
  72:src/../h/../h/tcb.hpp **** 
 644              		.loc 3 72 35
  72:src/../h/../h/tcb.hpp **** 
 645              		.loc 3 72 49 is_stmt 0
 646 02d4 A3800702 		sb	zero,33(a5)
 647              	.LVL64:
 648              	.LBE111:
 649              	.LBE110:
  67:src/semaphore.cpp **** 
 650              		.loc 1 67 9 is_stmt 1
 651              	.LBB112:
 652              	.LBB113:
 653              		.loc 3 82 31
 654              		.loc 3 82 43 is_stmt 0
 655 02d8 238C0702 		sb	zero,56(a5)
 656              	.LVL65:
 657              	.LBE113:
 658              	.LBE112:
  69:src/semaphore.cpp ****             ret = -1;
 659              		.loc 1 69 9 is_stmt 1
  69:src/semaphore.cpp ****             ret = -1;
 660              		.loc 1 69 19 is_stmt 0
 661 02dc 83C78401 		lbu	a5,24(s1)
  69:src/semaphore.cpp ****             ret = -1;
 662              		.loc 1 69 9
 663 02e0 E38607F6 		beqz	a5,.L38
GAS LISTING /tmp/ccWtz1qF.s 			page 18


  70:src/semaphore.cpp ****     }
 664              		.loc 1 70 17
 665 02e4 1305F0FF 		li	a0,-1
 666              	.LVL66:
 667 02e8 6FF05FF6 		j	.L38
 668              	.LVL67:
 669              	.L39:
 670              	.LBB114:
 671              	.LBB101:
  54:src/../h/../h/list.hpp ****     }
 672              		.loc 2 54 13
 673 02ec 23B8A400 		sd	a0,16(s1)
 674 02f0 23B4A400 		sd	a0,8(s1)
 675 02f4 6FF05FFA 		j	.L40
 676              	.LVL68:
 677              	.L44:
 678              	.LBE101:
 679              	.LBE114:
  64:src/semaphore.cpp **** 
 680              		.loc 1 64 17
 681 02f8 1305E0FF 		li	a0,-2
 682 02fc 6FF09FFD 		j	.L41
 683              	.LVL69:
 684              	.L42:
 685              		.cfi_def_cfa_register 2
 686              		.cfi_restore 1
 687              		.cfi_restore 8
 688              		.cfi_restore 9
 689              		.cfi_restore 18
 690              		.cfi_restore 19
  50:src/semaphore.cpp **** 
 691              		.loc 1 50 17
 692 0300 1305F0FF 		li	a0,-1
 693              	.LVL70:
 694              		.loc 1 74 1
 695 0304 67800000 		ret
 696              		.cfi_endproc
 697              	.LFE66:
 699              		.align	2
 700              		.globl	_ZN10_Semaphore7tryWaitEv
 702              	_ZN10_Semaphore7tryWaitEv:
 703              	.LFB67:
  75:src/semaphore.cpp **** 
  76:src/semaphore.cpp **** int _Semaphore::tryWait() {
 704              		.loc 1 76 27 is_stmt 1
 705              		.cfi_startproc
 706              	.LVL71:
 707 0308 130101FF 		addi	sp,sp,-16
 708              		.cfi_def_cfa_offset 16
 709 030c 23348100 		sd	s0,8(sp)
 710              		.cfi_offset 8, -8
 711 0310 13040101 		addi	s0,sp,16
 712              		.cfi_def_cfa 8, 0
  77:src/semaphore.cpp ****     if (closed)
 713              		.loc 1 77 5
 714              		.loc 1 77 9 is_stmt 0
 715 0314 83478501 		lbu	a5,24(a0)
GAS LISTING /tmp/ccWtz1qF.s 			page 19


 716              		.loc 1 77 5
 717 0318 639E0700 		bnez	a5,.L53
  78:src/semaphore.cpp ****         return -1;
  79:src/semaphore.cpp **** 
  80:src/semaphore.cpp ****     if (value <= 0)
 718              		.loc 1 80 5 is_stmt 1
 719              		.loc 1 80 9 is_stmt 0
 720 031c 83270500 		lw	a5,0(a0)
 721              		.loc 1 80 5
 722 0320 635EF000 		blez	a5,.L54
  81:src/semaphore.cpp ****         return 1;
  82:src/semaphore.cpp **** 
  83:src/semaphore.cpp ****     return 0;
 723              		.loc 1 83 12
 724 0324 13050000 		li	a0,0
 725              	.LVL72:
 726              	.L52:
  84:src/semaphore.cpp **** }
 727              		.loc 1 84 1
 728 0328 03348100 		ld	s0,8(sp)
 729              		.cfi_remember_state
 730              		.cfi_restore 8
 731              		.cfi_def_cfa 2, 16
 732 032c 13010101 		addi	sp,sp,16
 733              		.cfi_def_cfa_offset 0
 734 0330 67800000 		jr	ra
 735              	.LVL73:
 736              	.L53:
 737              		.cfi_restore_state
  78:src/semaphore.cpp ****         return -1;
 738              		.loc 1 78 17
 739 0334 1305F0FF 		li	a0,-1
 740              	.LVL74:
 741 0338 6FF01FFF 		j	.L52
 742              	.LVL75:
 743              	.L54:
  81:src/semaphore.cpp ****         return 1;
 744              		.loc 1 81 16
 745 033c 13051000 		li	a0,1
 746              	.LVL76:
 747 0340 6FF09FFE 		j	.L52
 748              		.cfi_endproc
 749              	.LFE67:
 751              	.Letext0:
 752              		.file 4 "src/../h/../h/../h/../lib/hw.h"
 753              		.file 5 "src/../h/../h/../h/memory_allocator.hpp"
 754              		.file 6 "src/../h/../h/../h/scheduler.hpp"
 755              		.file 7 "src/../h/../h/wait_list.hpp"
 756              		.file 8 "src/../h/semaphore.hpp"
 757              		.file 9 "src/../h/syscall_c.hpp"
 4841              		.align	3
 4844              	DW.ref.__gxx_personality_v0:
 4845 0000 00000000 		.dword	__gxx_personality_v0
 4845      00000000 
 4846              		.ident	"GCC: (Ubuntu 9.4.0-1ubuntu1~20.04) 9.4.0"
 4847              		.section	.note.GNU-stack,"",@progbits
GAS LISTING /tmp/ccWtz1qF.s 			page 20


DEFINED SYMBOLS
                            *ABS*:0000000000000000 semaphore.cpp
     /tmp/ccWtz1qF.s:9      .text:0000000000000000 _ZN10_Semaphore4waitEv
     /tmp/ccWtz1qF.s:13     .text:0000000000000000 .L0 
     /tmp/ccWtz1qF.s:15     .text:0000000000000000 .L0 
     /tmp/ccWtz1qF.s:16     .text:0000000000000000 .L0 
     /tmp/ccWtz1qF.s:17     .text:0000000000000000 .L0 
     /tmp/ccWtz1qF.s:19     .text:0000000000000004 .L0 
     /tmp/ccWtz1qF.s:21     .text:0000000000000008 .L0 
     /tmp/ccWtz1qF.s:22     .text:000000000000000c .L0 
     /tmp/ccWtz1qF.s:27     .text:000000000000001c .L0 
     /tmp/ccWtz1qF.s:28     .text:000000000000001c .L0 
     /tmp/ccWtz1qF.s:29     .text:000000000000001c .L0 
     /tmp/ccWtz1qF.s:30     .text:000000000000001c .L0 
     /tmp/ccWtz1qF.s:32     .text:0000000000000020 .L0 
     /tmp/ccWtz1qF.s:35     .text:0000000000000024 .L0 
     /tmp/ccWtz1qF.s:36     .text:0000000000000024 .L0 
     /tmp/ccWtz1qF.s:38     .text:0000000000000028 .L0 
     /tmp/ccWtz1qF.s:40     .text:000000000000002c .L0 
     /tmp/ccWtz1qF.s:42     .text:0000000000000030 .L0 
     /tmp/ccWtz1qF.s:45     .text:0000000000000038 .L0 
     /tmp/ccWtz1qF.s:49     .text:000000000000003c .L0 
     /tmp/ccWtz1qF.s:50     .text:0000000000000040 .L0 
     /tmp/ccWtz1qF.s:51     .text:0000000000000040 .L0 
     /tmp/ccWtz1qF.s:53     .text:0000000000000044 .L0 
     /tmp/ccWtz1qF.s:54     .text:0000000000000044 .L0 
     /tmp/ccWtz1qF.s:56     .text:0000000000000048 .L0 
     /tmp/ccWtz1qF.s:59     .text:000000000000004c .L0 
     /tmp/ccWtz1qF.s:61     .text:0000000000000050 .L0 
     /tmp/ccWtz1qF.s:65     .text:0000000000000054 .L0 
     /tmp/ccWtz1qF.s:67     .text:0000000000000054 .L0 
     /tmp/ccWtz1qF.s:68     .text:0000000000000054 .L0 
     /tmp/ccWtz1qF.s:77     .text:0000000000000060 .L0 
     /tmp/ccWtz1qF.s:85     .text:000000000000006c .L0 
     /tmp/ccWtz1qF.s:91     .text:0000000000000074 .L0 
     /tmp/ccWtz1qF.s:93     .text:0000000000000078 .L0 
     /tmp/ccWtz1qF.s:95     .text:000000000000007c .L0 
     /tmp/ccWtz1qF.s:97     .text:0000000000000080 .L0 
     /tmp/ccWtz1qF.s:103    .text:0000000000000084 .L0 
     /tmp/ccWtz1qF.s:104    .text:0000000000000084 .L0 
     /tmp/ccWtz1qF.s:111    .text:0000000000000090 .L0 
     /tmp/ccWtz1qF.s:112    .text:0000000000000090 .L0 
     /tmp/ccWtz1qF.s:118    .text:0000000000000098 .L0 
     /tmp/ccWtz1qF.s:119    .text:0000000000000098 .L0 
     /tmp/ccWtz1qF.s:122    .text:00000000000000a0 .L0 
     /tmp/ccWtz1qF.s:123    .text:00000000000000a0 .L0 
     /tmp/ccWtz1qF.s:125    .text:00000000000000a4 .L0 
     /tmp/ccWtz1qF.s:127    .text:00000000000000a8 .L0 
     /tmp/ccWtz1qF.s:134    .text:00000000000000b0 .L0 
     /tmp/ccWtz1qF.s:139    .text:00000000000000bc .L0 
     /tmp/ccWtz1qF.s:140    .text:00000000000000bc .L0 
     /tmp/ccWtz1qF.s:141    .text:00000000000000bc .L0 
     /tmp/ccWtz1qF.s:142    .text:00000000000000bc .L0 
     /tmp/ccWtz1qF.s:143    .text:00000000000000bc .L0 
     /tmp/ccWtz1qF.s:147    .text:00000000000000bc .L0 
     /tmp/ccWtz1qF.s:150    .text:00000000000000c0 .L0 
     /tmp/ccWtz1qF.s:153    .text:00000000000000c4 .L0 
GAS LISTING /tmp/ccWtz1qF.s 			page 21


     /tmp/ccWtz1qF.s:154    .text:00000000000000c4 .L0 
     /tmp/ccWtz1qF.s:155    .text:00000000000000c4 .L0 
     /tmp/ccWtz1qF.s:156    .text:00000000000000c4 .L0 
     /tmp/ccWtz1qF.s:157    .text:00000000000000c4 .L0 
     /tmp/ccWtz1qF.s:159    .text:00000000000000c4 .L0 
     /tmp/ccWtz1qF.s:161    .text:00000000000000cc .L0 
     /tmp/ccWtz1qF.s:167    .text:00000000000000cc _ZN10_Semaphore6signalEv
     /tmp/ccWtz1qF.s:170    .text:00000000000000cc .L0 
     /tmp/ccWtz1qF.s:4844   .data.rel.local.DW.ref.__gxx_personality_v0:0000000000000000 DW.ref.__gxx_personality_v0
     /tmp/ccWtz1qF.s:174    .text:00000000000000cc .L0 
     /tmp/ccWtz1qF.s:175    .text:00000000000000cc .L0 
     /tmp/ccWtz1qF.s:176    .text:00000000000000cc .L0 
     /tmp/ccWtz1qF.s:178    .text:00000000000000d0 .L0 
     /tmp/ccWtz1qF.s:182    .text:00000000000000d8 .L0 
     /tmp/ccWtz1qF.s:183    .text:00000000000000d8 .L0 
     /tmp/ccWtz1qF.s:185    .text:00000000000000dc .L0 
     /tmp/ccWtz1qF.s:188    .text:00000000000000e4 .L0 
     /tmp/ccWtz1qF.s:190    .text:00000000000000e8 .L0 
     /tmp/ccWtz1qF.s:193    .text:00000000000000ec .L0 
     /tmp/ccWtz1qF.s:196    .text:00000000000000f0 .L0 
     /tmp/ccWtz1qF.s:200    .text:00000000000000f4 .L0 
     /tmp/ccWtz1qF.s:201    .text:00000000000000f8 .L0 
     /tmp/ccWtz1qF.s:205    .text:0000000000000104 .L0 
     /tmp/ccWtz1qF.s:206    .text:0000000000000104 .L0 
     /tmp/ccWtz1qF.s:207    .text:0000000000000104 .L0 
     /tmp/ccWtz1qF.s:209    .text:0000000000000108 .L0 
     /tmp/ccWtz1qF.s:216    .text:0000000000000108 .L0 
     /tmp/ccWtz1qF.s:217    .text:0000000000000108 .L0 
     /tmp/ccWtz1qF.s:220    .text:000000000000010c .L0 
     /tmp/ccWtz1qF.s:223    .text:0000000000000110 .L0 
     /tmp/ccWtz1qF.s:225    .text:0000000000000114 .L0 
     /tmp/ccWtz1qF.s:227    .text:0000000000000118 .L0 
     /tmp/ccWtz1qF.s:230    .text:000000000000011c .L0 
     /tmp/ccWtz1qF.s:235    .text:0000000000000120 .L0 
     /tmp/ccWtz1qF.s:245    .text:0000000000000128 .L0 
     /tmp/ccWtz1qF.s:246    .text:0000000000000128 .L0 
     /tmp/ccWtz1qF.s:247    .text:0000000000000128 .L0 
     /tmp/ccWtz1qF.s:252    .text:000000000000012c .L0 
     /tmp/ccWtz1qF.s:256    .text:0000000000000130 .L0 
     /tmp/ccWtz1qF.s:259    .text:0000000000000134 .L0 
     /tmp/ccWtz1qF.s:260    .text:0000000000000138 .L0 
     /tmp/ccWtz1qF.s:261    .text:0000000000000138 .L0 
     /tmp/ccWtz1qF.s:263    .text:000000000000013c .L0 
     /tmp/ccWtz1qF.s:264    .text:000000000000013c .L0 
     /tmp/ccWtz1qF.s:266    .text:0000000000000140 .L0 
     /tmp/ccWtz1qF.s:269    .text:0000000000000144 .L0 
     /tmp/ccWtz1qF.s:273    .text:0000000000000148 .L0 
     /tmp/ccWtz1qF.s:279    .text:0000000000000148 .L0 
     /tmp/ccWtz1qF.s:284    .text:0000000000000150 .L0 
     /tmp/ccWtz1qF.s:293    .text:0000000000000158 .L0 
     /tmp/ccWtz1qF.s:294    .text:0000000000000158 .L0 
     /tmp/ccWtz1qF.s:295    .text:0000000000000158 .L0 
     /tmp/ccWtz1qF.s:300    .text:000000000000015c .L0 
     /tmp/ccWtz1qF.s:301    .text:000000000000015c .L0 
     /tmp/ccWtz1qF.s:309    .text:0000000000000168 .L0 
     /tmp/ccWtz1qF.s:315    .text:0000000000000170 .L0 
     /tmp/ccWtz1qF.s:316    .text:0000000000000170 .L0 
GAS LISTING /tmp/ccWtz1qF.s 			page 22


     /tmp/ccWtz1qF.s:317    .text:0000000000000170 .L0 
     /tmp/ccWtz1qF.s:318    .text:0000000000000170 .L0 
     /tmp/ccWtz1qF.s:322    .text:0000000000000170 .L0 
     /tmp/ccWtz1qF.s:325    .text:0000000000000178 .L0 
     /tmp/ccWtz1qF.s:343    .text:0000000000000178 _ZN10_Semaphore5closeEv
     /tmp/ccWtz1qF.s:346    .text:0000000000000178 .L0 
     /tmp/ccWtz1qF.s:350    .text:0000000000000178 .L0 
     /tmp/ccWtz1qF.s:351    .text:000000000000017c .L0 
     /tmp/ccWtz1qF.s:356    .text:000000000000018c .L0 
     /tmp/ccWtz1qF.s:357    .text:000000000000018c .L0 
     /tmp/ccWtz1qF.s:358    .text:000000000000018c .L0 
     /tmp/ccWtz1qF.s:359    .text:000000000000018c .L0 
     /tmp/ccWtz1qF.s:361    .text:0000000000000190 .L0 
     /tmp/ccWtz1qF.s:364    .text:0000000000000194 .L0 
     /tmp/ccWtz1qF.s:365    .text:0000000000000194 .L0 
     /tmp/ccWtz1qF.s:367    .text:0000000000000198 .L0 
     /tmp/ccWtz1qF.s:369    .text:000000000000019c .L0 
     /tmp/ccWtz1qF.s:378    .text:00000000000001a4 .L0 
     /tmp/ccWtz1qF.s:381    .text:00000000000001a8 .L0 
     /tmp/ccWtz1qF.s:386    .text:00000000000001ac .L0 
     /tmp/ccWtz1qF.s:395    .text:00000000000001b4 .L0 
     /tmp/ccWtz1qF.s:396    .text:00000000000001b4 .L0 
     /tmp/ccWtz1qF.s:397    .text:00000000000001b4 .L0 
     /tmp/ccWtz1qF.s:402    .text:00000000000001b8 .L0 
     /tmp/ccWtz1qF.s:403    .text:00000000000001b8 .L0 
     /tmp/ccWtz1qF.s:411    .text:00000000000001c4 .L0 
     /tmp/ccWtz1qF.s:414    .text:00000000000001c4 .L0 
     /tmp/ccWtz1qF.s:415    .text:00000000000001c4 .L0 
     /tmp/ccWtz1qF.s:417    .text:00000000000001c8 .L0 
     /tmp/ccWtz1qF.s:419    .text:00000000000001cc .L0 
     /tmp/ccWtz1qF.s:424    .text:00000000000001d0 .L0 
     /tmp/ccWtz1qF.s:430    .text:00000000000001d4 .L0 
     /tmp/ccWtz1qF.s:431    .text:00000000000001d4 .L0 
     /tmp/ccWtz1qF.s:433    .text:00000000000001d8 .L0 
     /tmp/ccWtz1qF.s:435    .text:00000000000001dc .L0 
     /tmp/ccWtz1qF.s:443    .text:00000000000001e4 .L0 
     /tmp/ccWtz1qF.s:447    .text:00000000000001e8 .L0 
     /tmp/ccWtz1qF.s:448    .text:00000000000001ec .L0 
     /tmp/ccWtz1qF.s:449    .text:00000000000001ec .L0 
     /tmp/ccWtz1qF.s:451    .text:00000000000001f0 .L0 
     /tmp/ccWtz1qF.s:452    .text:00000000000001f0 .L0 
     /tmp/ccWtz1qF.s:454    .text:00000000000001f4 .L0 
     /tmp/ccWtz1qF.s:457    .text:00000000000001f8 .L0 
     /tmp/ccWtz1qF.s:459    .text:00000000000001fc .L0 
     /tmp/ccWtz1qF.s:463    .text:0000000000000200 .L0 
     /tmp/ccWtz1qF.s:465    .text:0000000000000200 .L0 
     /tmp/ccWtz1qF.s:467    .text:0000000000000208 .L0 
     /tmp/ccWtz1qF.s:484    .text:0000000000000208 _ZN10_Semaphore9timedwaitEm
     /tmp/ccWtz1qF.s:487    .text:0000000000000208 .L0 
     /tmp/ccWtz1qF.s:489    .text:0000000000000208 .L0 
     /tmp/ccWtz1qF.s:490    .text:0000000000000208 .L0 
     /tmp/ccWtz1qF.s:491    .text:0000000000000208 .L0 
     /tmp/ccWtz1qF.s:493    .text:000000000000020c .L0 
     /tmp/ccWtz1qF.s:495    .text:0000000000000210 .L0 
     /tmp/ccWtz1qF.s:496    .text:0000000000000214 .L0 
     /tmp/ccWtz1qF.s:502    .text:0000000000000228 .L0 
     /tmp/ccWtz1qF.s:503    .text:0000000000000228 .L0 
GAS LISTING /tmp/ccWtz1qF.s 			page 23


     /tmp/ccWtz1qF.s:504    .text:0000000000000228 .L0 
     /tmp/ccWtz1qF.s:505    .text:0000000000000228 .L0 
     /tmp/ccWtz1qF.s:506    .text:0000000000000228 .L0 
     /tmp/ccWtz1qF.s:508    .text:000000000000022c .L0 
     /tmp/ccWtz1qF.s:513    .text:0000000000000234 .L0 
     /tmp/ccWtz1qF.s:514    .text:0000000000000234 .L0 
     /tmp/ccWtz1qF.s:515    .text:0000000000000234 .L0 
     /tmp/ccWtz1qF.s:517    .text:0000000000000238 .L0 
     /tmp/ccWtz1qF.s:519    .text:000000000000023c .L0 
     /tmp/ccWtz1qF.s:521    .text:0000000000000240 .L0 
     /tmp/ccWtz1qF.s:524    .text:0000000000000248 .L0 
     /tmp/ccWtz1qF.s:528    .text:000000000000024c .L0 
     /tmp/ccWtz1qF.s:529    .text:0000000000000250 .L0 
     /tmp/ccWtz1qF.s:530    .text:0000000000000250 .L0 
     /tmp/ccWtz1qF.s:532    .text:0000000000000254 .L0 
     /tmp/ccWtz1qF.s:533    .text:0000000000000254 .L0 
     /tmp/ccWtz1qF.s:535    .text:0000000000000258 .L0 
     /tmp/ccWtz1qF.s:538    .text:000000000000025c .L0 
     /tmp/ccWtz1qF.s:541    .text:0000000000000260 .L0 
     /tmp/ccWtz1qF.s:543    .text:0000000000000264 .L0 
     /tmp/ccWtz1qF.s:547    .text:0000000000000268 .L0 
     /tmp/ccWtz1qF.s:549    .text:0000000000000268 .L0 
     /tmp/ccWtz1qF.s:550    .text:0000000000000268 .L0 
     /tmp/ccWtz1qF.s:558    .text:0000000000000274 .L0 
     /tmp/ccWtz1qF.s:566    .text:0000000000000280 .L0 
     /tmp/ccWtz1qF.s:572    .text:0000000000000288 .L0 
     /tmp/ccWtz1qF.s:574    .text:000000000000028c .L0 
     /tmp/ccWtz1qF.s:576    .text:0000000000000290 .L0 
     /tmp/ccWtz1qF.s:578    .text:0000000000000294 .L0 
     /tmp/ccWtz1qF.s:584    .text:0000000000000298 .L0 
     /tmp/ccWtz1qF.s:585    .text:0000000000000298 .L0 
     /tmp/ccWtz1qF.s:591    .text:00000000000002a4 .L0 
     /tmp/ccWtz1qF.s:592    .text:00000000000002a4 .L0 
     /tmp/ccWtz1qF.s:600    .text:00000000000002ac .L0 
     /tmp/ccWtz1qF.s:601    .text:00000000000002ac .L0 
     /tmp/ccWtz1qF.s:602    .text:00000000000002ac .L0 
     /tmp/ccWtz1qF.s:609    .text:00000000000002b0 .L0 
     /tmp/ccWtz1qF.s:610    .text:00000000000002b0 .L0 
     /tmp/ccWtz1qF.s:611    .text:00000000000002b0 .L0 
     /tmp/ccWtz1qF.s:616    .text:00000000000002b4 .L0 
     /tmp/ccWtz1qF.s:617    .text:00000000000002b4 .L0 
     /tmp/ccWtz1qF.s:620    .text:00000000000002bc .L0 
     /tmp/ccWtz1qF.s:621    .text:00000000000002bc .L0 
     /tmp/ccWtz1qF.s:624    .text:00000000000002c4 .L0 
     /tmp/ccWtz1qF.s:625    .text:00000000000002c4 .L0 
     /tmp/ccWtz1qF.s:630    .text:00000000000002c8 .L0 
     /tmp/ccWtz1qF.s:631    .text:00000000000002c8 .L0 
     /tmp/ccWtz1qF.s:636    .text:00000000000002cc .L0 
     /tmp/ccWtz1qF.s:638    .text:00000000000002d0 .L0 
     /tmp/ccWtz1qF.s:644    .text:00000000000002d4 .L0 
     /tmp/ccWtz1qF.s:645    .text:00000000000002d4 .L0 
     /tmp/ccWtz1qF.s:646    .text:00000000000002d4 .L0 
     /tmp/ccWtz1qF.s:653    .text:00000000000002d8 .L0 
     /tmp/ccWtz1qF.s:654    .text:00000000000002d8 .L0 
     /tmp/ccWtz1qF.s:655    .text:00000000000002d8 .L0 
     /tmp/ccWtz1qF.s:660    .text:00000000000002dc .L0 
     /tmp/ccWtz1qF.s:661    .text:00000000000002dc .L0 
GAS LISTING /tmp/ccWtz1qF.s 			page 24


     /tmp/ccWtz1qF.s:663    .text:00000000000002e0 .L0 
     /tmp/ccWtz1qF.s:665    .text:00000000000002e4 .L0 
     /tmp/ccWtz1qF.s:673    .text:00000000000002ec .L0 
     /tmp/ccWtz1qF.s:681    .text:00000000000002f8 .L0 
     /tmp/ccWtz1qF.s:685    .text:0000000000000300 .L0 
     /tmp/ccWtz1qF.s:686    .text:0000000000000300 .L0 
     /tmp/ccWtz1qF.s:687    .text:0000000000000300 .L0 
     /tmp/ccWtz1qF.s:688    .text:0000000000000300 .L0 
     /tmp/ccWtz1qF.s:689    .text:0000000000000300 .L0 
     /tmp/ccWtz1qF.s:690    .text:0000000000000300 .L0 
     /tmp/ccWtz1qF.s:692    .text:0000000000000300 .L0 
     /tmp/ccWtz1qF.s:695    .text:0000000000000304 .L0 
     /tmp/ccWtz1qF.s:696    .text:0000000000000308 .L0 
     /tmp/ccWtz1qF.s:702    .text:0000000000000308 _ZN10_Semaphore7tryWaitEv
     /tmp/ccWtz1qF.s:705    .text:0000000000000308 .L0 
     /tmp/ccWtz1qF.s:707    .text:0000000000000308 .L0 
     /tmp/ccWtz1qF.s:708    .text:000000000000030c .L0 
     /tmp/ccWtz1qF.s:710    .text:0000000000000310 .L0 
     /tmp/ccWtz1qF.s:712    .text:0000000000000314 .L0 
     /tmp/ccWtz1qF.s:714    .text:0000000000000314 .L0 
     /tmp/ccWtz1qF.s:715    .text:0000000000000314 .L0 
     /tmp/ccWtz1qF.s:717    .text:0000000000000318 .L0 
     /tmp/ccWtz1qF.s:719    .text:000000000000031c .L0 
     /tmp/ccWtz1qF.s:720    .text:000000000000031c .L0 
     /tmp/ccWtz1qF.s:722    .text:0000000000000320 .L0 
     /tmp/ccWtz1qF.s:724    .text:0000000000000324 .L0 
     /tmp/ccWtz1qF.s:728    .text:0000000000000328 .L0 
     /tmp/ccWtz1qF.s:729    .text:000000000000032c .L0 
     /tmp/ccWtz1qF.s:730    .text:000000000000032c .L0 
     /tmp/ccWtz1qF.s:731    .text:000000000000032c .L0 
     /tmp/ccWtz1qF.s:733    .text:0000000000000330 .L0 
     /tmp/ccWtz1qF.s:737    .text:0000000000000334 .L0 
     /tmp/ccWtz1qF.s:739    .text:0000000000000334 .L0 
     /tmp/ccWtz1qF.s:745    .text:000000000000033c .L0 
     /tmp/ccWtz1qF.s:748    .text:0000000000000344 .L0 
     /tmp/ccWtz1qF.s:758    .text:0000000000000344 .L0 
     /tmp/ccWtz1qF.s:68     .text:0000000000000054 .L0 
     /tmp/ccWtz1qF.s:104    .text:0000000000000084 .L0 
     /tmp/ccWtz1qF.s:550    .text:0000000000000268 .L0 
     /tmp/ccWtz1qF.s:585    .text:0000000000000298 .L0 
     /tmp/ccWtz1qF.s:138    .text:00000000000000bc .L5
     /tmp/ccWtz1qF.s:64     .text:0000000000000054 .L12
     /tmp/ccWtz1qF.s:130    .text:00000000000000b0 .L3
     /tmp/ccWtz1qF.s:152    .text:00000000000000c4 .L7
     /tmp/ccWtz1qF.s:47     .text:000000000000003c .L2
     /tmp/ccWtz1qF.s:98     .text:0000000000000084 .L4
     /tmp/ccWtz1qF.s:314    .text:0000000000000170 .L17
     /tmp/ccWtz1qF.s:198    .text:00000000000000f4 .L25
     /tmp/ccWtz1qF.s:282    .text:0000000000000150 .L19
     /tmp/ccWtz1qF.s:272    .text:0000000000000148 .L26
     /tmp/ccWtz1qF.s:287    .text:0000000000000158 .L27
     /tmp/ccWtz1qF.s:228    .text:000000000000011c .L16
     /tmp/ccWtz1qF.s:237    .text:0000000000000128 .L15
     /tmp/ccWtz1qF.s:257    .text:0000000000000134 .L14
     /tmp/ccWtz1qF.s:408    .text:00000000000001c4 .L31
     /tmp/ccWtz1qF.s:445    .text:00000000000001e8 .L29
     /tmp/ccWtz1qF.s:438    .text:00000000000001e4 .L33
GAS LISTING /tmp/ccWtz1qF.s 			page 25


     /tmp/ccWtz1qF.s:462    .text:0000000000000200 .L34
     /tmp/ccWtz1qF.s:379    .text:00000000000001a8 .L30
     /tmp/ccWtz1qF.s:373    .text:00000000000001a4 .L36
     /tmp/ccWtz1qF.s:684    .text:0000000000000300 .L42
     /tmp/ccWtz1qF.s:546    .text:0000000000000268 .L50
     /tmp/ccWtz1qF.s:669    .text:00000000000002ec .L39
     /tmp/ccWtz1qF.s:677    .text:00000000000002f8 .L44
     /tmp/ccWtz1qF.s:526    .text:000000000000024c .L38
     /tmp/ccWtz1qF.s:579    .text:0000000000000298 .L40
     /tmp/ccWtz1qF.s:639    .text:00000000000002d4 .L41
     /tmp/ccWtz1qF.s:736    .text:0000000000000334 .L53
     /tmp/ccWtz1qF.s:743    .text:000000000000033c .L54
     /tmp/ccWtz1qF.s:726    .text:0000000000000328 .L52
     /tmp/ccWtz1qF.s:302    .text:0000000000000160 .LEHB0
     /tmp/ccWtz1qF.s:168    .text:00000000000000cc .LFB64
     /tmp/ccWtz1qF.s:305    .text:0000000000000168 .LEHE0
     /tmp/ccWtz1qF.s:404    .text:00000000000001bc .LEHB1
     /tmp/ccWtz1qF.s:344    .text:0000000000000178 .LFB65
     /tmp/ccWtz1qF.s:407    .text:00000000000001c4 .LEHE1
     /tmp/ccWtz1qF.s:2649   .debug_abbrev:0000000000000000 .Ldebug_abbrev0
     /tmp/ccWtz1qF.s:4782   .debug_str:0000000000000830 .LASF152
     /tmp/ccWtz1qF.s:4676   .debug_str:0000000000000571 .LASF153
     /tmp/ccWtz1qF.s:4612   .debug_str:000000000000034c .LASF154
     /tmp/ccWtz1qF.s:5      .text:0000000000000000 .Ltext0
     /tmp/ccWtz1qF.s:751    .text:0000000000000344 .Letext0
     /tmp/ccWtz1qF.s:4508   .debug_line:0000000000000000 .Ldebug_line0
     /tmp/ccWtz1qF.s:4636   .debug_str:0000000000000448 .LASF0
     /tmp/ccWtz1qF.s:4664   .debug_str:0000000000000525 .LASF1
     /tmp/ccWtz1qF.s:4736   .debug_str:000000000000071b .LASF2
     /tmp/ccWtz1qF.s:4744   .debug_str:0000000000000755 .LASF4
     /tmp/ccWtz1qF.s:4646   .debug_str:0000000000000490 .LASF3
     /tmp/ccWtz1qF.s:4524   .debug_str:000000000000008c .LASF5
     /tmp/ccWtz1qF.s:4716   .debug_str:0000000000000689 .LASF6
     /tmp/ccWtz1qF.s:4708   .debug_str:0000000000000642 .LASF7
     /tmp/ccWtz1qF.s:4658   .debug_str:0000000000000508 .LASF8
     /tmp/ccWtz1qF.s:4616   .debug_str:000000000000036f .LASF9
     /tmp/ccWtz1qF.s:4624   .debug_str:00000000000003bd .LASF10
     /tmp/ccWtz1qF.s:4564   .debug_str:00000000000001ca .LASF11
     /tmp/ccWtz1qF.s:4606   .debug_str:000000000000032c .LASF12
     /tmp/ccWtz1qF.s:4576   .debug_str:0000000000000223 .LASF13
     /tmp/ccWtz1qF.s:4562   .debug_str:00000000000001ba .LASF14
     /tmp/ccWtz1qF.s:4766   .debug_str:00000000000007d9 .LASF15
     /tmp/ccWtz1qF.s:4596   .debug_str:00000000000002b4 .LASF16
     /tmp/ccWtz1qF.s:4756   .debug_str:0000000000000796 .LASF17
     /tmp/ccWtz1qF.s:4652   .debug_str:00000000000004d8 .LASF32
     /tmp/ccWtz1qF.s:4662   .debug_str:0000000000000520 .LASF18
     /tmp/ccWtz1qF.s:4566   .debug_str:00000000000001d9 .LASF19
     /tmp/ccWtz1qF.s:4534   .debug_str:00000000000000eb .LASF20
     /tmp/ccWtz1qF.s:4704   .debug_str:0000000000000626 .LASF23
     /tmp/ccWtz1qF.s:4730   .debug_str:00000000000006f6 .LASF21
     /tmp/ccWtz1qF.s:4802   .debug_str:000000000000098f .LASF22
     /tmp/ccWtz1qF.s:4532   .debug_str:00000000000000d2 .LASF35
     /tmp/ccWtz1qF.s:4648   .debug_str:00000000000004a2 .LASF25
     /tmp/ccWtz1qF.s:4740   .debug_str:0000000000000736 .LASF48
     /tmp/ccWtz1qF.s:4800   .debug_str:0000000000000973 .LASF49
     /tmp/ccWtz1qF.s:4644   .debug_str:0000000000000486 .LASF30
     /tmp/ccWtz1qF.s:4634   .debug_str:0000000000000421 .LASF42
GAS LISTING /tmp/ccWtz1qF.s 			page 26


     /tmp/ccWtz1qF.s:4680   .debug_str:000000000000058e .LASF24
     /tmp/ccWtz1qF.s:4526   .debug_str:0000000000000093 .LASF26
     /tmp/ccWtz1qF.s:4772   .debug_str:00000000000007f5 .LASF27
     /tmp/ccWtz1qF.s:4682   .debug_str:0000000000000598 .LASF28
     /tmp/ccWtz1qF.s:4538   .debug_str:0000000000000108 .LASF102
     /tmp/ccWtz1qF.s:4828   .debug_str:0000000000000a7c .LASF104
     /tmp/ccWtz1qF.s:4614   .debug_str:0000000000000365 .LASF29
     /tmp/ccWtz1qF.s:4776   .debug_str:0000000000000809 .LASF92
     /tmp/ccWtz1qF.s:4820   .debug_str:0000000000000a26 .LASF155
     /tmp/ccWtz1qF.s:4632   .debug_str:0000000000000409 .LASF156
     /tmp/ccWtz1qF.s:4808   .debug_str:00000000000009b7 .LASF31
     /tmp/ccWtz1qF.s:4798   .debug_str:000000000000096e .LASF33
     /tmp/ccWtz1qF.s:4660   .debug_str:000000000000051b .LASF34
     /tmp/ccWtz1qF.s:4826   .debug_str:0000000000000a5d .LASF36
     /tmp/ccWtz1qF.s:4832   .debug_str:0000000000000ab4 .LASF37
     /tmp/ccWtz1qF.s:4536   .debug_str:00000000000000f0 .LASF38
     /tmp/ccWtz1qF.s:4546   .debug_str:0000000000000132 .LASF39
     /tmp/ccWtz1qF.s:4528   .debug_str:00000000000000b4 .LASF40
     /tmp/ccWtz1qF.s:4516   .debug_str:000000000000002e .LASF41
     /tmp/ccWtz1qF.s:4812   .debug_str:00000000000009df .LASF43
     /tmp/ccWtz1qF.s:4754   .debug_str:0000000000000783 .LASF78
     /tmp/ccWtz1qF.s:4550   .debug_str:0000000000000148 .LASF157
     /tmp/ccWtz1qF.s:4762   .debug_str:00000000000007c7 .LASF44
     /tmp/ccWtz1qF.s:4692   .debug_str:00000000000005f5 .LASF45
     /tmp/ccWtz1qF.s:4686   .debug_str:00000000000005ce .LASF46
     /tmp/ccWtz1qF.s:4758   .debug_str:00000000000007ac .LASF47
     /tmp/ccWtz1qF.s:4604   .debug_str:0000000000000315 .LASF50
     /tmp/ccWtz1qF.s:4728   .debug_str:00000000000006df .LASF158
     /tmp/ccWtz1qF.s:4732   .debug_str:0000000000000702 .LASF51
     /tmp/ccWtz1qF.s:4554   .debug_str:0000000000000168 .LASF52
     /tmp/ccWtz1qF.s:4674   .debug_str:0000000000000569 .LASF53
     /tmp/ccWtz1qF.s:4598   .debug_str:00000000000002ca .LASF54
     /tmp/ccWtz1qF.s:4706   .debug_str:0000000000000636 .LASF55
     /tmp/ccWtz1qF.s:4810   .debug_str:00000000000009c1 .LASF56
     /tmp/ccWtz1qF.s:4836   .debug_str:0000000000000ad1 .LASF57
     /tmp/ccWtz1qF.s:4824   .debug_str:0000000000000a42 .LASF58
     /tmp/ccWtz1qF.s:4750   .debug_str:0000000000000772 .LASF59
     /tmp/ccWtz1qF.s:4656   .debug_str:00000000000004eb .LASF60
     /tmp/ccWtz1qF.s:4722   .debug_str:00000000000006c1 .LASF61
     /tmp/ccWtz1qF.s:4518   .debug_str:000000000000003e .LASF62
     /tmp/ccWtz1qF.s:4568   .debug_str:00000000000001de .LASF63
     /tmp/ccWtz1qF.s:4700   .debug_str:0000000000000617 .LASF64
     /tmp/ccWtz1qF.s:4514   .debug_str:0000000000000029 .LASF65
     /tmp/ccWtz1qF.s:4752   .debug_str:000000000000077d .LASF66
     /tmp/ccWtz1qF.s:4792   .debug_str:0000000000000948 .LASF67
     /tmp/ccWtz1qF.s:4770   .debug_str:00000000000007ec .LASF68
     /tmp/ccWtz1qF.s:4696   .debug_str:0000000000000607 .LASF69
     /tmp/ccWtz1qF.s:4788   .debug_str:000000000000091d .LASF70
     /tmp/ccWtz1qF.s:4654   .debug_str:00000000000004de .LASF71
     /tmp/ccWtz1qF.s:4666   .debug_str:0000000000000538 .LASF72
     /tmp/ccWtz1qF.s:4580   .debug_str:0000000000000256 .LASF73
     /tmp/ccWtz1qF.s:4520   .debug_str:0000000000000058 .LASF74
     /tmp/ccWtz1qF.s:4720   .debug_str:00000000000006ac .LASF119
     /tmp/ccWtz1qF.s:4622   .debug_str:00000000000003b1 .LASF75
     /tmp/ccWtz1qF.s:4610   .debug_str:0000000000000340 .LASF76
     /tmp/ccWtz1qF.s:4694   .debug_str:00000000000005fa .LASF77
     /tmp/ccWtz1qF.s:4738   .debug_str:0000000000000729 .LASF79
GAS LISTING /tmp/ccWtz1qF.s 			page 27


     /tmp/ccWtz1qF.s:4764   .debug_str:00000000000007cc .LASF80
     /tmp/ccWtz1qF.s:4790   .debug_str:0000000000000927 .LASF81
     /tmp/ccWtz1qF.s:4774   .debug_str:00000000000007fe .LASF82
     /tmp/ccWtz1qF.s:4690   .debug_str:00000000000005de .LASF83
     /tmp/ccWtz1qF.s:4540   .debug_str:000000000000010d .LASF84
     /tmp/ccWtz1qF.s:4794   .debug_str:0000000000000950 .LASF85
     /tmp/ccWtz1qF.s:4816   .debug_str:0000000000000a01 .LASF86
     /tmp/ccWtz1qF.s:4556   .debug_str:0000000000000185 .LASF87
     /tmp/ccWtz1qF.s:4778   .debug_str:000000000000081d .LASF88
     /tmp/ccWtz1qF.s:4572   .debug_str:00000000000001f9 .LASF89
     /tmp/ccWtz1qF.s:4668   .debug_str:000000000000053e .LASF90
     /tmp/ccWtz1qF.s:4784   .debug_str:00000000000008f4 .LASF91
     /tmp/ccWtz1qF.s:4748   .debug_str:0000000000000761 .LASF93
     /tmp/ccWtz1qF.s:4712   .debug_str:000000000000065a .LASF94
     /tmp/ccWtz1qF.s:4818   .debug_str:0000000000000a0b .LASF95
     /tmp/ccWtz1qF.s:4834   .debug_str:0000000000000ac1 .LASF96
     /tmp/ccWtz1qF.s:4830   .debug_str:0000000000000a98 .LASF97
     /tmp/ccWtz1qF.s:4594   .debug_str:00000000000002ab .LASF98
     /tmp/ccWtz1qF.s:4804   .debug_str:000000000000099b .LASF99
     /tmp/ccWtz1qF.s:4688   .debug_str:00000000000005d3 .LASF100
     /tmp/ccWtz1qF.s:4586   .debug_str:000000000000027d .LASF101
     /tmp/ccWtz1qF.s:4588   .debug_str:0000000000000294 .LASF103
     /tmp/ccWtz1qF.s:4570   .debug_str:00000000000001e6 .LASF105
     /tmp/ccWtz1qF.s:4544   .debug_str:0000000000000124 .LASF106
     /tmp/ccWtz1qF.s:4670   .debug_str:000000000000054b .LASF107
     /tmp/ccWtz1qF.s:4780   .debug_str:0000000000000828 .LASF108
     /tmp/ccWtz1qF.s:4548   .debug_str:0000000000000142 .LASF109
     /tmp/ccWtz1qF.s:4786   .debug_str:000000000000090d .LASF110
     /tmp/ccWtz1qF.s:4746   .debug_str:000000000000075c .LASF111
     /tmp/ccWtz1qF.s:4522   .debug_str:0000000000000080 .LASF112
     /tmp/ccWtz1qF.s:4726   .debug_str:00000000000006da .LASF113
     /tmp/ccWtz1qF.s:4806   .debug_str:00000000000009ae .LASF114
     /tmp/ccWtz1qF.s:4814   .debug_str:00000000000009f8 .LASF115
     /tmp/ccWtz1qF.s:4584   .debug_str:0000000000000278 .LASF116
     /tmp/ccWtz1qF.s:4710   .debug_str:0000000000000655 .LASF117
     /tmp/ccWtz1qF.s:4618   .debug_str:000000000000037f .LASF118
     /tmp/ccWtz1qF.s:4620   .debug_str:000000000000039a .LASF120
     /tmp/ccWtz1qF.s:4552   .debug_str:0000000000000161 .LASF121
     /tmp/ccWtz1qF.s:4600   .debug_str:00000000000002e6 .LASF159
     /tmp/ccWtz1qF.s:4672   .debug_str:0000000000000564 .LASF122
     /tmp/ccWtz1qF.s:4638   .debug_str:0000000000000455 .LASF123
     /tmp/ccWtz1qF.s:4542   .debug_str:0000000000000119 .LASF124
     /tmp/ccWtz1qF.s:4630   .debug_str:0000000000000403 .LASF125
     /tmp/ccWtz1qF.s:4796   .debug_str:0000000000000967 .LASF126
     /tmp/ccWtz1qF.s:4582   .debug_str:0000000000000264 .LASF127
     /tmp/ccWtz1qF.s:4574   .debug_str:000000000000020f .LASF128
     /tmp/ccWtz1qF.s:4510   .debug_str:0000000000000000 .LASF129
     /tmp/ccWtz1qF.s:4742   .debug_str:0000000000000740 .LASF130
     /tmp/ccWtz1qF.s:4512   .debug_str:0000000000000015 .LASF131
     /tmp/ccWtz1qF.s:4734   .debug_str:000000000000070b .LASF132
     /tmp/ccWtz1qF.s:4578   .debug_str:0000000000000233 .LASF133
     /tmp/ccWtz1qF.s:4560   .debug_str:00000000000001b1 .LASF134
     /tmp/ccWtz1qF.s:4626   .debug_str:00000000000003cb .LASF135
     /tmp/ccWtz1qF.s:4590   .debug_str:000000000000029d .LASF136
     /tmp/ccWtz1qF.s:4558   .debug_str:000000000000019a .LASF137
     /tmp/ccWtz1qF.s:4768   .debug_str:00000000000007e5 .LASF138
     /tmp/ccWtz1qF.s:4602   .debug_str:00000000000002fc .LASF139
GAS LISTING /tmp/ccWtz1qF.s 			page 28


     /tmp/ccWtz1qF.s:4530   .debug_str:00000000000000cc .LASF140
     /tmp/ccWtz1qF.s:4642   .debug_str:000000000000046e .LASF141
     /tmp/ccWtz1qF.s:4702   .debug_str:000000000000061c .LASF142
     /tmp/ccWtz1qF.s:4718   .debug_str:0000000000000690 .LASF143
     /tmp/ccWtz1qF.s:4698   .debug_str:000000000000060f .LASF144
     /tmp/ccWtz1qF.s:4650   .debug_str:00000000000004be .LASF145
     /tmp/ccWtz1qF.s:4592   .debug_str:00000000000002a2 .LASF146
     /tmp/ccWtz1qF.s:4628   .debug_str:00000000000003e7 .LASF147
     /tmp/ccWtz1qF.s:4608   .debug_str:000000000000033b .LASF148
     /tmp/ccWtz1qF.s:4714   .debug_str:000000000000066a .LASF160
     /tmp/ccWtz1qF.s:4640   .debug_str:0000000000000469 .LASF149
     /tmp/ccWtz1qF.s:703    .text:0000000000000308 .LFB67
     /tmp/ccWtz1qF.s:749    .text:0000000000000344 .LFE67
     /tmp/ccWtz1qF.s:3832   .debug_loc:0000000000000000 .LLST49
     /tmp/ccWtz1qF.s:485    .text:0000000000000208 .LFB66
     /tmp/ccWtz1qF.s:697    .text:0000000000000308 .LFE66
     /tmp/ccWtz1qF.s:3868   .debug_loc:000000000000008b .LLST28
     /tmp/ccWtz1qF.s:4822   .debug_str:0000000000000a3a .LASF161
     /tmp/ccWtz1qF.s:3901   .debug_loc:0000000000000113 .LLST29
     /tmp/ccWtz1qF.s:3931   .debug_loc:0000000000000198 .LLST30
     /tmp/ccWtz1qF.s:553    .text:0000000000000274 .LBB95
     /tmp/ccWtz1qF.s:4468   .debug_ranges:0000000000000000 .Ldebug_ranges0
     /tmp/ccWtz1qF.s:3953   .debug_loc:00000000000001f7 .LLST31
     /tmp/ccWtz1qF.s:3964   .debug_loc:000000000000022d .LLST32
     /tmp/ccWtz1qF.s:3979   .debug_loc:0000000000000267 .LLST33
     /tmp/ccWtz1qF.s:555    .text:0000000000000274 .LBB97
     /tmp/ccWtz1qF.s:562    .text:0000000000000280 .LBE97
     /tmp/ccWtz1qF.s:3990   .debug_loc:000000000000029d .LLST34
     /tmp/ccWtz1qF.s:560    .text:0000000000000280 .LVL52
     /tmp/ccWtz1qF.s:563    .text:0000000000000280 .LBB99
     /tmp/ccWtz1qF.s:570    .text:0000000000000288 .LBE99
     /tmp/ccWtz1qF.s:3998   .debug_loc:00000000000002c1 .LLST35
     /tmp/ccWtz1qF.s:4006   .debug_loc:00000000000002e5 .LLST36
     /tmp/ccWtz1qF.s:4013   .debug_loc:0000000000000308 .LLST37
     /tmp/ccWtz1qF.s:588    .text:00000000000002a4 .LBB102
     /tmp/ccWtz1qF.s:596    .text:00000000000002ac .LBE102
     /tmp/ccWtz1qF.s:4020   .debug_loc:000000000000032b .LLST38
     /tmp/ccWtz1qF.s:4028   .debug_loc:000000000000034f .LLST39
     /tmp/ccWtz1qF.s:598    .text:00000000000002ac .LBB104
     /tmp/ccWtz1qF.s:605    .text:00000000000002b0 .LBE104
     /tmp/ccWtz1qF.s:4035   .debug_loc:0000000000000372 .LLST40
     /tmp/ccWtz1qF.s:4042   .debug_loc:0000000000000395 .LLST41
     /tmp/ccWtz1qF.s:607    .text:00000000000002b0 .LBB106
     /tmp/ccWtz1qF.s:614    .text:00000000000002b4 .LBE106
     /tmp/ccWtz1qF.s:4049   .debug_loc:00000000000003b8 .LLST42
     /tmp/ccWtz1qF.s:4057   .debug_loc:00000000000003dc .LLST43
     /tmp/ccWtz1qF.s:627    .text:00000000000002c8 .LBB108
     /tmp/ccWtz1qF.s:634    .text:00000000000002cc .LBE108
     /tmp/ccWtz1qF.s:4064   .debug_loc:00000000000003ff .LLST44
     /tmp/ccWtz1qF.s:642    .text:00000000000002d4 .LBB110
     /tmp/ccWtz1qF.s:649    .text:00000000000002d8 .LBE110
     /tmp/ccWtz1qF.s:4071   .debug_loc:0000000000000422 .LLST45
     /tmp/ccWtz1qF.s:4079   .debug_loc:0000000000000446 .LLST46
     /tmp/ccWtz1qF.s:651    .text:00000000000002d8 .LBB112
     /tmp/ccWtz1qF.s:658    .text:00000000000002dc .LBE112
     /tmp/ccWtz1qF.s:4086   .debug_loc:0000000000000469 .LLST47
     /tmp/ccWtz1qF.s:4094   .debug_loc:000000000000048d .LLST48
GAS LISTING /tmp/ccWtz1qF.s 			page 29


     /tmp/ccWtz1qF.s:618    .text:00000000000002bc .LVL59
     /tmp/ccWtz1qF.s:622    .text:00000000000002c4 .LVL60
     /tmp/ccWtz1qF.s:468    .text:0000000000000208 .LFE65
     /tmp/ccWtz1qF.s:4101   .debug_loc:00000000000004b0 .LLST19
     /tmp/ccWtz1qF.s:4760   .debug_str:00000000000007bf .LASF150
     /tmp/ccWtz1qF.s:4123   .debug_loc:000000000000050f .LLST20
     /tmp/ccWtz1qF.s:375    .text:00000000000001a4 .LBB84
     /tmp/ccWtz1qF.s:4130   .debug_loc:0000000000000532 .LLST21
     /tmp/ccWtz1qF.s:4145   .debug_loc:000000000000056c .LLST22
     /tmp/ccWtz1qF.s:4156   .debug_loc:00000000000005a2 .LLST23
     /tmp/ccWtz1qF.s:383    .text:00000000000001ac .LBB86
     /tmp/ccWtz1qF.s:389    .text:00000000000001b4 .LBE86
     /tmp/ccWtz1qF.s:4163   .debug_loc:00000000000005c5 .LLST24
     /tmp/ccWtz1qF.s:387    .text:00000000000001b4 .LVL36
     /tmp/ccWtz1qF.s:393    .text:00000000000001b4 .LBB89
     /tmp/ccWtz1qF.s:400    .text:00000000000001b8 .LBE89
     /tmp/ccWtz1qF.s:4170   .debug_loc:00000000000005e8 .LLST25
     /tmp/ccWtz1qF.s:4178   .debug_loc:000000000000060c .LLST26
     /tmp/ccWtz1qF.s:406    .text:00000000000001c4 .LVL38
     /tmp/ccWtz1qF.s:412    .text:00000000000001c4 .LBB92
     /tmp/ccWtz1qF.s:422    .text:00000000000001d0 .LBE92
     /tmp/ccWtz1qF.s:4185   .debug_loc:000000000000062f .LLST27
     /tmp/ccWtz1qF.s:326    .text:0000000000000178 .LFE64
     /tmp/ccWtz1qF.s:4200   .debug_loc:0000000000000669 .LLST10
     /tmp/ccWtz1qF.s:4678   .debug_str:0000000000000583 .LASF151
     /tmp/ccWtz1qF.s:4248   .debug_loc:000000000000072d .LLST11
     /tmp/ccWtz1qF.s:214    .text:0000000000000108 .LBB68
     /tmp/ccWtz1qF.s:4259   .debug_loc:0000000000000763 .LLST12
     /tmp/ccWtz1qF.s:4289   .debug_loc:00000000000007ca .LLST13
     /tmp/ccWtz1qF.s:4300   .debug_loc:0000000000000800 .LLST14
     /tmp/ccWtz1qF.s:232    .text:0000000000000120 .LBB70
     /tmp/ccWtz1qF.s:239    .text:0000000000000128 .LBE70
     /tmp/ccWtz1qF.s:4307   .debug_loc:0000000000000823 .LLST15
     /tmp/ccWtz1qF.s:236    .text:0000000000000128 .LVL22
     /tmp/ccWtz1qF.s:243    .text:0000000000000128 .LBB73
     /tmp/ccWtz1qF.s:250    .text:000000000000012c .LBE73
     /tmp/ccWtz1qF.s:4314   .debug_loc:0000000000000846 .LLST16
     /tmp/ccWtz1qF.s:291    .text:0000000000000158 .LBB76
     /tmp/ccWtz1qF.s:298    .text:000000000000015c .LBE76
     /tmp/ccWtz1qF.s:4321   .debug_loc:0000000000000869 .LLST17
     /tmp/ccWtz1qF.s:4329   .debug_loc:000000000000088d .LLST18
     /tmp/ccWtz1qF.s:304    .text:0000000000000168 .LVL29
     /tmp/ccWtz1qF.s:10     .text:0000000000000000 .LFB63
     /tmp/ccWtz1qF.s:162    .text:00000000000000cc .LFE63
     /tmp/ccWtz1qF.s:4336   .debug_loc:00000000000008b0 .LLST0
     /tmp/ccWtz1qF.s:71     .text:0000000000000060 .LBB56
     /tmp/ccWtz1qF.s:4373   .debug_loc:000000000000094b .LLST1
     /tmp/ccWtz1qF.s:4384   .debug_loc:0000000000000981 .LLST2
     /tmp/ccWtz1qF.s:4399   .debug_loc:00000000000009bb .LLST3
     /tmp/ccWtz1qF.s:73     .text:0000000000000060 .LBB58
     /tmp/ccWtz1qF.s:81     .text:000000000000006c .LBE58
     /tmp/ccWtz1qF.s:4410   .debug_loc:00000000000009f1 .LLST4
     /tmp/ccWtz1qF.s:79     .text:000000000000006c .LVL5
     /tmp/ccWtz1qF.s:82     .text:000000000000006c .LBB60
     /tmp/ccWtz1qF.s:89     .text:0000000000000074 .LBE60
     /tmp/ccWtz1qF.s:4418   .debug_loc:0000000000000a15 .LLST5
     /tmp/ccWtz1qF.s:4426   .debug_loc:0000000000000a39 .LLST6
GAS LISTING /tmp/ccWtz1qF.s 			page 30


     /tmp/ccWtz1qF.s:4433   .debug_loc:0000000000000a5c .LLST7
     /tmp/ccWtz1qF.s:107    .text:0000000000000090 .LBB63
     /tmp/ccWtz1qF.s:116    .text:0000000000000098 .LBE63
     /tmp/ccWtz1qF.s:4440   .debug_loc:0000000000000a7f .LLST8
     /tmp/ccWtz1qF.s:4448   .debug_loc:0000000000000aa3 .LLST9
     /tmp/ccWtz1qF.s:120    .text:00000000000000a0 .LVL10
     /tmp/ccWtz1qF.s:4684   .debug_str:00000000000005b9 .LASF162
     /tmp/ccWtz1qF.s:4724   .debug_str:00000000000006ca .LASF163
     /tmp/ccWtz1qF.s:706    .text:0000000000000308 .LVL71
     /tmp/ccWtz1qF.s:725    .text:0000000000000328 .LVL72
     /tmp/ccWtz1qF.s:735    .text:0000000000000334 .LVL73
     /tmp/ccWtz1qF.s:740    .text:0000000000000338 .LVL74
     /tmp/ccWtz1qF.s:742    .text:000000000000033c .LVL75
     /tmp/ccWtz1qF.s:746    .text:0000000000000340 .LVL76
     /tmp/ccWtz1qF.s:488    .text:0000000000000208 .LVL45
     /tmp/ccWtz1qF.s:525    .text:000000000000024c .LVL47
     /tmp/ccWtz1qF.s:536    .text:0000000000000258 .LVL48
     /tmp/ccWtz1qF.s:545    .text:0000000000000268 .LVL50
     /tmp/ccWtz1qF.s:683    .text:0000000000000300 .LVL69
     /tmp/ccWtz1qF.s:693    .text:0000000000000304 .LVL70
     /tmp/ccWtz1qF.s:539    .text:000000000000025c .LVL49
     /tmp/ccWtz1qF.s:512    .text:0000000000000234 .LVL46
     /tmp/ccWtz1qF.s:640    .text:00000000000002d4 .LVL63
     /tmp/ccWtz1qF.s:666    .text:00000000000002e8 .LVL66
     /tmp/ccWtz1qF.s:668    .text:00000000000002ec .LVL67
     /tmp/ccWtz1qF.s:552    .text:0000000000000274 .LVL51
     /tmp/ccWtz1qF.s:580    .text:0000000000000298 .LVL54
     /tmp/ccWtz1qF.s:676    .text:00000000000002f8 .LVL68
     /tmp/ccWtz1qF.s:568    .text:0000000000000288 .LVL53
     /tmp/ccWtz1qF.s:587    .text:00000000000002a4 .LVL55
     /tmp/ccWtz1qF.s:594    .text:00000000000002ac .LVL56
     /tmp/ccWtz1qF.s:603    .text:00000000000002b0 .LVL57
     /tmp/ccWtz1qF.s:612    .text:00000000000002b4 .LVL58
     /tmp/ccWtz1qF.s:626    .text:00000000000002c8 .LVL61
     /tmp/ccWtz1qF.s:632    .text:00000000000002cc .LVL62
     /tmp/ccWtz1qF.s:647    .text:00000000000002d8 .LVL64
     /tmp/ccWtz1qF.s:656    .text:00000000000002dc .LVL65
     /tmp/ccWtz1qF.s:349    .text:0000000000000178 .LVL32
     /tmp/ccWtz1qF.s:370    .text:00000000000001a0 .LVL33
     /tmp/ccWtz1qF.s:455    .text:00000000000001f4 .LVL43
     /tmp/ccWtz1qF.s:461    .text:0000000000000200 .LVL44
     /tmp/ccWtz1qF.s:372    .text:00000000000001a4 .LVL34
     /tmp/ccWtz1qF.s:427    .text:00000000000001d4 .LVL40
     /tmp/ccWtz1qF.s:437    .text:00000000000001e4 .LVL41
     /tmp/ccWtz1qF.s:382    .text:00000000000001ac .LVL35
     /tmp/ccWtz1qF.s:398    .text:00000000000001b8 .LVL37
     /tmp/ccWtz1qF.s:420    .text:00000000000001d0 .LVL39
     /tmp/ccWtz1qF.s:444    .text:00000000000001e8 .LVL42
     /tmp/ccWtz1qF.s:173    .text:00000000000000cc .LVL15
     /tmp/ccWtz1qF.s:194    .text:00000000000000f0 .LVL16
     /tmp/ccWtz1qF.s:197    .text:00000000000000f4 .LVL17
     /tmp/ccWtz1qF.s:218    .text:000000000000010c .LVL19
     /tmp/ccWtz1qF.s:271    .text:0000000000000148 .LVL25
     /tmp/ccWtz1qF.s:286    .text:0000000000000158 .LVL27
     /tmp/ccWtz1qF.s:313    .text:0000000000000170 .LVL30
     /tmp/ccWtz1qF.s:323    .text:0000000000000174 .LVL31
     /tmp/ccWtz1qF.s:267    .text:0000000000000140 .LVL24
GAS LISTING /tmp/ccWtz1qF.s 			page 31


     /tmp/ccWtz1qF.s:213    .text:0000000000000108 .LVL18
     /tmp/ccWtz1qF.s:221    .text:0000000000000110 .LVL20
     /tmp/ccWtz1qF.s:281    .text:0000000000000150 .LVL26
     /tmp/ccWtz1qF.s:231    .text:0000000000000120 .LVL21
     /tmp/ccWtz1qF.s:248    .text:000000000000012c .LVL23
     /tmp/ccWtz1qF.s:296    .text:000000000000015c .LVL28
     /tmp/ccWtz1qF.s:14     .text:0000000000000000 .LVL0
     /tmp/ccWtz1qF.s:46     .text:000000000000003c .LVL1
     /tmp/ccWtz1qF.s:57     .text:0000000000000048 .LVL2
     /tmp/ccWtz1qF.s:63     .text:0000000000000054 .LVL3
     /tmp/ccWtz1qF.s:137    .text:00000000000000bc .LVL12
     /tmp/ccWtz1qF.s:148    .text:00000000000000c0 .LVL13
     /tmp/ccWtz1qF.s:151    .text:00000000000000c4 .LVL14
     /tmp/ccWtz1qF.s:70     .text:0000000000000060 .LVL4
     /tmp/ccWtz1qF.s:99     .text:0000000000000084 .LVL7
     /tmp/ccWtz1qF.s:129    .text:00000000000000b0 .LVL11
     /tmp/ccWtz1qF.s:87     .text:0000000000000074 .LVL6
     /tmp/ccWtz1qF.s:106    .text:0000000000000090 .LVL8
     /tmp/ccWtz1qF.s:114    .text:0000000000000098 .LVL9
     /tmp/ccWtz1qF.s:759    .debug_info:0000000000000000 .Ldebug_info0
     /tmp/ccWtz1qF.s:101    .text:0000000000000084 .LBE56
     /tmp/ccWtz1qF.s:131    .text:00000000000000b0 .LBB65
     /tmp/ccWtz1qF.s:145    .text:00000000000000bc .LBE65
     /tmp/ccWtz1qF.s:211    .text:0000000000000108 .LBB67
     /tmp/ccWtz1qF.s:253    .text:0000000000000130 .LBE67
     /tmp/ccWtz1qF.s:275    .text:0000000000000148 .LBB78
     /tmp/ccWtz1qF.s:306    .text:0000000000000168 .LBE78
     /tmp/ccWtz1qF.s:311    .text:000000000000016c .LBB79
     /tmp/ccWtz1qF.s:319    .text:0000000000000170 .LBE79
     /tmp/ccWtz1qF.s:241    .text:0000000000000128 .LBE68
     /tmp/ccWtz1qF.s:276    .text:0000000000000148 .LBB75
     /tmp/ccWtz1qF.s:289    .text:0000000000000158 .LBE75
     /tmp/ccWtz1qF.s:374    .text:00000000000001a4 .LBB83
     /tmp/ccWtz1qF.s:409    .text:00000000000001c4 .LBE83
     /tmp/ccWtz1qF.s:425    .text:00000000000001d4 .LBB94
     /tmp/ccWtz1qF.s:441    .text:00000000000001e4 .LBE94
     /tmp/ccWtz1qF.s:391    .text:00000000000001b4 .LBE84
     /tmp/ccWtz1qF.s:428    .text:00000000000001d4 .LBB91
     /tmp/ccWtz1qF.s:440    .text:00000000000001e4 .LBE91
     /tmp/ccWtz1qF.s:582    .text:0000000000000298 .LBE95
     /tmp/ccWtz1qF.s:670    .text:00000000000002ec .LBB114
     /tmp/ccWtz1qF.s:679    .text:00000000000002f8 .LBE114
     /tmp/ccWtz1qF.s:329    .gcc_except_table:0000000000000000 .LLSDA64
     /tmp/ccWtz1qF.s:470    .gcc_except_table:0000000000000011 .LLSDA65

UNDEFINED SYMBOLS
_ZN3TCB7runningE
_ZN15MemoryAllocator9mem_allocEm
_Z15thread_dispatchv
_ZN15MemoryAllocator8mem_freeEPv
_ZN9Scheduler3putEP3TCB
__gxx_personality_v0
_ZN8WaitList3addEP3TCB
