GAS LISTING /tmp/ccu0P8eT.s 			page 1


   1              		.file	"syscall_c.cpp"
   2              		.option pic
   3              		.option norelax
   4              		.text
   5              	.Ltext0:
   6              		.align	2
   7              		.globl	_Z7syscallmz
   9              	_Z7syscallmz:
  10              	.LFB63:
  11              		.file 1 "src/syscall_c.cpp"
   1:src/syscall_c.cpp **** #include "../h/syscall_c.hpp"
   2:src/syscall_c.cpp **** 
   3:src/syscall_c.cpp **** void syscall(uint64 syscall_id, ...) {
  12              		.loc 1 3 38
  13              		.cfi_startproc
  14              	.LVL0:
  15 0000 130101FB 		addi	sp,sp,-80
  16              		.cfi_def_cfa_offset 80
  17 0004 23348100 		sd	s0,8(sp)
  18              		.cfi_offset 8, -72
  19 0008 13040101 		addi	s0,sp,16
  20              		.cfi_def_cfa 8, 64
  21 000c 2334B400 		sd	a1,8(s0)
  22 0010 2338C400 		sd	a2,16(s0)
  23 0014 233CD400 		sd	a3,24(s0)
  24 0018 2330E402 		sd	a4,32(s0)
  25 001c 2334F402 		sd	a5,40(s0)
  26 0020 23380403 		sd	a6,48(s0)
  27 0024 233C1403 		sd	a7,56(s0)
   4:src/syscall_c.cpp ****     __asm__ volatile ("ecall");
  28              		.loc 1 4 5
  29              		.loc 1 4 31 is_stmt 0
  30              	#APP
  31              	# 4 "src/syscall_c.cpp" 1
   5              	}
  32              		ecall
  33              	# 0 "" 2
  34              		.loc 1 5 1
  35              	#NO_APP
  36 002c 03348100 		ld	s0,8(sp)
  37              		.cfi_restore 8
  38              		.cfi_def_cfa 2, 80
  39 0030 13010105 		addi	sp,sp,80
  40              		.cfi_def_cfa_offset 0
  41 0034 67800000 		jr	ra
  42              		.cfi_endproc
  43              	.LFE63:
  45              		.align	2
  46              		.globl	_Z9mem_allocm
  48              	_Z9mem_allocm:
  49              	.LFB64:
   6:src/syscall_c.cpp **** 
   7:src/syscall_c.cpp **** void* mem_alloc(size_t bytes) {
  50              		.loc 1 7 31 is_stmt 1
  51              		.cfi_startproc
  52              	.LVL1:
  53 0038 130101FF 		addi	sp,sp,-16
GAS LISTING /tmp/ccu0P8eT.s 			page 2


  54              		.cfi_def_cfa_offset 16
  55 003c 23341100 		sd	ra,8(sp)
  56 0040 23308100 		sd	s0,0(sp)
  57              		.cfi_offset 1, -8
  58              		.cfi_offset 8, -16
  59 0044 13040101 		addi	s0,sp,16
  60              		.cfi_def_cfa 8, 0
  61 0048 93050500 		mv	a1,a0
   8:src/syscall_c.cpp ****     syscall(SYSCALLS::MEM_ALLOC, bytes);
  62              		.loc 1 8 5
  63              		.loc 1 8 12 is_stmt 0
  64 004c 13051000 		li	a0,1
  65              	.LVL2:
  66 0050 97000000 		call	_Z7syscallmz
  66      E7800000 
  67              	.LVL3:
   9:src/syscall_c.cpp **** 
  10:src/syscall_c.cpp ****     // Load the return value
  11:src/syscall_c.cpp ****     void* ret;
  68              		.loc 1 11 5 is_stmt 1
  12:src/syscall_c.cpp ****     __asm__ volatile ("mv %[rt], a0" : [rt] "=r" (ret));
  69              		.loc 1 12 5
  70              		.loc 1 12 56 is_stmt 0
  71              	#APP
  72              	# 12 "src/syscall_c.cpp" 1
  13              	    return ret;
  73              		mv a0, a0
  74              	# 0 "" 2
  75              	.LVL4:
  76              		.loc 1 13 5 is_stmt 1
  14:src/syscall_c.cpp **** }
  77              		.loc 1 14 1 is_stmt 0
  78              	#NO_APP
  79 005c 83308100 		ld	ra,8(sp)
  80              		.cfi_restore 1
  81 0060 03340100 		ld	s0,0(sp)
  82              		.cfi_restore 8
  83              		.cfi_def_cfa 2, 16
  84 0064 13010101 		addi	sp,sp,16
  85              		.cfi_def_cfa_offset 0
  86 0068 67800000 		jr	ra
  87              		.cfi_endproc
  88              	.LFE64:
  90              		.align	2
  91              		.globl	_Z8mem_freePv
  93              	_Z8mem_freePv:
  94              	.LFB65:
  15:src/syscall_c.cpp **** 
  16:src/syscall_c.cpp **** int mem_free(void* ptr) {
  95              		.loc 1 16 25 is_stmt 1
  96              		.cfi_startproc
  97              	.LVL5:
  98 006c 130101FF 		addi	sp,sp,-16
  99              		.cfi_def_cfa_offset 16
 100 0070 23341100 		sd	ra,8(sp)
 101 0074 23308100 		sd	s0,0(sp)
 102              		.cfi_offset 1, -8
GAS LISTING /tmp/ccu0P8eT.s 			page 3


 103              		.cfi_offset 8, -16
 104 0078 13040101 		addi	s0,sp,16
 105              		.cfi_def_cfa 8, 0
 106 007c 93050500 		mv	a1,a0
  17:src/syscall_c.cpp ****     // Load system call id and parameter to the register
  18:src/syscall_c.cpp ****     syscall(SYSCALLS::MEM_FREE, ptr);
 107              		.loc 1 18 5
 108              		.loc 1 18 12 is_stmt 0
 109 0080 13052000 		li	a0,2
 110              	.LVL6:
 111 0084 97000000 		call	_Z7syscallmz
 111      E7800000 
 112              	.LVL7:
  19:src/syscall_c.cpp **** 
  20:src/syscall_c.cpp ****     // Load the return value
  21:src/syscall_c.cpp ****     uint64 ret;
 113              		.loc 1 21 5 is_stmt 1
  22:src/syscall_c.cpp ****     __asm__ volatile ("mv %[rt], a0" : [rt] "=r" (ret));
 114              		.loc 1 22 5
 115              		.loc 1 22 56 is_stmt 0
 116              	#APP
 117              	# 22 "src/syscall_c.cpp" 1
  23              	    return (int)ret;
 118              		mv a0, a0
 119              	# 0 "" 2
 120              	.LVL8:
 121              		.loc 1 23 5 is_stmt 1
  24:src/syscall_c.cpp **** }
 122              		.loc 1 24 1 is_stmt 0
 123              	#NO_APP
 124 0090 1B050500 		sext.w	a0,a0
 125              	.LVL9:
 126 0094 83308100 		ld	ra,8(sp)
 127              		.cfi_restore 1
 128 0098 03340100 		ld	s0,0(sp)
 129              		.cfi_restore 8
 130              		.cfi_def_cfa 2, 16
 131 009c 13010101 		addi	sp,sp,16
 132              		.cfi_def_cfa_offset 0
 133 00a0 67800000 		jr	ra
 134              		.cfi_endproc
 135              	.LFE65:
 137              		.align	2
 138              		.globl	_Z13thread_createPP3TCBPFvPvES2_
 140              	_Z13thread_createPP3TCBPFvPvES2_:
 141              	.LFB66:
  25:src/syscall_c.cpp **** 
  26:src/syscall_c.cpp **** int thread_create(thread_t* handle, void (*start_routine)(void*), void* arg) {
 142              		.loc 1 26 78 is_stmt 1
 143              		.cfi_startproc
 144              	.LVL10:
 145 00a4 130101FF 		addi	sp,sp,-16
 146              		.cfi_def_cfa_offset 16
 147 00a8 23341100 		sd	ra,8(sp)
 148 00ac 23308100 		sd	s0,0(sp)
 149              		.cfi_offset 1, -8
 150              		.cfi_offset 8, -16
GAS LISTING /tmp/ccu0P8eT.s 			page 4


 151 00b0 13040101 		addi	s0,sp,16
 152              		.cfi_def_cfa 8, 0
 153 00b4 93060600 		mv	a3,a2
  27:src/syscall_c.cpp ****     syscall(SYSCALLS::THREAD_CREATE, handle, start_routine, arg);
 154              		.loc 1 27 5
 155              		.loc 1 27 12 is_stmt 0
 156 00b8 13860500 		mv	a2,a1
 157              	.LVL11:
 158 00bc 93050500 		mv	a1,a0
 159              	.LVL12:
 160 00c0 13051001 		li	a0,17
 161              	.LVL13:
 162 00c4 97000000 		call	_Z7syscallmz
 162      E7800000 
 163              	.LVL14:
  28:src/syscall_c.cpp **** 
  29:src/syscall_c.cpp ****     uint64 ret;
 164              		.loc 1 29 5 is_stmt 1
  30:src/syscall_c.cpp ****     __asm__ volatile ("mv %[rt], a0" : [rt] "=r" (ret));
 165              		.loc 1 30 5
 166              		.loc 1 30 56 is_stmt 0
 167              	#APP
 168              	# 30 "src/syscall_c.cpp" 1
  31              	    return (int)ret;
 169              		mv a0, a0
 170              	# 0 "" 2
 171              	.LVL15:
 172              		.loc 1 31 5 is_stmt 1
  32:src/syscall_c.cpp **** }
 173              		.loc 1 32 1 is_stmt 0
 174              	#NO_APP
 175 00d0 1B050500 		sext.w	a0,a0
 176              	.LVL16:
 177 00d4 83308100 		ld	ra,8(sp)
 178              		.cfi_restore 1
 179 00d8 03340100 		ld	s0,0(sp)
 180              		.cfi_restore 8
 181              		.cfi_def_cfa 2, 16
 182 00dc 13010101 		addi	sp,sp,16
 183              		.cfi_def_cfa_offset 0
 184 00e0 67800000 		jr	ra
 185              		.cfi_endproc
 186              	.LFE66:
 188              		.align	2
 189              		.globl	_Z11thread_exitv
 191              	_Z11thread_exitv:
 192              	.LFB67:
  33:src/syscall_c.cpp **** 
  34:src/syscall_c.cpp **** int thread_exit() {
 193              		.loc 1 34 19 is_stmt 1
 194              		.cfi_startproc
 195 00e4 130101FF 		addi	sp,sp,-16
 196              		.cfi_def_cfa_offset 16
 197 00e8 23341100 		sd	ra,8(sp)
 198 00ec 23308100 		sd	s0,0(sp)
 199              		.cfi_offset 1, -8
 200              		.cfi_offset 8, -16
GAS LISTING /tmp/ccu0P8eT.s 			page 5


 201 00f0 13040101 		addi	s0,sp,16
 202              		.cfi_def_cfa 8, 0
  35:src/syscall_c.cpp ****     syscall(SYSCALLS::THREAD_EXIT);
 203              		.loc 1 35 5
 204              		.loc 1 35 12 is_stmt 0
 205 00f4 13052001 		li	a0,18
 206 00f8 97000000 		call	_Z7syscallmz
 206      E7800000 
 207              	.LVL17:
  36:src/syscall_c.cpp **** 
  37:src/syscall_c.cpp ****     uint64 ret;
 208              		.loc 1 37 5 is_stmt 1
  38:src/syscall_c.cpp ****     __asm__ volatile ("mv %[rt], a0" : [rt] "=r" (ret));
 209              		.loc 1 38 5
 210              		.loc 1 38 56 is_stmt 0
 211              	#APP
 212              	# 38 "src/syscall_c.cpp" 1
  39              	    return (int)ret;
 213              		mv a0, a0
 214              	# 0 "" 2
 215              	.LVL18:
 216              		.loc 1 39 5 is_stmt 1
  40:src/syscall_c.cpp **** }
 217              		.loc 1 40 1 is_stmt 0
 218              	#NO_APP
 219 0104 1B050500 		sext.w	a0,a0
 220              	.LVL19:
 221 0108 83308100 		ld	ra,8(sp)
 222              		.cfi_restore 1
 223 010c 03340100 		ld	s0,0(sp)
 224              		.cfi_restore 8
 225              		.cfi_def_cfa 2, 16
 226 0110 13010101 		addi	sp,sp,16
 227              		.cfi_def_cfa_offset 0
 228 0114 67800000 		jr	ra
 229              		.cfi_endproc
 230              	.LFE67:
 232              		.align	2
 233              		.globl	_Z15thread_dispatchv
 235              	_Z15thread_dispatchv:
 236              	.LFB68:
  41:src/syscall_c.cpp **** 
  42:src/syscall_c.cpp **** void thread_dispatch() {
 237              		.loc 1 42 24 is_stmt 1
 238              		.cfi_startproc
 239 0118 130101FF 		addi	sp,sp,-16
 240              		.cfi_def_cfa_offset 16
 241 011c 23341100 		sd	ra,8(sp)
 242 0120 23308100 		sd	s0,0(sp)
 243              		.cfi_offset 1, -8
 244              		.cfi_offset 8, -16
 245 0124 13040101 		addi	s0,sp,16
 246              		.cfi_def_cfa 8, 0
  43:src/syscall_c.cpp ****     syscall(SYSCALLS::THREAD_DISPATCH);
 247              		.loc 1 43 5
 248              		.loc 1 43 12 is_stmt 0
 249 0128 13053001 		li	a0,19
GAS LISTING /tmp/ccu0P8eT.s 			page 6


 250 012c 97000000 		call	_Z7syscallmz
 250      E7800000 
 251              	.LVL20:
  44:src/syscall_c.cpp **** }
 252              		.loc 1 44 1
 253 0134 83308100 		ld	ra,8(sp)
 254              		.cfi_restore 1
 255 0138 03340100 		ld	s0,0(sp)
 256              		.cfi_restore 8
 257              		.cfi_def_cfa 2, 16
 258 013c 13010101 		addi	sp,sp,16
 259              		.cfi_def_cfa_offset 0
 260 0140 67800000 		jr	ra
 261              		.cfi_endproc
 262              	.LFE68:
 264              		.align	2
 265              		.globl	_Z10time_sleepm
 267              	_Z10time_sleepm:
 268              	.LFB69:
  45:src/syscall_c.cpp **** 
  46:src/syscall_c.cpp **** int time_sleep(time_t time) {
 269              		.loc 1 46 29 is_stmt 1
 270              		.cfi_startproc
 271              	.LVL21:
 272 0144 130101FF 		addi	sp,sp,-16
 273              		.cfi_def_cfa_offset 16
 274 0148 23341100 		sd	ra,8(sp)
 275 014c 23308100 		sd	s0,0(sp)
 276              		.cfi_offset 1, -8
 277              		.cfi_offset 8, -16
 278 0150 13040101 		addi	s0,sp,16
 279              		.cfi_def_cfa 8, 0
 280 0154 93050500 		mv	a1,a0
  47:src/syscall_c.cpp ****     syscall(SYSCALLS::TIME_SLEEP, time);
 281              		.loc 1 47 5
 282              		.loc 1 47 12 is_stmt 0
 283 0158 13051003 		li	a0,49
 284              	.LVL22:
 285 015c 97000000 		call	_Z7syscallmz
 285      E7800000 
 286              	.LVL23:
  48:src/syscall_c.cpp **** 
  49:src/syscall_c.cpp ****     uint64 ret;
 287              		.loc 1 49 5 is_stmt 1
  50:src/syscall_c.cpp ****     __asm__ volatile ("mv %[rt], a0" : [rt] "=r" (ret));
 288              		.loc 1 50 5
 289              		.loc 1 50 56 is_stmt 0
 290              	#APP
 291              	# 50 "src/syscall_c.cpp" 1
  51              	    return (int)ret;
 292              		mv a0, a0
 293              	# 0 "" 2
 294              	.LVL24:
 295              		.loc 1 51 5 is_stmt 1
  52:src/syscall_c.cpp **** }
 296              		.loc 1 52 1 is_stmt 0
 297              	#NO_APP
GAS LISTING /tmp/ccu0P8eT.s 			page 7


 298 0168 1B050500 		sext.w	a0,a0
 299              	.LVL25:
 300 016c 83308100 		ld	ra,8(sp)
 301              		.cfi_restore 1
 302 0170 03340100 		ld	s0,0(sp)
 303              		.cfi_restore 8
 304              		.cfi_def_cfa 2, 16
 305 0174 13010101 		addi	sp,sp,16
 306              		.cfi_def_cfa_offset 0
 307 0178 67800000 		jr	ra
 308              		.cfi_endproc
 309              	.LFE69:
 311              		.align	2
 312              		.globl	_Z8sem_openPP10_Semaphorej
 314              	_Z8sem_openPP10_Semaphorej:
 315              	.LFB70:
  53:src/syscall_c.cpp **** 
  54:src/syscall_c.cpp **** int sem_open(sem_t* handle, unsigned init) {
 316              		.loc 1 54 44 is_stmt 1
 317              		.cfi_startproc
 318              	.LVL26:
 319 017c 130101FF 		addi	sp,sp,-16
 320              		.cfi_def_cfa_offset 16
 321 0180 23341100 		sd	ra,8(sp)
 322 0184 23308100 		sd	s0,0(sp)
 323              		.cfi_offset 1, -8
 324              		.cfi_offset 8, -16
 325 0188 13040101 		addi	s0,sp,16
 326              		.cfi_def_cfa 8, 0
 327 018c 13860500 		mv	a2,a1
  55:src/syscall_c.cpp ****     syscall(SYSCALLS::SEM_OPEN, handle, init);
 328              		.loc 1 55 5
 329              		.loc 1 55 12 is_stmt 0
 330 0190 93050500 		mv	a1,a0
 331              	.LVL27:
 332 0194 13051002 		li	a0,33
 333              	.LVL28:
 334 0198 97000000 		call	_Z7syscallmz
 334      E7800000 
 335              	.LVL29:
  56:src/syscall_c.cpp **** 
  57:src/syscall_c.cpp ****     uint64 ret;
 336              		.loc 1 57 5 is_stmt 1
  58:src/syscall_c.cpp ****     __asm__ volatile ("mv %[rt], a0" : [rt] "=r" (ret));
 337              		.loc 1 58 5
 338              		.loc 1 58 56 is_stmt 0
 339              	#APP
 340              	# 58 "src/syscall_c.cpp" 1
  59              	    return (int)ret;
 341              		mv a0, a0
 342              	# 0 "" 2
 343              	.LVL30:
 344              		.loc 1 59 5 is_stmt 1
  60:src/syscall_c.cpp **** }
 345              		.loc 1 60 1 is_stmt 0
 346              	#NO_APP
 347 01a4 1B050500 		sext.w	a0,a0
GAS LISTING /tmp/ccu0P8eT.s 			page 8


 348              	.LVL31:
 349 01a8 83308100 		ld	ra,8(sp)
 350              		.cfi_restore 1
 351 01ac 03340100 		ld	s0,0(sp)
 352              		.cfi_restore 8
 353              		.cfi_def_cfa 2, 16
 354 01b0 13010101 		addi	sp,sp,16
 355              		.cfi_def_cfa_offset 0
 356 01b4 67800000 		jr	ra
 357              		.cfi_endproc
 358              	.LFE70:
 360              		.align	2
 361              		.globl	_Z9sem_closeP10_Semaphore
 363              	_Z9sem_closeP10_Semaphore:
 364              	.LFB71:
  61:src/syscall_c.cpp **** 
  62:src/syscall_c.cpp **** int sem_close(sem_t handle) {
 365              		.loc 1 62 29 is_stmt 1
 366              		.cfi_startproc
 367              	.LVL32:
 368 01b8 130101FF 		addi	sp,sp,-16
 369              		.cfi_def_cfa_offset 16
 370 01bc 23341100 		sd	ra,8(sp)
 371 01c0 23308100 		sd	s0,0(sp)
 372              		.cfi_offset 1, -8
 373              		.cfi_offset 8, -16
 374 01c4 13040101 		addi	s0,sp,16
 375              		.cfi_def_cfa 8, 0
 376 01c8 93050500 		mv	a1,a0
  63:src/syscall_c.cpp ****     syscall(SYSCALLS::SEM_CLOSE, handle);
 377              		.loc 1 63 5
 378              		.loc 1 63 12 is_stmt 0
 379 01cc 13052002 		li	a0,34
 380              	.LVL33:
 381 01d0 97000000 		call	_Z7syscallmz
 381      E7800000 
 382              	.LVL34:
  64:src/syscall_c.cpp **** 
  65:src/syscall_c.cpp ****     uint64 ret;
 383              		.loc 1 65 5 is_stmt 1
  66:src/syscall_c.cpp ****     __asm__ volatile ("mv %[rt], a0" : [rt] "=r" (ret));
 384              		.loc 1 66 5
 385              		.loc 1 66 56 is_stmt 0
 386              	#APP
 387              	# 66 "src/syscall_c.cpp" 1
  67              	    return (int)ret;
 388              		mv a0, a0
 389              	# 0 "" 2
 390              	.LVL35:
 391              		.loc 1 67 5 is_stmt 1
  68:src/syscall_c.cpp **** }
 392              		.loc 1 68 1 is_stmt 0
 393              	#NO_APP
 394 01dc 1B050500 		sext.w	a0,a0
 395              	.LVL36:
 396 01e0 83308100 		ld	ra,8(sp)
 397              		.cfi_restore 1
GAS LISTING /tmp/ccu0P8eT.s 			page 9


 398 01e4 03340100 		ld	s0,0(sp)
 399              		.cfi_restore 8
 400              		.cfi_def_cfa 2, 16
 401 01e8 13010101 		addi	sp,sp,16
 402              		.cfi_def_cfa_offset 0
 403 01ec 67800000 		jr	ra
 404              		.cfi_endproc
 405              	.LFE71:
 407              		.align	2
 408              		.globl	_Z8sem_waitP10_Semaphore
 410              	_Z8sem_waitP10_Semaphore:
 411              	.LFB72:
  69:src/syscall_c.cpp **** 
  70:src/syscall_c.cpp **** int sem_wait(sem_t handle) {
 412              		.loc 1 70 28 is_stmt 1
 413              		.cfi_startproc
 414              	.LVL37:
 415 01f0 130101FF 		addi	sp,sp,-16
 416              		.cfi_def_cfa_offset 16
 417 01f4 23341100 		sd	ra,8(sp)
 418 01f8 23308100 		sd	s0,0(sp)
 419              		.cfi_offset 1, -8
 420              		.cfi_offset 8, -16
 421 01fc 13040101 		addi	s0,sp,16
 422              		.cfi_def_cfa 8, 0
 423 0200 93050500 		mv	a1,a0
  71:src/syscall_c.cpp ****     syscall(SYSCALLS::SEM_WAIT, handle);
 424              		.loc 1 71 5
 425              		.loc 1 71 12 is_stmt 0
 426 0204 13053002 		li	a0,35
 427              	.LVL38:
 428 0208 97000000 		call	_Z7syscallmz
 428      E7800000 
 429              	.LVL39:
  72:src/syscall_c.cpp **** 
  73:src/syscall_c.cpp ****     uint64 ret;
 430              		.loc 1 73 5 is_stmt 1
  74:src/syscall_c.cpp ****     __asm__ volatile ("mv %[rt], a0" : [rt] "=r" (ret));
 431              		.loc 1 74 5
 432              		.loc 1 74 56 is_stmt 0
 433              	#APP
 434              	# 74 "src/syscall_c.cpp" 1
  75              	    return (int)ret;
 435              		mv a0, a0
 436              	# 0 "" 2
 437              	.LVL40:
 438              		.loc 1 75 5 is_stmt 1
  76:src/syscall_c.cpp **** }
 439              		.loc 1 76 1 is_stmt 0
 440              	#NO_APP
 441 0214 1B050500 		sext.w	a0,a0
 442              	.LVL41:
 443 0218 83308100 		ld	ra,8(sp)
 444              		.cfi_restore 1
 445 021c 03340100 		ld	s0,0(sp)
 446              		.cfi_restore 8
 447              		.cfi_def_cfa 2, 16
GAS LISTING /tmp/ccu0P8eT.s 			page 10


 448 0220 13010101 		addi	sp,sp,16
 449              		.cfi_def_cfa_offset 0
 450 0224 67800000 		jr	ra
 451              		.cfi_endproc
 452              	.LFE72:
 454              		.align	2
 455              		.globl	_Z10sem_signalP10_Semaphore
 457              	_Z10sem_signalP10_Semaphore:
 458              	.LFB73:
  77:src/syscall_c.cpp **** 
  78:src/syscall_c.cpp **** int sem_signal(sem_t handle) {
 459              		.loc 1 78 30 is_stmt 1
 460              		.cfi_startproc
 461              	.LVL42:
 462 0228 130101FF 		addi	sp,sp,-16
 463              		.cfi_def_cfa_offset 16
 464 022c 23341100 		sd	ra,8(sp)
 465 0230 23308100 		sd	s0,0(sp)
 466              		.cfi_offset 1, -8
 467              		.cfi_offset 8, -16
 468 0234 13040101 		addi	s0,sp,16
 469              		.cfi_def_cfa 8, 0
 470 0238 93050500 		mv	a1,a0
  79:src/syscall_c.cpp ****     syscall(SYSCALLS::SEM_SIGNAL, handle);
 471              		.loc 1 79 5
 472              		.loc 1 79 12 is_stmt 0
 473 023c 13054002 		li	a0,36
 474              	.LVL43:
 475 0240 97000000 		call	_Z7syscallmz
 475      E7800000 
 476              	.LVL44:
  80:src/syscall_c.cpp **** 
  81:src/syscall_c.cpp ****     uint64 ret;
 477              		.loc 1 81 5 is_stmt 1
  82:src/syscall_c.cpp ****     __asm__ volatile ("mv %[rt], a0" : [rt] "=r" (ret));
 478              		.loc 1 82 5
 479              		.loc 1 82 56 is_stmt 0
 480              	#APP
 481              	# 82 "src/syscall_c.cpp" 1
  83              	    return (int)ret;
 482              		mv a0, a0
 483              	# 0 "" 2
 484              	.LVL45:
 485              		.loc 1 83 5 is_stmt 1
  84:src/syscall_c.cpp **** }
 486              		.loc 1 84 1 is_stmt 0
 487              	#NO_APP
 488 024c 1B050500 		sext.w	a0,a0
 489              	.LVL46:
 490 0250 83308100 		ld	ra,8(sp)
 491              		.cfi_restore 1
 492 0254 03340100 		ld	s0,0(sp)
 493              		.cfi_restore 8
 494              		.cfi_def_cfa 2, 16
 495 0258 13010101 		addi	sp,sp,16
 496              		.cfi_def_cfa_offset 0
 497 025c 67800000 		jr	ra
GAS LISTING /tmp/ccu0P8eT.s 			page 11


 498              		.cfi_endproc
 499              	.LFE73:
 501              		.align	2
 502              		.globl	_Z11sem_trywaitP10_Semaphore
 504              	_Z11sem_trywaitP10_Semaphore:
 505              	.LFB74:
  85:src/syscall_c.cpp **** 
  86:src/syscall_c.cpp **** int sem_trywait(sem_t handle) {
 506              		.loc 1 86 31 is_stmt 1
 507              		.cfi_startproc
 508              	.LVL47:
 509 0260 130101FF 		addi	sp,sp,-16
 510              		.cfi_def_cfa_offset 16
 511 0264 23341100 		sd	ra,8(sp)
 512 0268 23308100 		sd	s0,0(sp)
 513              		.cfi_offset 1, -8
 514              		.cfi_offset 8, -16
 515 026c 13040101 		addi	s0,sp,16
 516              		.cfi_def_cfa 8, 0
 517 0270 93050500 		mv	a1,a0
  87:src/syscall_c.cpp ****     syscall(SYSCALLS::SEM_TRYWAIT, handle);
 518              		.loc 1 87 5
 519              		.loc 1 87 12 is_stmt 0
 520 0274 13056002 		li	a0,38
 521              	.LVL48:
 522 0278 97000000 		call	_Z7syscallmz
 522      E7800000 
 523              	.LVL49:
  88:src/syscall_c.cpp **** 
  89:src/syscall_c.cpp ****     uint64 ret;
 524              		.loc 1 89 5 is_stmt 1
  90:src/syscall_c.cpp ****     __asm__ volatile ("mv %[rt], a0" : [rt] "=r" (ret));
 525              		.loc 1 90 5
 526              		.loc 1 90 56 is_stmt 0
 527              	#APP
 528              	# 90 "src/syscall_c.cpp" 1
  91              	    return (int)ret;
 529              		mv a0, a0
 530              	# 0 "" 2
 531              	.LVL50:
 532              		.loc 1 91 5 is_stmt 1
  92:src/syscall_c.cpp **** }
 533              		.loc 1 92 1 is_stmt 0
 534              	#NO_APP
 535 0284 1B050500 		sext.w	a0,a0
 536              	.LVL51:
 537 0288 83308100 		ld	ra,8(sp)
 538              		.cfi_restore 1
 539 028c 03340100 		ld	s0,0(sp)
 540              		.cfi_restore 8
 541              		.cfi_def_cfa 2, 16
 542 0290 13010101 		addi	sp,sp,16
 543              		.cfi_def_cfa_offset 0
 544 0294 67800000 		jr	ra
 545              		.cfi_endproc
 546              	.LFE74:
 548              		.align	2
GAS LISTING /tmp/ccu0P8eT.s 			page 12


 549              		.globl	_Z13sem_timedwaitP10_Semaphorem
 551              	_Z13sem_timedwaitP10_Semaphorem:
 552              	.LFB75:
  93:src/syscall_c.cpp **** 
  94:src/syscall_c.cpp **** int sem_timedwait(sem_t handle, time_t timeout) {
 553              		.loc 1 94 49 is_stmt 1
 554              		.cfi_startproc
 555              	.LVL52:
 556 0298 130101FF 		addi	sp,sp,-16
 557              		.cfi_def_cfa_offset 16
 558 029c 23341100 		sd	ra,8(sp)
 559 02a0 23308100 		sd	s0,0(sp)
 560              		.cfi_offset 1, -8
 561              		.cfi_offset 8, -16
 562 02a4 13040101 		addi	s0,sp,16
 563              		.cfi_def_cfa 8, 0
 564 02a8 13860500 		mv	a2,a1
  95:src/syscall_c.cpp ****     syscall(SYSCALLS::SEM_TIMEDWAIT, handle, timeout);
 565              		.loc 1 95 5
 566              		.loc 1 95 12 is_stmt 0
 567 02ac 93050500 		mv	a1,a0
 568              	.LVL53:
 569 02b0 13055002 		li	a0,37
 570              	.LVL54:
 571 02b4 97000000 		call	_Z7syscallmz
 571      E7800000 
 572              	.LVL55:
  96:src/syscall_c.cpp **** 
  97:src/syscall_c.cpp ****     uint64 ret;
 573              		.loc 1 97 5 is_stmt 1
  98:src/syscall_c.cpp ****     __asm__ volatile ("mv %[rt], a0" : [rt] "=r" (ret));
 574              		.loc 1 98 5
 575              		.loc 1 98 56 is_stmt 0
 576              	#APP
 577              	# 98 "src/syscall_c.cpp" 1
  99              	    return (int)ret;
 578              		mv a0, a0
 579              	# 0 "" 2
 580              	.LVL56:
 581              		.loc 1 99 5 is_stmt 1
 100:src/syscall_c.cpp **** }
 582              		.loc 1 100 1 is_stmt 0
 583              	#NO_APP
 584 02c0 1B050500 		sext.w	a0,a0
 585              	.LVL57:
 586 02c4 83308100 		ld	ra,8(sp)
 587              		.cfi_restore 1
 588 02c8 03340100 		ld	s0,0(sp)
 589              		.cfi_restore 8
 590              		.cfi_def_cfa 2, 16
 591 02cc 13010101 		addi	sp,sp,16
 592              		.cfi_def_cfa_offset 0
 593 02d0 67800000 		jr	ra
 594              		.cfi_endproc
 595              	.LFE75:
 597              		.align	2
 598              		.globl	_Z4getcv
GAS LISTING /tmp/ccu0P8eT.s 			page 13


 600              	_Z4getcv:
 601              	.LFB76:
 101:src/syscall_c.cpp **** 
 102:src/syscall_c.cpp **** char getc() {
 602              		.loc 1 102 13 is_stmt 1
 603              		.cfi_startproc
 604 02d4 130101FF 		addi	sp,sp,-16
 605              		.cfi_def_cfa_offset 16
 606 02d8 23341100 		sd	ra,8(sp)
 607 02dc 23308100 		sd	s0,0(sp)
 608              		.cfi_offset 1, -8
 609              		.cfi_offset 8, -16
 610 02e0 13040101 		addi	s0,sp,16
 611              		.cfi_def_cfa 8, 0
 103:src/syscall_c.cpp ****     syscall(SYSCALLS::GETC);
 612              		.loc 1 103 5
 613              		.loc 1 103 12 is_stmt 0
 614 02e4 13051004 		li	a0,65
 615 02e8 97000000 		call	_Z7syscallmz
 615      E7800000 
 616              	.LVL58:
 104:src/syscall_c.cpp **** 
 105:src/syscall_c.cpp ****     uint64 ret;
 617              		.loc 1 105 5 is_stmt 1
 106:src/syscall_c.cpp ****     __asm__ volatile ("mv %[rt], a0" : [rt] "=r" (ret));
 618              		.loc 1 106 5
 619              		.loc 1 106 56 is_stmt 0
 620              	#APP
 621              	# 106 "src/syscall_c.cpp" 1
 107              	    return (char)ret;
 622              		mv a0, a0
 623              	# 0 "" 2
 624              	.LVL59:
 625              		.loc 1 107 5 is_stmt 1
 108:src/syscall_c.cpp **** }
 626              		.loc 1 108 1 is_stmt 0
 627              	#NO_APP
 628 02f4 1375F50F 		andi	a0,a0,0xff
 629              	.LVL60:
 630 02f8 83308100 		ld	ra,8(sp)
 631              		.cfi_restore 1
 632 02fc 03340100 		ld	s0,0(sp)
 633              		.cfi_restore 8
 634              		.cfi_def_cfa 2, 16
 635 0300 13010101 		addi	sp,sp,16
 636              		.cfi_def_cfa_offset 0
 637 0304 67800000 		jr	ra
 638              		.cfi_endproc
 639              	.LFE76:
 641              		.align	2
 642              		.globl	_Z4putcc
 644              	_Z4putcc:
 645              	.LFB77:
 109:src/syscall_c.cpp **** 
 110:src/syscall_c.cpp **** void putc(char c) {
 646              		.loc 1 110 19 is_stmt 1
 647              		.cfi_startproc
GAS LISTING /tmp/ccu0P8eT.s 			page 14


 648              	.LVL61:
 649 0308 130101FF 		addi	sp,sp,-16
 650              		.cfi_def_cfa_offset 16
 651 030c 23341100 		sd	ra,8(sp)
 652 0310 23308100 		sd	s0,0(sp)
 653              		.cfi_offset 1, -8
 654              		.cfi_offset 8, -16
 655 0314 13040101 		addi	s0,sp,16
 656              		.cfi_def_cfa 8, 0
 657 0318 93050500 		mv	a1,a0
 111:src/syscall_c.cpp ****     syscall(SYSCALLS::PUTC, c);
 658              		.loc 1 111 5
 659              		.loc 1 111 12 is_stmt 0
 660 031c 13052004 		li	a0,66
 661              	.LVL62:
 662 0320 97000000 		call	_Z7syscallmz
 662      E7800000 
 663              	.LVL63:
 112:src/syscall_c.cpp **** }
 664              		.loc 1 112 1
 665 0328 83308100 		ld	ra,8(sp)
 666              		.cfi_restore 1
 667 032c 03340100 		ld	s0,0(sp)
 668              		.cfi_restore 8
 669              		.cfi_def_cfa 2, 16
 670 0330 13010101 		addi	sp,sp,16
 671              		.cfi_def_cfa_offset 0
 672 0334 67800000 		jr	ra
 673              		.cfi_endproc
 674              	.LFE77:
 676              		.align	2
 677              		.globl	_Z12putc_handlerv
 679              	_Z12putc_handlerv:
 680              	.LFB78:
 113:src/syscall_c.cpp **** 
 114:src/syscall_c.cpp **** void putc_handler() {
 681              		.loc 1 114 21 is_stmt 1
 682              		.cfi_startproc
 683 0338 130101FF 		addi	sp,sp,-16
 684              		.cfi_def_cfa_offset 16
 685 033c 23341100 		sd	ra,8(sp)
 686 0340 23308100 		sd	s0,0(sp)
 687              		.cfi_offset 1, -8
 688              		.cfi_offset 8, -16
 689 0344 13040101 		addi	s0,sp,16
 690              		.cfi_def_cfa 8, 0
 115:src/syscall_c.cpp ****     syscall(SYSCALLS::PUTC_HANDLER);
 691              		.loc 1 115 5
 692              		.loc 1 115 12 is_stmt 0
 693 0348 13053004 		li	a0,67
 694 034c 97000000 		call	_Z7syscallmz
 694      E7800000 
 695              	.LVL64:
 116:src/syscall_c.cpp **** }...
 696              		.loc 1 116 1
 697 0354 83308100 		ld	ra,8(sp)
 698              		.cfi_restore 1
GAS LISTING /tmp/ccu0P8eT.s 			page 15


 699 0358 03340100 		ld	s0,0(sp)
 700              		.cfi_restore 8
 701              		.cfi_def_cfa 2, 16
 702 035c 13010101 		addi	sp,sp,16
 703              		.cfi_def_cfa_offset 0
 704 0360 67800000 		jr	ra
 705              		.cfi_endproc
 706              	.LFE78:
 708              	.Letext0:
 709              		.file 2 "src/../h/../lib/hw.h"
 710              		.file 3 "src/../h/../h/../h/list.hpp"
 711              		.file 4 "src/../h/../h/tcb.hpp"
 712              		.file 5 "src/../h/../h/../h/wait_list.hpp"
 713              		.file 6 "src/../h/../h/semaphore.hpp"
 714              		.file 7 "src/../h/syscall_c.hpp"
GAS LISTING /tmp/ccu0P8eT.s 			page 16


DEFINED SYMBOLS
                            *ABS*:0000000000000000 syscall_c.cpp
     /tmp/ccu0P8eT.s:9      .text:0000000000000000 _Z7syscallmz
     /tmp/ccu0P8eT.s:13     .text:0000000000000000 .L0 
     /tmp/ccu0P8eT.s:15     .text:0000000000000000 .L0 
     /tmp/ccu0P8eT.s:16     .text:0000000000000004 .L0 
     /tmp/ccu0P8eT.s:18     .text:0000000000000008 .L0 
     /tmp/ccu0P8eT.s:20     .text:000000000000000c .L0 
     /tmp/ccu0P8eT.s:29     .text:0000000000000028 .L0 
   src/syscall_c.cpp:4      .text:0000000000000028 .L0 
     /tmp/ccu0P8eT.s:36     .text:000000000000002c .L0 
     /tmp/ccu0P8eT.s:37     .text:0000000000000030 .L0 
     /tmp/ccu0P8eT.s:38     .text:0000000000000030 .L0 
     /tmp/ccu0P8eT.s:40     .text:0000000000000034 .L0 
     /tmp/ccu0P8eT.s:42     .text:0000000000000038 .L0 
     /tmp/ccu0P8eT.s:48     .text:0000000000000038 _Z9mem_allocm
     /tmp/ccu0P8eT.s:51     .text:0000000000000038 .L0 
     /tmp/ccu0P8eT.s:53     .text:0000000000000038 .L0 
     /tmp/ccu0P8eT.s:54     .text:000000000000003c .L0 
     /tmp/ccu0P8eT.s:57     .text:0000000000000044 .L0 
     /tmp/ccu0P8eT.s:58     .text:0000000000000044 .L0 
     /tmp/ccu0P8eT.s:60     .text:0000000000000048 .L0 
     /tmp/ccu0P8eT.s:63     .text:000000000000004c .L0 
     /tmp/ccu0P8eT.s:64     .text:000000000000004c .L0 
     /tmp/ccu0P8eT.s:69     .text:0000000000000058 .L0 
     /tmp/ccu0P8eT.s:70     .text:0000000000000058 .L0 
   src/syscall_c.cpp:12     .text:0000000000000058 .L0 
     /tmp/ccu0P8eT.s:77     .text:000000000000005c .L0 
     /tmp/ccu0P8eT.s:79     .text:000000000000005c .L0 
     /tmp/ccu0P8eT.s:80     .text:0000000000000060 .L0 
     /tmp/ccu0P8eT.s:82     .text:0000000000000064 .L0 
     /tmp/ccu0P8eT.s:83     .text:0000000000000064 .L0 
     /tmp/ccu0P8eT.s:85     .text:0000000000000068 .L0 
     /tmp/ccu0P8eT.s:87     .text:000000000000006c .L0 
     /tmp/ccu0P8eT.s:93     .text:000000000000006c _Z8mem_freePv
     /tmp/ccu0P8eT.s:96     .text:000000000000006c .L0 
     /tmp/ccu0P8eT.s:98     .text:000000000000006c .L0 
     /tmp/ccu0P8eT.s:99     .text:0000000000000070 .L0 
     /tmp/ccu0P8eT.s:102    .text:0000000000000078 .L0 
     /tmp/ccu0P8eT.s:103    .text:0000000000000078 .L0 
     /tmp/ccu0P8eT.s:105    .text:000000000000007c .L0 
     /tmp/ccu0P8eT.s:108    .text:0000000000000080 .L0 
     /tmp/ccu0P8eT.s:109    .text:0000000000000080 .L0 
     /tmp/ccu0P8eT.s:114    .text:000000000000008c .L0 
     /tmp/ccu0P8eT.s:115    .text:000000000000008c .L0 
   src/syscall_c.cpp:22     .text:000000000000008c .L0 
     /tmp/ccu0P8eT.s:122    .text:0000000000000090 .L0 
     /tmp/ccu0P8eT.s:124    .text:0000000000000090 .L0 
     /tmp/ccu0P8eT.s:127    .text:0000000000000098 .L0 
     /tmp/ccu0P8eT.s:129    .text:000000000000009c .L0 
     /tmp/ccu0P8eT.s:130    .text:000000000000009c .L0 
     /tmp/ccu0P8eT.s:132    .text:00000000000000a0 .L0 
     /tmp/ccu0P8eT.s:134    .text:00000000000000a4 .L0 
     /tmp/ccu0P8eT.s:140    .text:00000000000000a4 _Z13thread_createPP3TCBPFvPvES2_
     /tmp/ccu0P8eT.s:143    .text:00000000000000a4 .L0 
     /tmp/ccu0P8eT.s:145    .text:00000000000000a4 .L0 
     /tmp/ccu0P8eT.s:146    .text:00000000000000a8 .L0 
GAS LISTING /tmp/ccu0P8eT.s 			page 17


     /tmp/ccu0P8eT.s:149    .text:00000000000000b0 .L0 
     /tmp/ccu0P8eT.s:150    .text:00000000000000b0 .L0 
     /tmp/ccu0P8eT.s:152    .text:00000000000000b4 .L0 
     /tmp/ccu0P8eT.s:155    .text:00000000000000b8 .L0 
     /tmp/ccu0P8eT.s:156    .text:00000000000000b8 .L0 
     /tmp/ccu0P8eT.s:165    .text:00000000000000cc .L0 
     /tmp/ccu0P8eT.s:166    .text:00000000000000cc .L0 
   src/syscall_c.cpp:30     .text:00000000000000cc .L0 
     /tmp/ccu0P8eT.s:173    .text:00000000000000d0 .L0 
     /tmp/ccu0P8eT.s:175    .text:00000000000000d0 .L0 
     /tmp/ccu0P8eT.s:178    .text:00000000000000d8 .L0 
     /tmp/ccu0P8eT.s:180    .text:00000000000000dc .L0 
     /tmp/ccu0P8eT.s:181    .text:00000000000000dc .L0 
     /tmp/ccu0P8eT.s:183    .text:00000000000000e0 .L0 
     /tmp/ccu0P8eT.s:185    .text:00000000000000e4 .L0 
     /tmp/ccu0P8eT.s:191    .text:00000000000000e4 _Z11thread_exitv
     /tmp/ccu0P8eT.s:194    .text:00000000000000e4 .L0 
     /tmp/ccu0P8eT.s:195    .text:00000000000000e4 .L0 
     /tmp/ccu0P8eT.s:196    .text:00000000000000e8 .L0 
     /tmp/ccu0P8eT.s:199    .text:00000000000000f0 .L0 
     /tmp/ccu0P8eT.s:200    .text:00000000000000f0 .L0 
     /tmp/ccu0P8eT.s:202    .text:00000000000000f4 .L0 
     /tmp/ccu0P8eT.s:204    .text:00000000000000f4 .L0 
     /tmp/ccu0P8eT.s:205    .text:00000000000000f4 .L0 
     /tmp/ccu0P8eT.s:209    .text:0000000000000100 .L0 
     /tmp/ccu0P8eT.s:210    .text:0000000000000100 .L0 
   src/syscall_c.cpp:38     .text:0000000000000100 .L0 
     /tmp/ccu0P8eT.s:217    .text:0000000000000104 .L0 
     /tmp/ccu0P8eT.s:219    .text:0000000000000104 .L0 
     /tmp/ccu0P8eT.s:222    .text:000000000000010c .L0 
     /tmp/ccu0P8eT.s:224    .text:0000000000000110 .L0 
     /tmp/ccu0P8eT.s:225    .text:0000000000000110 .L0 
     /tmp/ccu0P8eT.s:227    .text:0000000000000114 .L0 
     /tmp/ccu0P8eT.s:229    .text:0000000000000118 .L0 
     /tmp/ccu0P8eT.s:235    .text:0000000000000118 _Z15thread_dispatchv
     /tmp/ccu0P8eT.s:238    .text:0000000000000118 .L0 
     /tmp/ccu0P8eT.s:239    .text:0000000000000118 .L0 
     /tmp/ccu0P8eT.s:240    .text:000000000000011c .L0 
     /tmp/ccu0P8eT.s:243    .text:0000000000000124 .L0 
     /tmp/ccu0P8eT.s:244    .text:0000000000000124 .L0 
     /tmp/ccu0P8eT.s:246    .text:0000000000000128 .L0 
     /tmp/ccu0P8eT.s:248    .text:0000000000000128 .L0 
     /tmp/ccu0P8eT.s:249    .text:0000000000000128 .L0 
     /tmp/ccu0P8eT.s:253    .text:0000000000000134 .L0 
     /tmp/ccu0P8eT.s:254    .text:0000000000000138 .L0 
     /tmp/ccu0P8eT.s:256    .text:000000000000013c .L0 
     /tmp/ccu0P8eT.s:257    .text:000000000000013c .L0 
     /tmp/ccu0P8eT.s:259    .text:0000000000000140 .L0 
     /tmp/ccu0P8eT.s:261    .text:0000000000000144 .L0 
     /tmp/ccu0P8eT.s:267    .text:0000000000000144 _Z10time_sleepm
     /tmp/ccu0P8eT.s:270    .text:0000000000000144 .L0 
     /tmp/ccu0P8eT.s:272    .text:0000000000000144 .L0 
     /tmp/ccu0P8eT.s:273    .text:0000000000000148 .L0 
     /tmp/ccu0P8eT.s:276    .text:0000000000000150 .L0 
     /tmp/ccu0P8eT.s:277    .text:0000000000000150 .L0 
     /tmp/ccu0P8eT.s:279    .text:0000000000000154 .L0 
     /tmp/ccu0P8eT.s:282    .text:0000000000000158 .L0 
GAS LISTING /tmp/ccu0P8eT.s 			page 18


     /tmp/ccu0P8eT.s:283    .text:0000000000000158 .L0 
     /tmp/ccu0P8eT.s:288    .text:0000000000000164 .L0 
     /tmp/ccu0P8eT.s:289    .text:0000000000000164 .L0 
   src/syscall_c.cpp:50     .text:0000000000000164 .L0 
     /tmp/ccu0P8eT.s:296    .text:0000000000000168 .L0 
     /tmp/ccu0P8eT.s:298    .text:0000000000000168 .L0 
     /tmp/ccu0P8eT.s:301    .text:0000000000000170 .L0 
     /tmp/ccu0P8eT.s:303    .text:0000000000000174 .L0 
     /tmp/ccu0P8eT.s:304    .text:0000000000000174 .L0 
     /tmp/ccu0P8eT.s:306    .text:0000000000000178 .L0 
     /tmp/ccu0P8eT.s:308    .text:000000000000017c .L0 
     /tmp/ccu0P8eT.s:314    .text:000000000000017c _Z8sem_openPP10_Semaphorej
     /tmp/ccu0P8eT.s:317    .text:000000000000017c .L0 
     /tmp/ccu0P8eT.s:319    .text:000000000000017c .L0 
     /tmp/ccu0P8eT.s:320    .text:0000000000000180 .L0 
     /tmp/ccu0P8eT.s:323    .text:0000000000000188 .L0 
     /tmp/ccu0P8eT.s:324    .text:0000000000000188 .L0 
     /tmp/ccu0P8eT.s:326    .text:000000000000018c .L0 
     /tmp/ccu0P8eT.s:329    .text:0000000000000190 .L0 
     /tmp/ccu0P8eT.s:330    .text:0000000000000190 .L0 
     /tmp/ccu0P8eT.s:337    .text:00000000000001a0 .L0 
     /tmp/ccu0P8eT.s:338    .text:00000000000001a0 .L0 
   src/syscall_c.cpp:58     .text:00000000000001a0 .L0 
     /tmp/ccu0P8eT.s:345    .text:00000000000001a4 .L0 
     /tmp/ccu0P8eT.s:347    .text:00000000000001a4 .L0 
     /tmp/ccu0P8eT.s:350    .text:00000000000001ac .L0 
     /tmp/ccu0P8eT.s:352    .text:00000000000001b0 .L0 
     /tmp/ccu0P8eT.s:353    .text:00000000000001b0 .L0 
     /tmp/ccu0P8eT.s:355    .text:00000000000001b4 .L0 
     /tmp/ccu0P8eT.s:357    .text:00000000000001b8 .L0 
     /tmp/ccu0P8eT.s:363    .text:00000000000001b8 _Z9sem_closeP10_Semaphore
     /tmp/ccu0P8eT.s:366    .text:00000000000001b8 .L0 
     /tmp/ccu0P8eT.s:368    .text:00000000000001b8 .L0 
     /tmp/ccu0P8eT.s:369    .text:00000000000001bc .L0 
     /tmp/ccu0P8eT.s:372    .text:00000000000001c4 .L0 
     /tmp/ccu0P8eT.s:373    .text:00000000000001c4 .L0 
     /tmp/ccu0P8eT.s:375    .text:00000000000001c8 .L0 
     /tmp/ccu0P8eT.s:378    .text:00000000000001cc .L0 
     /tmp/ccu0P8eT.s:379    .text:00000000000001cc .L0 
     /tmp/ccu0P8eT.s:384    .text:00000000000001d8 .L0 
     /tmp/ccu0P8eT.s:385    .text:00000000000001d8 .L0 
   src/syscall_c.cpp:66     .text:00000000000001d8 .L0 
     /tmp/ccu0P8eT.s:392    .text:00000000000001dc .L0 
     /tmp/ccu0P8eT.s:394    .text:00000000000001dc .L0 
     /tmp/ccu0P8eT.s:397    .text:00000000000001e4 .L0 
     /tmp/ccu0P8eT.s:399    .text:00000000000001e8 .L0 
     /tmp/ccu0P8eT.s:400    .text:00000000000001e8 .L0 
     /tmp/ccu0P8eT.s:402    .text:00000000000001ec .L0 
     /tmp/ccu0P8eT.s:404    .text:00000000000001f0 .L0 
     /tmp/ccu0P8eT.s:410    .text:00000000000001f0 _Z8sem_waitP10_Semaphore
     /tmp/ccu0P8eT.s:413    .text:00000000000001f0 .L0 
     /tmp/ccu0P8eT.s:415    .text:00000000000001f0 .L0 
     /tmp/ccu0P8eT.s:416    .text:00000000000001f4 .L0 
     /tmp/ccu0P8eT.s:419    .text:00000000000001fc .L0 
     /tmp/ccu0P8eT.s:420    .text:00000000000001fc .L0 
     /tmp/ccu0P8eT.s:422    .text:0000000000000200 .L0 
     /tmp/ccu0P8eT.s:425    .text:0000000000000204 .L0 
GAS LISTING /tmp/ccu0P8eT.s 			page 19


     /tmp/ccu0P8eT.s:426    .text:0000000000000204 .L0 
     /tmp/ccu0P8eT.s:431    .text:0000000000000210 .L0 
     /tmp/ccu0P8eT.s:432    .text:0000000000000210 .L0 
   src/syscall_c.cpp:74     .text:0000000000000210 .L0 
     /tmp/ccu0P8eT.s:439    .text:0000000000000214 .L0 
     /tmp/ccu0P8eT.s:441    .text:0000000000000214 .L0 
     /tmp/ccu0P8eT.s:444    .text:000000000000021c .L0 
     /tmp/ccu0P8eT.s:446    .text:0000000000000220 .L0 
     /tmp/ccu0P8eT.s:447    .text:0000000000000220 .L0 
     /tmp/ccu0P8eT.s:449    .text:0000000000000224 .L0 
     /tmp/ccu0P8eT.s:451    .text:0000000000000228 .L0 
     /tmp/ccu0P8eT.s:457    .text:0000000000000228 _Z10sem_signalP10_Semaphore
     /tmp/ccu0P8eT.s:460    .text:0000000000000228 .L0 
     /tmp/ccu0P8eT.s:462    .text:0000000000000228 .L0 
     /tmp/ccu0P8eT.s:463    .text:000000000000022c .L0 
     /tmp/ccu0P8eT.s:466    .text:0000000000000234 .L0 
     /tmp/ccu0P8eT.s:467    .text:0000000000000234 .L0 
     /tmp/ccu0P8eT.s:469    .text:0000000000000238 .L0 
     /tmp/ccu0P8eT.s:472    .text:000000000000023c .L0 
     /tmp/ccu0P8eT.s:473    .text:000000000000023c .L0 
     /tmp/ccu0P8eT.s:478    .text:0000000000000248 .L0 
     /tmp/ccu0P8eT.s:479    .text:0000000000000248 .L0 
   src/syscall_c.cpp:82     .text:0000000000000248 .L0 
     /tmp/ccu0P8eT.s:486    .text:000000000000024c .L0 
     /tmp/ccu0P8eT.s:488    .text:000000000000024c .L0 
     /tmp/ccu0P8eT.s:491    .text:0000000000000254 .L0 
     /tmp/ccu0P8eT.s:493    .text:0000000000000258 .L0 
     /tmp/ccu0P8eT.s:494    .text:0000000000000258 .L0 
     /tmp/ccu0P8eT.s:496    .text:000000000000025c .L0 
     /tmp/ccu0P8eT.s:498    .text:0000000000000260 .L0 
     /tmp/ccu0P8eT.s:504    .text:0000000000000260 _Z11sem_trywaitP10_Semaphore
     /tmp/ccu0P8eT.s:507    .text:0000000000000260 .L0 
     /tmp/ccu0P8eT.s:509    .text:0000000000000260 .L0 
     /tmp/ccu0P8eT.s:510    .text:0000000000000264 .L0 
     /tmp/ccu0P8eT.s:513    .text:000000000000026c .L0 
     /tmp/ccu0P8eT.s:514    .text:000000000000026c .L0 
     /tmp/ccu0P8eT.s:516    .text:0000000000000270 .L0 
     /tmp/ccu0P8eT.s:519    .text:0000000000000274 .L0 
     /tmp/ccu0P8eT.s:520    .text:0000000000000274 .L0 
     /tmp/ccu0P8eT.s:525    .text:0000000000000280 .L0 
     /tmp/ccu0P8eT.s:526    .text:0000000000000280 .L0 
   src/syscall_c.cpp:90     .text:0000000000000280 .L0 
     /tmp/ccu0P8eT.s:533    .text:0000000000000284 .L0 
     /tmp/ccu0P8eT.s:535    .text:0000000000000284 .L0 
     /tmp/ccu0P8eT.s:538    .text:000000000000028c .L0 
     /tmp/ccu0P8eT.s:540    .text:0000000000000290 .L0 
     /tmp/ccu0P8eT.s:541    .text:0000000000000290 .L0 
     /tmp/ccu0P8eT.s:543    .text:0000000000000294 .L0 
     /tmp/ccu0P8eT.s:545    .text:0000000000000298 .L0 
     /tmp/ccu0P8eT.s:551    .text:0000000000000298 _Z13sem_timedwaitP10_Semaphorem
     /tmp/ccu0P8eT.s:554    .text:0000000000000298 .L0 
     /tmp/ccu0P8eT.s:556    .text:0000000000000298 .L0 
     /tmp/ccu0P8eT.s:557    .text:000000000000029c .L0 
     /tmp/ccu0P8eT.s:560    .text:00000000000002a4 .L0 
     /tmp/ccu0P8eT.s:561    .text:00000000000002a4 .L0 
     /tmp/ccu0P8eT.s:563    .text:00000000000002a8 .L0 
     /tmp/ccu0P8eT.s:566    .text:00000000000002ac .L0 
GAS LISTING /tmp/ccu0P8eT.s 			page 20


     /tmp/ccu0P8eT.s:567    .text:00000000000002ac .L0 
     /tmp/ccu0P8eT.s:574    .text:00000000000002bc .L0 
     /tmp/ccu0P8eT.s:575    .text:00000000000002bc .L0 
   src/syscall_c.cpp:98     .text:00000000000002bc .L0 
     /tmp/ccu0P8eT.s:582    .text:00000000000002c0 .L0 
     /tmp/ccu0P8eT.s:584    .text:00000000000002c0 .L0 
     /tmp/ccu0P8eT.s:587    .text:00000000000002c8 .L0 
     /tmp/ccu0P8eT.s:589    .text:00000000000002cc .L0 
     /tmp/ccu0P8eT.s:590    .text:00000000000002cc .L0 
     /tmp/ccu0P8eT.s:592    .text:00000000000002d0 .L0 
     /tmp/ccu0P8eT.s:594    .text:00000000000002d4 .L0 
     /tmp/ccu0P8eT.s:600    .text:00000000000002d4 _Z4getcv
     /tmp/ccu0P8eT.s:603    .text:00000000000002d4 .L0 
     /tmp/ccu0P8eT.s:604    .text:00000000000002d4 .L0 
     /tmp/ccu0P8eT.s:605    .text:00000000000002d8 .L0 
     /tmp/ccu0P8eT.s:608    .text:00000000000002e0 .L0 
     /tmp/ccu0P8eT.s:609    .text:00000000000002e0 .L0 
     /tmp/ccu0P8eT.s:611    .text:00000000000002e4 .L0 
     /tmp/ccu0P8eT.s:613    .text:00000000000002e4 .L0 
     /tmp/ccu0P8eT.s:614    .text:00000000000002e4 .L0 
     /tmp/ccu0P8eT.s:618    .text:00000000000002f0 .L0 
     /tmp/ccu0P8eT.s:619    .text:00000000000002f0 .L0 
   src/syscall_c.cpp:106    .text:00000000000002f0 .L0 
     /tmp/ccu0P8eT.s:626    .text:00000000000002f4 .L0 
     /tmp/ccu0P8eT.s:628    .text:00000000000002f4 .L0 
     /tmp/ccu0P8eT.s:631    .text:00000000000002fc .L0 
     /tmp/ccu0P8eT.s:633    .text:0000000000000300 .L0 
     /tmp/ccu0P8eT.s:634    .text:0000000000000300 .L0 
     /tmp/ccu0P8eT.s:636    .text:0000000000000304 .L0 
     /tmp/ccu0P8eT.s:638    .text:0000000000000308 .L0 
     /tmp/ccu0P8eT.s:644    .text:0000000000000308 _Z4putcc
     /tmp/ccu0P8eT.s:647    .text:0000000000000308 .L0 
     /tmp/ccu0P8eT.s:649    .text:0000000000000308 .L0 
     /tmp/ccu0P8eT.s:650    .text:000000000000030c .L0 
     /tmp/ccu0P8eT.s:653    .text:0000000000000314 .L0 
     /tmp/ccu0P8eT.s:654    .text:0000000000000314 .L0 
     /tmp/ccu0P8eT.s:656    .text:0000000000000318 .L0 
     /tmp/ccu0P8eT.s:659    .text:000000000000031c .L0 
     /tmp/ccu0P8eT.s:660    .text:000000000000031c .L0 
     /tmp/ccu0P8eT.s:665    .text:0000000000000328 .L0 
     /tmp/ccu0P8eT.s:666    .text:000000000000032c .L0 
     /tmp/ccu0P8eT.s:668    .text:0000000000000330 .L0 
     /tmp/ccu0P8eT.s:669    .text:0000000000000330 .L0 
     /tmp/ccu0P8eT.s:671    .text:0000000000000334 .L0 
     /tmp/ccu0P8eT.s:673    .text:0000000000000338 .L0 
     /tmp/ccu0P8eT.s:679    .text:0000000000000338 _Z12putc_handlerv
     /tmp/ccu0P8eT.s:682    .text:0000000000000338 .L0 
     /tmp/ccu0P8eT.s:683    .text:0000000000000338 .L0 
     /tmp/ccu0P8eT.s:684    .text:000000000000033c .L0 
     /tmp/ccu0P8eT.s:687    .text:0000000000000344 .L0 
     /tmp/ccu0P8eT.s:688    .text:0000000000000344 .L0 
     /tmp/ccu0P8eT.s:690    .text:0000000000000348 .L0 
     /tmp/ccu0P8eT.s:692    .text:0000000000000348 .L0 
     /tmp/ccu0P8eT.s:693    .text:0000000000000348 .L0 
     /tmp/ccu0P8eT.s:697    .text:0000000000000354 .L0 
     /tmp/ccu0P8eT.s:698    .text:0000000000000358 .L0 
     /tmp/ccu0P8eT.s:700    .text:000000000000035c .L0 
GAS LISTING /tmp/ccu0P8eT.s 			page 21


     /tmp/ccu0P8eT.s:701    .text:000000000000035c .L0 
     /tmp/ccu0P8eT.s:703    .text:0000000000000360 .L0 
     /tmp/ccu0P8eT.s:705    .text:0000000000000364 .L0 
     /tmp/ccu0P8eT.s:715    .text:0000000000000364 .L0 
     /tmp/ccu0P8eT.s:2314   .debug_abbrev:0000000000000000 .Ldebug_abbrev0
     /tmp/ccu0P8eT.s:3770   .debug_str:0000000000000827 .LASF167
     /tmp/ccu0P8eT.s:3642   .debug_str:0000000000000513 .LASF168
     /tmp/ccu0P8eT.s:3574   .debug_str:0000000000000319 .LASF169
     /tmp/ccu0P8eT.s:5      .text:0000000000000000 .Ltext0
     /tmp/ccu0P8eT.s:708    .text:0000000000000364 .Letext0
     /tmp/ccu0P8eT.s:3478   .debug_line:0000000000000000 .Ldebug_line0
     /tmp/ccu0P8eT.s:3598   .debug_str:00000000000003dd .LASF0
     /tmp/ccu0P8eT.s:3622   .debug_str:0000000000000494 .LASF1
     /tmp/ccu0P8eT.s:3714   .debug_str:00000000000006e5 .LASF2
     /tmp/ccu0P8eT.s:3724   .debug_str:0000000000000728 .LASF4
     /tmp/ccu0P8eT.s:3606   .debug_str:0000000000000419 .LASF3
     /tmp/ccu0P8eT.s:3494   .debug_str:000000000000008c .LASF5
     /tmp/ccu0P8eT.s:3684   .debug_str:000000000000061d .LASF6
     /tmp/ccu0P8eT.s:3674   .debug_str:00000000000005d9 .LASF7
     /tmp/ccu0P8eT.s:3614   .debug_str:000000000000045d .LASF8
     /tmp/ccu0P8eT.s:3576   .debug_str:0000000000000332 .LASF9
     /tmp/ccu0P8eT.s:3584   .debug_str:0000000000000362 .LASF10
     /tmp/ccu0P8eT.s:3520   .debug_str:000000000000013b .LASF11
     /tmp/ccu0P8eT.s:3568   .debug_str:00000000000002f5 .LASF12
     /tmp/ccu0P8eT.s:3534   .debug_str:00000000000001b5 .LASF13
     /tmp/ccu0P8eT.s:3518   .debug_str:000000000000012b .LASF14
     /tmp/ccu0P8eT.s:3746   .debug_str:00000000000007a3 .LASF15
     /tmp/ccu0P8eT.s:3558   .debug_str:0000000000000288 .LASF16
     /tmp/ccu0P8eT.s:3738   .debug_str:0000000000000768 .LASF17
     /tmp/ccu0P8eT.s:3798   .debug_str:00000000000009b5 .LASF35
     /tmp/ccu0P8eT.s:3786   .debug_str:0000000000000964 .LASF170
     /tmp/ccu0P8eT.s:3742   .debug_str:0000000000000791 .LASF18
     /tmp/ccu0P8eT.s:3662   .debug_str:0000000000000590 .LASF19
     /tmp/ccu0P8eT.s:3654   .debug_str:0000000000000560 .LASF20
     /tmp/ccu0P8eT.s:3740   .debug_str:000000000000077e .LASF22
     /tmp/ccu0P8eT.s:3566   .debug_str:00000000000002de .LASF27
     /tmp/ccu0P8eT.s:3718   .debug_str:0000000000000700 .LASF130
     /tmp/ccu0P8eT.s:3702   .debug_str:0000000000000692 .LASF132
     /tmp/ccu0P8eT.s:3618   .debug_str:000000000000047d .LASF21
     /tmp/ccu0P8eT.s:3510   .debug_str:00000000000000ea .LASF23
     /tmp/ccu0P8eT.s:3630   .debug_str:00000000000004d3 .LASF24
     /tmp/ccu0P8eT.s:3562   .debug_str:00000000000002a9 .LASF25
     /tmp/ccu0P8eT.s:3672   .debug_str:00000000000005cd .LASF26
     /tmp/ccu0P8eT.s:3800   .debug_str:00000000000009bf .LASF28
     /tmp/ccu0P8eT.s:3830   .debug_str:0000000000000ac7 .LASF29
     /tmp/ccu0P8eT.s:3820   .debug_str:0000000000000a60 .LASF30
     /tmp/ccu0P8eT.s:3730   .debug_str:0000000000000745 .LASF31
     /tmp/ccu0P8eT.s:3612   .debug_str:0000000000000440 .LASF32
     /tmp/ccu0P8eT.s:3694   .debug_str:000000000000066b .LASF33
     /tmp/ccu0P8eT.s:3488   .debug_str:000000000000003e .LASF34
     /tmp/ccu0P8eT.s:3756   .debug_str:00000000000007e3 .LASF171
     /tmp/ccu0P8eT.s:3668   .debug_str:00000000000005be .LASF36
     /tmp/ccu0P8eT.s:3484   .debug_str:0000000000000029 .LASF37
     /tmp/ccu0P8eT.s:3734   .debug_str:0000000000000759 .LASF38
     /tmp/ccu0P8eT.s:3780   .debug_str:0000000000000934 .LASF39
     /tmp/ccu0P8eT.s:3736   .debug_str:000000000000075f .LASF40
     /tmp/ccu0P8eT.s:3664   .debug_str:0000000000000595 .LASF41
GAS LISTING /tmp/ccu0P8eT.s 			page 22


     /tmp/ccu0P8eT.s:3774   .debug_str:00000000000008fb .LASF42
     /tmp/ccu0P8eT.s:3610   .debug_str:0000000000000433 .LASF43
     /tmp/ccu0P8eT.s:3624   .debug_str:00000000000004a7 .LASF44
     /tmp/ccu0P8eT.s:3540   .debug_str:0000000000000202 .LASF172
     /tmp/ccu0P8eT.s:3490   .debug_str:0000000000000058 .LASF173
     /tmp/ccu0P8eT.s:3688   .debug_str:0000000000000640 .LASF174
     /tmp/ccu0P8eT.s:3826   .debug_str:0000000000000aaa .LASF45
     /tmp/ccu0P8eT.s:3580   .debug_str:0000000000000348 .LASF46
     /tmp/ccu0P8eT.s:3638   .debug_str:00000000000004fe .LASF47
     /tmp/ccu0P8eT.s:3572   .debug_str:000000000000030d .LASF48
     /tmp/ccu0P8eT.s:3486   .debug_str:000000000000002e .LASF49
     /tmp/ccu0P8eT.s:3634   .debug_str:00000000000004e5 .LASF51
     /tmp/ccu0P8eT.s:3822   .debug_str:0000000000000a7b .LASF50
     /tmp/ccu0P8eT.s:3716   .debug_str:00000000000006f3 .LASF52
     /tmp/ccu0P8eT.s:3744   .debug_str:0000000000000796 .LASF53
     /tmp/ccu0P8eT.s:3778   .debug_str:0000000000000913 .LASF54
     /tmp/ccu0P8eT.s:3758   .debug_str:00000000000007eb .LASF55
     /tmp/ccu0P8eT.s:3658   .debug_str:0000000000000570 .LASF56
     /tmp/ccu0P8eT.s:3502   .debug_str:00000000000000b8 .LASF57
     /tmp/ccu0P8eT.s:3784   .debug_str:000000000000094d .LASF58
     /tmp/ccu0P8eT.s:3808   .debug_str:0000000000000a10 .LASF59
     /tmp/ccu0P8eT.s:3514   .debug_str:000000000000010d .LASF60
     /tmp/ccu0P8eT.s:3762   .debug_str:00000000000007fb .LASF61
     /tmp/ccu0P8eT.s:3530   .debug_str:000000000000018b .LASF62
     /tmp/ccu0P8eT.s:3626   .debug_str:00000000000004ad .LASF63
     /tmp/ccu0P8eT.s:3790   .debug_str:0000000000000977 .LASF64
     /tmp/ccu0P8eT.s:3728   .debug_str:0000000000000734 .LASF77
     /tmp/ccu0P8eT.s:3678   .debug_str:00000000000005f1 .LASF65
     /tmp/ccu0P8eT.s:3594   .debug_str:00000000000003b9 .LASF66
     /tmp/ccu0P8eT.s:3828   .debug_str:0000000000000ab7 .LASF67
     /tmp/ccu0P8eT.s:3824   .debug_str:0000000000000a8e .LASF68
     /tmp/ccu0P8eT.s:3554   .debug_str:0000000000000262 .LASF69
     /tmp/ccu0P8eT.s:3792   .debug_str:0000000000000990 .LASF70
     /tmp/ccu0P8eT.s:3656   .debug_str:0000000000000565 .LASF71
     /tmp/ccu0P8eT.s:3546   .debug_str:0000000000000234 .LASF72
     /tmp/ccu0P8eT.s:3548   .debug_str:000000000000024b .LASF73
     /tmp/ccu0P8eT.s:3524   .debug_str:0000000000000153 .LASF75
     /tmp/ccu0P8eT.s:3508   .debug_str:00000000000000dc .LASF74
     /tmp/ccu0P8eT.s:3628   .debug_str:00000000000004ba .LASF76
     /tmp/ccu0P8eT.s:3768   .debug_str:000000000000081f .LASF78
     /tmp/ccu0P8eT.s:3512   .debug_str:0000000000000107 .LASF79
     /tmp/ccu0P8eT.s:3772   .debug_str:00000000000008eb .LASF80
     /tmp/ccu0P8eT.s:3726   .debug_str:000000000000072f .LASF81
     /tmp/ccu0P8eT.s:3492   .debug_str:0000000000000080 .LASF82
     /tmp/ccu0P8eT.s:3698   .debug_str:0000000000000684 .LASF83
     /tmp/ccu0P8eT.s:3796   .debug_str:00000000000009ac .LASF84
     /tmp/ccu0P8eT.s:3506   .debug_str:00000000000000d1 .LASF85
     /tmp/ccu0P8eT.s:3592   .debug_str:00000000000003b3 .LASF86
     /tmp/ccu0P8eT.s:3802   .debug_str:00000000000009dd .LASF87
     /tmp/ccu0P8eT.s:3542   .debug_str:0000000000000210 .LASF88
     /tmp/ccu0P8eT.s:3532   .debug_str:00000000000001a1 .LASF89
     /tmp/ccu0P8eT.s:3480   .debug_str:0000000000000000 .LASF90
     /tmp/ccu0P8eT.s:3722   .debug_str:0000000000000713 .LASF91
     /tmp/ccu0P8eT.s:3482   .debug_str:0000000000000015 .LASF92
     /tmp/ccu0P8eT.s:3710   .debug_str:00000000000006c8 .LASF93
     /tmp/ccu0P8eT.s:3538   .debug_str:00000000000001df .LASF94
     /tmp/ccu0P8eT.s:3516   .debug_str:0000000000000122 .LASF95
GAS LISTING /tmp/ccu0P8eT.s 			page 23


     /tmp/ccu0P8eT.s:3586   .debug_str:0000000000000370 .LASF96
     /tmp/ccu0P8eT.s:3550   .debug_str:0000000000000254 .LASF97
     /tmp/ccu0P8eT.s:3804   .debug_str:00000000000009e4 .LASF98
     /tmp/ccu0P8eT.s:3750   .debug_str:00000000000007b8 .LASF99
     /tmp/ccu0P8eT.s:3564   .debug_str:00000000000002c5 .LASF100
     /tmp/ccu0P8eT.s:3496   .debug_str:0000000000000093 .LASF101
     /tmp/ccu0P8eT.s:3602   .debug_str:00000000000003ef .LASF102
     /tmp/ccu0P8eT.s:3670   .debug_str:00000000000005c3 .LASF103
     /tmp/ccu0P8eT.s:3686   .debug_str:0000000000000624 .LASF104
     /tmp/ccu0P8eT.s:3754   .debug_str:00000000000007db .LASF105
     /tmp/ccu0P8eT.s:3498   .debug_str:0000000000000099 .LASF106
     /tmp/ccu0P8eT.s:3552   .debug_str:0000000000000259 .LASF107
     /tmp/ccu0P8eT.s:3588   .debug_str:000000000000038c .LASF108
     /tmp/ccu0P8eT.s:3720   .debug_str:000000000000070a .LASF175
     /tmp/ccu0P8eT.s:3632   .debug_str:00000000000004db .LASF109
     /tmp/ccu0P8eT.s:3570   .debug_str:0000000000000304 .LASF110
     /tmp/ccu0P8eT.s:3766   .debug_str:0000000000000811 .LASF111
     /tmp/ccu0P8eT.s:3690   .debug_str:0000000000000655 .LASF112
     /tmp/ccu0P8eT.s:3544   .debug_str:0000000000000224 .LASF113
     /tmp/ccu0P8eT.s:3522   .debug_str:000000000000014a .LASF114
     /tmp/ccu0P8eT.s:3526   .debug_str:0000000000000166 .LASF115
     /tmp/ccu0P8eT.s:3660   .debug_str:0000000000000587 .LASF116
     /tmp/ccu0P8eT.s:3764   .debug_str:0000000000000806 .LASF117
     /tmp/ccu0P8eT.s:3646   .debug_str:000000000000052f .LASF118
     /tmp/ccu0P8eT.s:3708   .debug_str:00000000000006bc .LASF119
     /tmp/ccu0P8eT.s:3814   .debug_str:0000000000000a27 .LASF120
     /tmp/ccu0P8eT.s:3648   .debug_str:000000000000053d .LASF121
     /tmp/ccu0P8eT.s:3652   .debug_str:000000000000055b .LASF122
     /tmp/ccu0P8eT.s:3712   .debug_str:00000000000006d8 .LASF123
     /tmp/ccu0P8eT.s:3812   .debug_str:0000000000000a21 .LASF124
     /tmp/ccu0P8eT.s:3504   .debug_str:00000000000000c4 .LASF125
     /tmp/ccu0P8eT.s:3604   .debug_str:0000000000000407 .LASF126
     /tmp/ccu0P8eT.s:680    .text:0000000000000338 .LFB78
     /tmp/ccu0P8eT.s:706    .text:0000000000000364 .LFE78
     /tmp/ccu0P8eT.s:695    .text:0000000000000354 .LVL64
     /tmp/ccu0P8eT.s:3640   .debug_str:000000000000050e .LASF127
     /tmp/ccu0P8eT.s:3748   .debug_str:00000000000007af .LASF128
     /tmp/ccu0P8eT.s:645    .text:0000000000000308 .LFB77
     /tmp/ccu0P8eT.s:674    .text:0000000000000338 .LFE77
     /tmp/ccu0P8eT.s:3126   .debug_loc:0000000000000000 .LLST25
     /tmp/ccu0P8eT.s:663    .text:0000000000000328 .LVL63
     /tmp/ccu0P8eT.s:3760   .debug_str:00000000000007f6 .LASF129
     /tmp/ccu0P8eT.s:3600   .debug_str:00000000000003ea .LASF131
     /tmp/ccu0P8eT.s:3794   .debug_str:00000000000009a3 .LASF133
     /tmp/ccu0P8eT.s:601    .text:00000000000002d4 .LFB76
     /tmp/ccu0P8eT.s:639    .text:0000000000000308 .LFE76
     /tmp/ccu0P8eT.s:3140   .debug_loc:0000000000000039 .LLST24
     /tmp/ccu0P8eT.s:616    .text:00000000000002f0 .LVL58
     /tmp/ccu0P8eT.s:3776   .debug_str:0000000000000905 .LASF134
     /tmp/ccu0P8eT.s:3818   .debug_str:0000000000000a40 .LASF135
     /tmp/ccu0P8eT.s:552    .text:0000000000000298 .LFB75
     /tmp/ccu0P8eT.s:595    .text:00000000000002d4 .LFE75
     /tmp/ccu0P8eT.s:3810   .debug_str:0000000000000a1a .LASF136
     /tmp/ccu0P8eT.s:3147   .debug_loc:000000000000005c .LLST21
     /tmp/ccu0P8eT.s:3608   .debug_str:000000000000042b .LASF137
     /tmp/ccu0P8eT.s:3165   .debug_loc:00000000000000a8 .LLST22
     /tmp/ccu0P8eT.s:3183   .debug_loc:00000000000000f4 .LLST23
GAS LISTING /tmp/ccu0P8eT.s 			page 24


     /tmp/ccu0P8eT.s:572    .text:00000000000002bc .LVL55
     /tmp/ccu0P8eT.s:3680   .debug_str:0000000000000601 .LASF138
     /tmp/ccu0P8eT.s:3556   .debug_str:000000000000026b .LASF139
     /tmp/ccu0P8eT.s:505    .text:0000000000000260 .LFB74
     /tmp/ccu0P8eT.s:546    .text:0000000000000298 .LFE74
     /tmp/ccu0P8eT.s:3190   .debug_loc:0000000000000117 .LLST19
     /tmp/ccu0P8eT.s:3208   .debug_loc:0000000000000163 .LLST20
     /tmp/ccu0P8eT.s:523    .text:0000000000000280 .LVL49
     /tmp/ccu0P8eT.s:3590   .debug_str:00000000000003a8 .LASF140
     /tmp/ccu0P8eT.s:3752   .debug_str:00000000000007bf .LASF141
     /tmp/ccu0P8eT.s:458    .text:0000000000000228 .LFB73
     /tmp/ccu0P8eT.s:499    .text:0000000000000260 .LFE73
     /tmp/ccu0P8eT.s:3215   .debug_loc:0000000000000186 .LLST17
     /tmp/ccu0P8eT.s:3233   .debug_loc:00000000000001d2 .LLST18
     /tmp/ccu0P8eT.s:476    .text:0000000000000248 .LVL44
     /tmp/ccu0P8eT.s:3732   .debug_str:0000000000000750 .LASF142
     /tmp/ccu0P8eT.s:3650   .debug_str:0000000000000542 .LASF143
     /tmp/ccu0P8eT.s:411    .text:00000000000001f0 .LFB72
     /tmp/ccu0P8eT.s:452    .text:0000000000000228 .LFE72
     /tmp/ccu0P8eT.s:3240   .debug_loc:00000000000001f5 .LLST15
     /tmp/ccu0P8eT.s:3258   .debug_loc:0000000000000241 .LLST16
     /tmp/ccu0P8eT.s:429    .text:0000000000000210 .LVL39
     /tmp/ccu0P8eT.s:3692   .debug_str:0000000000000661 .LASF144
     /tmp/ccu0P8eT.s:3536   .debug_str:00000000000001c5 .LASF145
     /tmp/ccu0P8eT.s:364    .text:00000000000001b8 .LFB71
     /tmp/ccu0P8eT.s:405    .text:00000000000001f0 .LFE71
     /tmp/ccu0P8eT.s:3265   .debug_loc:0000000000000264 .LLST13
     /tmp/ccu0P8eT.s:3283   .debug_loc:00000000000002b0 .LLST14
     /tmp/ccu0P8eT.s:382    .text:00000000000001d8 .LVL34
     /tmp/ccu0P8eT.s:3700   .debug_str:0000000000000689 .LASF146
     /tmp/ccu0P8eT.s:3528   .debug_str:0000000000000170 .LASF147
     /tmp/ccu0P8eT.s:315    .text:000000000000017c .LFB70
     /tmp/ccu0P8eT.s:358    .text:00000000000001b8 .LFE70
     /tmp/ccu0P8eT.s:3290   .debug_loc:00000000000002d3 .LLST10
     /tmp/ccu0P8eT.s:3500   .debug_str:00000000000000b3 .LASF148
     /tmp/ccu0P8eT.s:3308   .debug_loc:000000000000031f .LLST11
     /tmp/ccu0P8eT.s:3322   .debug_loc:0000000000000358 .LLST12
     /tmp/ccu0P8eT.s:335    .text:00000000000001a0 .LVL29
     /tmp/ccu0P8eT.s:3706   .debug_str:00000000000006b1 .LASF149
     /tmp/ccu0P8eT.s:3682   .debug_str:000000000000060d .LASF150
     /tmp/ccu0P8eT.s:268    .text:0000000000000144 .LFB69
     /tmp/ccu0P8eT.s:309    .text:000000000000017c .LFE69
     /tmp/ccu0P8eT.s:3676   .debug_str:00000000000005ec .LASF151
     /tmp/ccu0P8eT.s:3329   .debug_loc:000000000000037b .LLST8
     /tmp/ccu0P8eT.s:3347   .debug_loc:00000000000003c7 .LLST9
     /tmp/ccu0P8eT.s:286    .text:0000000000000164 .LVL23
     /tmp/ccu0P8eT.s:3696   .debug_str:0000000000000674 .LASF152
     /tmp/ccu0P8eT.s:3806   .debug_str:00000000000009fb .LASF153
     /tmp/ccu0P8eT.s:236    .text:0000000000000118 .LFB68
     /tmp/ccu0P8eT.s:262    .text:0000000000000144 .LFE68
     /tmp/ccu0P8eT.s:251    .text:0000000000000134 .LVL20
     /tmp/ccu0P8eT.s:3636   .debug_str:00000000000004f2 .LASF154
     /tmp/ccu0P8eT.s:3782   .debug_str:000000000000093c .LASF155
     /tmp/ccu0P8eT.s:192    .text:00000000000000e4 .LFB67
     /tmp/ccu0P8eT.s:230    .text:0000000000000118 .LFE67
     /tmp/ccu0P8eT.s:3354   .debug_loc:00000000000003ea .LLST7
     /tmp/ccu0P8eT.s:207    .text:0000000000000100 .LVL17
GAS LISTING /tmp/ccu0P8eT.s 			page 25


     /tmp/ccu0P8eT.s:3788   .debug_str:0000000000000969 .LASF156
     /tmp/ccu0P8eT.s:3666   .debug_str:000000000000059d .LASF157
     /tmp/ccu0P8eT.s:141    .text:00000000000000a4 .LFB66
     /tmp/ccu0P8eT.s:186    .text:00000000000000e4 .LFE66
     /tmp/ccu0P8eT.s:3361   .debug_loc:000000000000040d .LLST3
     /tmp/ccu0P8eT.s:3620   .debug_str:0000000000000486 .LASF158
     /tmp/ccu0P8eT.s:3379   .debug_loc:0000000000000459 .LLST4
     /tmp/ccu0P8eT.s:3397   .debug_loc:00000000000004a5 .LLST5
     /tmp/ccu0P8eT.s:3415   .debug_loc:00000000000004f1 .LLST6
     /tmp/ccu0P8eT.s:163    .text:00000000000000cc .LVL14
     /tmp/ccu0P8eT.s:3596   .debug_str:00000000000003d4 .LASF159
     /tmp/ccu0P8eT.s:3816   .debug_str:0000000000000a32 .LASF160
     /tmp/ccu0P8eT.s:94     .text:000000000000006c .LFB65
     /tmp/ccu0P8eT.s:135    .text:00000000000000a4 .LFE65
     /tmp/ccu0P8eT.s:3422   .debug_loc:0000000000000514 .LLST1
     /tmp/ccu0P8eT.s:3440   .debug_loc:0000000000000560 .LLST2
     /tmp/ccu0P8eT.s:112    .text:000000000000008c .LVL7
     /tmp/ccu0P8eT.s:3644   .debug_str:0000000000000525 .LASF161
     /tmp/ccu0P8eT.s:3582   .debug_str:0000000000000354 .LASF162
     /tmp/ccu0P8eT.s:49     .text:0000000000000038 .LFB64
     /tmp/ccu0P8eT.s:88     .text:000000000000006c .LFE64
     /tmp/ccu0P8eT.s:3578   .debug_str:0000000000000342 .LASF163
     /tmp/ccu0P8eT.s:3447   .debug_loc:0000000000000583 .LLST0
     /tmp/ccu0P8eT.s:67     .text:0000000000000058 .LVL3
     /tmp/ccu0P8eT.s:3704   .debug_str:00000000000006a9 .LASF164
     /tmp/ccu0P8eT.s:3616   .debug_str:0000000000000470 .LASF165
     /tmp/ccu0P8eT.s:10     .text:0000000000000000 .LFB63
     /tmp/ccu0P8eT.s:43     .text:0000000000000038 .LFE63
     /tmp/ccu0P8eT.s:3560   .debug_str:000000000000029e .LASF166
     /tmp/ccu0P8eT.s:648    .text:0000000000000308 .LVL61
     /tmp/ccu0P8eT.s:661    .text:0000000000000320 .LVL62
     /tmp/ccu0P8eT.s:624    .text:00000000000002f4 .LVL59
     /tmp/ccu0P8eT.s:629    .text:00000000000002f8 .LVL60
     /tmp/ccu0P8eT.s:555    .text:0000000000000298 .LVL52
     /tmp/ccu0P8eT.s:570    .text:00000000000002b4 .LVL54
     /tmp/ccu0P8eT.s:568    .text:00000000000002b0 .LVL53
     /tmp/ccu0P8eT.s:580    .text:00000000000002c0 .LVL56
     /tmp/ccu0P8eT.s:585    .text:00000000000002c4 .LVL57
     /tmp/ccu0P8eT.s:508    .text:0000000000000260 .LVL47
     /tmp/ccu0P8eT.s:521    .text:0000000000000278 .LVL48
     /tmp/ccu0P8eT.s:531    .text:0000000000000284 .LVL50
     /tmp/ccu0P8eT.s:536    .text:0000000000000288 .LVL51
     /tmp/ccu0P8eT.s:461    .text:0000000000000228 .LVL42
     /tmp/ccu0P8eT.s:474    .text:0000000000000240 .LVL43
     /tmp/ccu0P8eT.s:484    .text:000000000000024c .LVL45
     /tmp/ccu0P8eT.s:489    .text:0000000000000250 .LVL46
     /tmp/ccu0P8eT.s:414    .text:00000000000001f0 .LVL37
     /tmp/ccu0P8eT.s:427    .text:0000000000000208 .LVL38
     /tmp/ccu0P8eT.s:437    .text:0000000000000214 .LVL40
     /tmp/ccu0P8eT.s:442    .text:0000000000000218 .LVL41
     /tmp/ccu0P8eT.s:367    .text:00000000000001b8 .LVL32
     /tmp/ccu0P8eT.s:380    .text:00000000000001d0 .LVL33
     /tmp/ccu0P8eT.s:390    .text:00000000000001dc .LVL35
     /tmp/ccu0P8eT.s:395    .text:00000000000001e0 .LVL36
     /tmp/ccu0P8eT.s:318    .text:000000000000017c .LVL26
     /tmp/ccu0P8eT.s:333    .text:0000000000000198 .LVL28
     /tmp/ccu0P8eT.s:331    .text:0000000000000194 .LVL27
GAS LISTING /tmp/ccu0P8eT.s 			page 26


     /tmp/ccu0P8eT.s:343    .text:00000000000001a4 .LVL30
     /tmp/ccu0P8eT.s:348    .text:00000000000001a8 .LVL31
     /tmp/ccu0P8eT.s:271    .text:0000000000000144 .LVL21
     /tmp/ccu0P8eT.s:284    .text:000000000000015c .LVL22
     /tmp/ccu0P8eT.s:294    .text:0000000000000168 .LVL24
     /tmp/ccu0P8eT.s:299    .text:000000000000016c .LVL25
     /tmp/ccu0P8eT.s:215    .text:0000000000000104 .LVL18
     /tmp/ccu0P8eT.s:220    .text:0000000000000108 .LVL19
     /tmp/ccu0P8eT.s:144    .text:00000000000000a4 .LVL10
     /tmp/ccu0P8eT.s:161    .text:00000000000000c4 .LVL13
     /tmp/ccu0P8eT.s:159    .text:00000000000000c0 .LVL12
     /tmp/ccu0P8eT.s:157    .text:00000000000000bc .LVL11
     /tmp/ccu0P8eT.s:171    .text:00000000000000d0 .LVL15
     /tmp/ccu0P8eT.s:176    .text:00000000000000d4 .LVL16
     /tmp/ccu0P8eT.s:97     .text:000000000000006c .LVL5
     /tmp/ccu0P8eT.s:110    .text:0000000000000084 .LVL6
     /tmp/ccu0P8eT.s:120    .text:0000000000000090 .LVL8
     /tmp/ccu0P8eT.s:125    .text:0000000000000094 .LVL9
     /tmp/ccu0P8eT.s:52     .text:0000000000000038 .LVL1
     /tmp/ccu0P8eT.s:65     .text:0000000000000050 .LVL2
     /tmp/ccu0P8eT.s:716    .debug_info:0000000000000000 .Ldebug_info0

NO UNDEFINED SYMBOLS
