GAS LISTING /tmp/cc4au8fv.s 			page 1


   1              		.file	"syscall_cpp.cpp"
   2              		.option pic
   3              		.option norelax
   4              		.text
   5              	.Ltext0:
   6              		.section	.text._ZN6Thread3runEv,"axG",@progbits,_ZN6Thread3runEv,comdat
   7              		.align	2
   8              		.weak	_ZN6Thread3runEv
  10              	_ZN6Thread3runEv:
  11              	.LFB63:
  12              		.file 1 "src/../h/syscall_cpp.hpp"
   1:src/../h/syscall_cpp.hpp **** #ifndef SYSCALL_CPP_HPP
   2:src/../h/syscall_cpp.hpp **** #define SYSCALL_CPP_HPP
   3:src/../h/syscall_cpp.hpp **** 
   4:src/../h/syscall_cpp.hpp **** #include "../h/syscall_c.hpp"
   5:src/../h/syscall_cpp.hpp **** 
   6:src/../h/syscall_cpp.hpp **** void* operator new(size_t);
   7:src/../h/syscall_cpp.hpp **** 
   8:src/../h/syscall_cpp.hpp **** void* operator new[] (size_t);
   9:src/../h/syscall_cpp.hpp **** 
  10:src/../h/syscall_cpp.hpp **** void operator delete(void*) noexcept;
  11:src/../h/syscall_cpp.hpp **** 
  12:src/../h/syscall_cpp.hpp **** void operator delete[] (void*) noexcept;
  13:src/../h/syscall_cpp.hpp **** 
  14:src/../h/syscall_cpp.hpp **** class Thread
  15:src/../h/syscall_cpp.hpp **** {
  16:src/../h/syscall_cpp.hpp **** public:
  17:src/../h/syscall_cpp.hpp ****     Thread (void (*body)(void*), void* arg);
  18:src/../h/syscall_cpp.hpp ****     virtual ~Thread ();
  19:src/../h/syscall_cpp.hpp ****     int start ();
  20:src/../h/syscall_cpp.hpp ****     static void dispatch ();
  21:src/../h/syscall_cpp.hpp ****     static int sleep (time_t);
  22:src/../h/syscall_cpp.hpp ****     static void wrapper(void*);
  23:src/../h/syscall_cpp.hpp **** 
  24:src/../h/syscall_cpp.hpp **** protected:
  25:src/../h/syscall_cpp.hpp ****     Thread ();
  26:src/../h/syscall_cpp.hpp ****     virtual void run () {}
  13              		.loc 1 26 18
  14              		.cfi_startproc
  15              	.LVL0:
  16 0000 130101FF 		addi	sp,sp,-16
  17              		.cfi_def_cfa_offset 16
  18 0004 23348100 		sd	s0,8(sp)
  19              		.cfi_offset 8, -8
  20 0008 13040101 		addi	s0,sp,16
  21              		.cfi_def_cfa 8, 0
  22              		.loc 1 26 26 is_stmt 0
  23 000c 03348100 		ld	s0,8(sp)
  24              		.cfi_restore 8
  25              		.cfi_def_cfa 2, 16
  26 0010 13010101 		addi	sp,sp,16
  27              		.cfi_def_cfa_offset 0
  28 0014 67800000 		jr	ra
  29              		.cfi_endproc
  30              	.LFE63:
  32              		.section	.text._ZN14PeriodicThread18periodicActivationEv,"axG",@progbits,_ZN14PeriodicThread18peri
  33              		.align	2
GAS LISTING /tmp/cc4au8fv.s 			page 2


  34              		.weak	_ZN14PeriodicThread18periodicActivationEv
  36              	_ZN14PeriodicThread18periodicActivationEv:
  37              	.LFB64:
  27:src/../h/syscall_cpp.hpp **** 
  28:src/../h/syscall_cpp.hpp **** private:
  29:src/../h/syscall_cpp.hpp ****     thread_t myHandle;
  30:src/../h/syscall_cpp.hpp ****     void (*body)(void*); void* arg;
  31:src/../h/syscall_cpp.hpp **** };
  32:src/../h/syscall_cpp.hpp **** 
  33:src/../h/syscall_cpp.hpp **** class Semaphore
  34:src/../h/syscall_cpp.hpp **** {
  35:src/../h/syscall_cpp.hpp **** public:
  36:src/../h/syscall_cpp.hpp ****     Semaphore (unsigned init = 1);
  37:src/../h/syscall_cpp.hpp ****     virtual ~Semaphore ();
  38:src/../h/syscall_cpp.hpp ****     int wait ();
  39:src/../h/syscall_cpp.hpp ****     int signal ();
  40:src/../h/syscall_cpp.hpp ****     int timedWait (time_t);
  41:src/../h/syscall_cpp.hpp ****     int tryWait();
  42:src/../h/syscall_cpp.hpp **** 
  43:src/../h/syscall_cpp.hpp **** private:
  44:src/../h/syscall_cpp.hpp ****     sem_t myHandle;
  45:src/../h/syscall_cpp.hpp **** };
  46:src/../h/syscall_cpp.hpp **** 
  47:src/../h/syscall_cpp.hpp **** class PeriodicThread : public Thread
  48:src/../h/syscall_cpp.hpp **** {
  49:src/../h/syscall_cpp.hpp **** public:
  50:src/../h/syscall_cpp.hpp ****     void terminate ();
  51:src/../h/syscall_cpp.hpp **** 
  52:src/../h/syscall_cpp.hpp **** protected:
  53:src/../h/syscall_cpp.hpp ****     PeriodicThread (time_t period);
  54:src/../h/syscall_cpp.hpp ****     virtual void periodicActivation () {}
  38              		.loc 1 54 18 is_stmt 1
  39              		.cfi_startproc
  40              	.LVL1:
  41 0000 130101FF 		addi	sp,sp,-16
  42              		.cfi_def_cfa_offset 16
  43 0004 23348100 		sd	s0,8(sp)
  44              		.cfi_offset 8, -8
  45 0008 13040101 		addi	s0,sp,16
  46              		.cfi_def_cfa 8, 0
  47              		.loc 1 54 41 is_stmt 0
  48 000c 03348100 		ld	s0,8(sp)
  49              		.cfi_restore 8
  50              		.cfi_def_cfa 2, 16
  51 0010 13010101 		addi	sp,sp,16
  52              		.cfi_def_cfa_offset 0
  53 0014 67800000 		jr	ra
  54              		.cfi_endproc
  55              	.LFE64:
  57              		.text
  58              		.align	2
  59              		.globl	_ZN6Thread7wrapperEPv
  61              	_ZN6Thread7wrapperEPv:
  62              	.LFB82:
  63              		.file 2 "src/syscall_cpp.cpp"
   1:src/syscall_cpp.cpp **** #include "../h/syscall_cpp.hpp"
   2:src/syscall_cpp.cpp **** 
GAS LISTING /tmp/cc4au8fv.s 			page 3


   3:src/syscall_cpp.cpp **** void* operator new(size_t size) {
   4:src/syscall_cpp.cpp ****     return mem_alloc(size);
   5:src/syscall_cpp.cpp **** }
   6:src/syscall_cpp.cpp **** 
   7:src/syscall_cpp.cpp **** void* operator new[] (size_t size) {
   8:src/syscall_cpp.cpp ****     return mem_alloc(size);
   9:src/syscall_cpp.cpp **** }
  10:src/syscall_cpp.cpp **** 
  11:src/syscall_cpp.cpp **** void operator delete(void* ptr) noexcept {
  12:src/syscall_cpp.cpp ****     mem_free(ptr);
  13:src/syscall_cpp.cpp **** }
  14:src/syscall_cpp.cpp **** 
  15:src/syscall_cpp.cpp **** void operator delete[] (void* ptr) noexcept {
  16:src/syscall_cpp.cpp ****     mem_free(ptr);
  17:src/syscall_cpp.cpp **** }
  18:src/syscall_cpp.cpp **** 
  19:src/syscall_cpp.cpp **** Thread::Thread(void (*body)(void *), void *arg) {
  20:src/syscall_cpp.cpp ****     this->body = body;
  21:src/syscall_cpp.cpp ****     this->arg = arg;
  22:src/syscall_cpp.cpp **** }
  23:src/syscall_cpp.cpp **** 
  24:src/syscall_cpp.cpp **** int Thread::start() {
  25:src/syscall_cpp.cpp ****     if (body)
  26:src/syscall_cpp.cpp ****         return thread_create(&this->myHandle, this->body, this->arg);
  27:src/syscall_cpp.cpp ****     else
  28:src/syscall_cpp.cpp ****         return thread_create(&this->myHandle, wrapper, this);
  29:src/syscall_cpp.cpp **** }
  30:src/syscall_cpp.cpp **** 
  31:src/syscall_cpp.cpp **** void Thread::dispatch() {
  32:src/syscall_cpp.cpp ****     thread_dispatch();
  33:src/syscall_cpp.cpp **** }
  34:src/syscall_cpp.cpp **** 
  35:src/syscall_cpp.cpp **** int Thread::sleep(time_t time) {
  36:src/syscall_cpp.cpp ****     return time_sleep(time);
  37:src/syscall_cpp.cpp **** }
  38:src/syscall_cpp.cpp **** 
  39:src/syscall_cpp.cpp **** Thread::~Thread() {
  40:src/syscall_cpp.cpp ****     delete this->myHandle;
  41:src/syscall_cpp.cpp **** }
  42:src/syscall_cpp.cpp **** 
  43:src/syscall_cpp.cpp **** Thread::Thread() {
  44:src/syscall_cpp.cpp ****     this->body = nullptr;
  45:src/syscall_cpp.cpp ****     this->arg = nullptr;
  46:src/syscall_cpp.cpp **** }
  47:src/syscall_cpp.cpp **** 
  48:src/syscall_cpp.cpp **** void Thread::wrapper(void* arg) {
  64              		.loc 2 48 33 is_stmt 1
  65              		.cfi_startproc
  66              	.LVL2:
  67 0000 130101FF 		addi	sp,sp,-16
  68              		.cfi_def_cfa_offset 16
  69 0004 23341100 		sd	ra,8(sp)
  70 0008 23308100 		sd	s0,0(sp)
  71              		.cfi_offset 1, -8
  72              		.cfi_offset 8, -16
  73 000c 13040101 		addi	s0,sp,16
  74              		.cfi_def_cfa 8, 0
GAS LISTING /tmp/cc4au8fv.s 			page 4


  49:src/syscall_cpp.cpp ****     Thread* t = (Thread*)arg;
  75              		.loc 2 49 5
  76              	.LVL3:
  50:src/syscall_cpp.cpp ****     t->run();
  77              		.loc 2 50 5
  78              		.loc 2 50 12 is_stmt 0
  79 0010 83370500 		ld	a5,0(a0)
  80 0014 83B70701 		ld	a5,16(a5)
  81              		.loc 2 50 11
  82 0018 E7800700 		jalr	a5
  83              	.LVL4:
  51:src/syscall_cpp.cpp **** }
  84              		.loc 2 51 1
  85 001c 83308100 		ld	ra,8(sp)
  86              		.cfi_restore 1
  87 0020 03340100 		ld	s0,0(sp)
  88              		.cfi_restore 8
  89              		.cfi_def_cfa 2, 16
  90 0024 13010101 		addi	sp,sp,16
  91              		.cfi_def_cfa_offset 0
  92 0028 67800000 		jr	ra
  93              		.cfi_endproc
  94              	.LFE82:
  96              		.align	2
  97              		.globl	_ZN14PeriodicThread3runEv
  99              	_ZN14PeriodicThread3runEv:
 100              	.LFB97:
  52:src/syscall_cpp.cpp **** 
  53:src/syscall_cpp.cpp **** Semaphore::Semaphore(unsigned int init) {
  54:src/syscall_cpp.cpp ****     sem_open(&this->myHandle, init);
  55:src/syscall_cpp.cpp **** }
  56:src/syscall_cpp.cpp **** 
  57:src/syscall_cpp.cpp **** Semaphore::~Semaphore() {
  58:src/syscall_cpp.cpp ****     sem_close(this->myHandle);
  59:src/syscall_cpp.cpp **** }
  60:src/syscall_cpp.cpp **** 
  61:src/syscall_cpp.cpp **** int Semaphore::wait() {
  62:src/syscall_cpp.cpp ****     return sem_wait(this->myHandle);
  63:src/syscall_cpp.cpp **** }
  64:src/syscall_cpp.cpp **** 
  65:src/syscall_cpp.cpp **** int Semaphore::signal() {
  66:src/syscall_cpp.cpp ****     return sem_signal(this->myHandle);
  67:src/syscall_cpp.cpp **** }
  68:src/syscall_cpp.cpp **** 
  69:src/syscall_cpp.cpp **** int Semaphore::timedWait(time_t time) {
  70:src/syscall_cpp.cpp ****     return sem_timedwait(this->myHandle, time);
  71:src/syscall_cpp.cpp **** }
  72:src/syscall_cpp.cpp **** 
  73:src/syscall_cpp.cpp **** int Semaphore::tryWait() {
  74:src/syscall_cpp.cpp ****     return sem_trywait(this->myHandle);
  75:src/syscall_cpp.cpp **** }
  76:src/syscall_cpp.cpp **** 
  77:src/syscall_cpp.cpp **** PeriodicThread::PeriodicThread(time_t period) : period(period) {}
  78:src/syscall_cpp.cpp **** 
  79:src/syscall_cpp.cpp **** void PeriodicThread::run() {
 101              		.loc 2 79 28 is_stmt 1
 102              		.cfi_startproc
GAS LISTING /tmp/cc4au8fv.s 			page 5


 103              	.LVL5:
 104 002c 130101FE 		addi	sp,sp,-32
 105              		.cfi_def_cfa_offset 32
 106 0030 233C1100 		sd	ra,24(sp)
 107 0034 23388100 		sd	s0,16(sp)
 108 0038 23349100 		sd	s1,8(sp)
 109              		.cfi_offset 1, -8
 110              		.cfi_offset 8, -16
 111              		.cfi_offset 9, -24
 112 003c 13040102 		addi	s0,sp,32
 113              		.cfi_def_cfa 8, 0
 114 0040 93040500 		mv	s1,a0
 115              	.LVL6:
 116              	.L8:
  80:src/syscall_cpp.cpp ****     while (true) {
 117              		.loc 2 80 5 discriminator 1
  81:src/syscall_cpp.cpp ****         this->periodicActivation();
 118              		.loc 2 81 9 discriminator 1
 119              		.loc 2 81 34 is_stmt 0 discriminator 1
 120 0044 83B70400 		ld	a5,0(s1)
 121 0048 83B78701 		ld	a5,24(a5)
 122              		.loc 2 81 33 discriminator 1
 123 004c 13850400 		mv	a0,s1
 124 0050 E7800700 		jalr	a5
 125              	.LVL7:
  82:src/syscall_cpp.cpp ****         time_sleep(period);
 126              		.loc 2 82 9 is_stmt 1 discriminator 1
 127              		.loc 2 82 19 is_stmt 0 discriminator 1
 128 0054 03B50402 		ld	a0,32(s1)
 129 0058 97000000 		call	_Z10time_sleepm@plt
 129      E7800000 
 130              	.LVL8:
  80:src/syscall_cpp.cpp ****     while (true) {
 131              		.loc 2 80 5 is_stmt 1 discriminator 1
 132 0060 6FF05FFE 		j	.L8
 133              		.cfi_endproc
 134              	.LFE97:
 136              		.align	2
 137              		.globl	_ZN9SemaphoreD2Ev
 139              	_ZN9SemaphoreD2Ev:
 140              	.LFB87:
  57:src/syscall_cpp.cpp ****     sem_close(this->myHandle);
 141              		.loc 2 57 1
 142              		.cfi_startproc
 143              		.cfi_personality 0x9b,DW.ref.__gxx_personality_v0
 144              		.cfi_lsda 0x1b,.LLSDA87
 145              	.LVL9:
 146 0064 130101FF 		addi	sp,sp,-16
 147              		.cfi_def_cfa_offset 16
 148 0068 23341100 		sd	ra,8(sp)
 149 006c 23308100 		sd	s0,0(sp)
 150              		.cfi_offset 1, -8
 151              		.cfi_offset 8, -16
 152 0070 13040101 		addi	s0,sp,16
 153              		.cfi_def_cfa 8, 0
 154              	.LBB11:
  57:src/syscall_cpp.cpp ****     sem_close(this->myHandle);
GAS LISTING /tmp/cc4au8fv.s 			page 6


 155              		.loc 2 57 23 is_stmt 0
 156 0074 97070000 		lla	a5,_ZTV9Semaphore+16
 156      93870700 
 157 007c 2330F500 		sd	a5,0(a0)
  58:src/syscall_cpp.cpp **** }
 158              		.loc 2 58 5 is_stmt 1
  58:src/syscall_cpp.cpp **** }
 159              		.loc 2 58 14 is_stmt 0
 160 0080 03358500 		ld	a0,8(a0)
 161              	.LVL10:
 162 0084 97000000 		call	_Z9sem_closeP10_Semaphore@plt
 162      E7800000 
 163              	.LVL11:
 164              	.LBE11:
  59:src/syscall_cpp.cpp **** 
 165              		.loc 2 59 1
 166 008c 83308100 		ld	ra,8(sp)
 167              		.cfi_restore 1
 168 0090 03340100 		ld	s0,0(sp)
 169              		.cfi_restore 8
 170              		.cfi_def_cfa 2, 16
 171 0094 13010101 		addi	sp,sp,16
 172              		.cfi_def_cfa_offset 0
 173 0098 67800000 		jr	ra
 174              		.cfi_endproc
 175              	.LFE87:
 176              		.globl	__gxx_personality_v0
 177              		.section	.gcc_except_table,"a",@progbits
 178              	.LLSDA87:
 179 0000 FF       		.byte	0xff
 180 0001 FF       		.byte	0xff
 181 0002 03       		.byte	0x3
 182 0003 00       		.byte	0
 183              		.text
 185              		.globl	_ZN9SemaphoreD1Ev
 186              		.set	_ZN9SemaphoreD1Ev,_ZN9SemaphoreD2Ev
 187              		.align	2
 188              		.globl	_Znwm
 190              	_Znwm:
 191              	.LFB65:
   3:src/syscall_cpp.cpp ****     return mem_alloc(size);
 192              		.loc 2 3 33 is_stmt 1
 193              		.cfi_startproc
 194              	.LVL12:
 195 009c 130101FF 		addi	sp,sp,-16
 196              		.cfi_def_cfa_offset 16
 197 00a0 23341100 		sd	ra,8(sp)
 198 00a4 23308100 		sd	s0,0(sp)
 199              		.cfi_offset 1, -8
 200              		.cfi_offset 8, -16
 201 00a8 13040101 		addi	s0,sp,16
 202              		.cfi_def_cfa 8, 0
   4:src/syscall_cpp.cpp **** }
 203              		.loc 2 4 5
   4:src/syscall_cpp.cpp **** }
 204              		.loc 2 4 21 is_stmt 0
 205 00ac 97000000 		call	_Z9mem_allocm@plt
GAS LISTING /tmp/cc4au8fv.s 			page 7


 205      E7800000 
 206              	.LVL13:
   5:src/syscall_cpp.cpp **** 
 207              		.loc 2 5 1
 208 00b4 83308100 		ld	ra,8(sp)
 209              		.cfi_restore 1
 210 00b8 03340100 		ld	s0,0(sp)
 211              		.cfi_restore 8
 212              		.cfi_def_cfa 2, 16
 213 00bc 13010101 		addi	sp,sp,16
 214              		.cfi_def_cfa_offset 0
 215 00c0 67800000 		jr	ra
 216              		.cfi_endproc
 217              	.LFE65:
 219              		.align	2
 220              		.globl	_Znam
 222              	_Znam:
 223              	.LFB66:
   7:src/syscall_cpp.cpp ****     return mem_alloc(size);
 224              		.loc 2 7 36 is_stmt 1
 225              		.cfi_startproc
 226              	.LVL14:
 227 00c4 130101FF 		addi	sp,sp,-16
 228              		.cfi_def_cfa_offset 16
 229 00c8 23341100 		sd	ra,8(sp)
 230 00cc 23308100 		sd	s0,0(sp)
 231              		.cfi_offset 1, -8
 232              		.cfi_offset 8, -16
 233 00d0 13040101 		addi	s0,sp,16
 234              		.cfi_def_cfa 8, 0
   8:src/syscall_cpp.cpp **** }
 235              		.loc 2 8 5
   8:src/syscall_cpp.cpp **** }
 236              		.loc 2 8 21 is_stmt 0
 237 00d4 97000000 		call	_Z9mem_allocm@plt
 237      E7800000 
 238              	.LVL15:
   9:src/syscall_cpp.cpp **** 
 239              		.loc 2 9 1
 240 00dc 83308100 		ld	ra,8(sp)
 241              		.cfi_restore 1
 242 00e0 03340100 		ld	s0,0(sp)
 243              		.cfi_restore 8
 244              		.cfi_def_cfa 2, 16
 245 00e4 13010101 		addi	sp,sp,16
 246              		.cfi_def_cfa_offset 0
 247 00e8 67800000 		jr	ra
 248              		.cfi_endproc
 249              	.LFE66:
 251              		.align	2
 252              		.globl	_ZdlPv
 254              	_ZdlPv:
 255              	.LFB67:
  11:src/syscall_cpp.cpp ****     mem_free(ptr);
 256              		.loc 2 11 42 is_stmt 1
 257              		.cfi_startproc
 258              		.cfi_personality 0x9b,DW.ref.__gxx_personality_v0
GAS LISTING /tmp/cc4au8fv.s 			page 8


 259              		.cfi_lsda 0x1b,.LLSDA67
 260              	.LVL16:
 261 00ec 130101FF 		addi	sp,sp,-16
 262              		.cfi_def_cfa_offset 16
 263 00f0 23341100 		sd	ra,8(sp)
 264 00f4 23308100 		sd	s0,0(sp)
 265              		.cfi_offset 1, -8
 266              		.cfi_offset 8, -16
 267 00f8 13040101 		addi	s0,sp,16
 268              		.cfi_def_cfa 8, 0
  12:src/syscall_cpp.cpp **** }
 269              		.loc 2 12 5
  12:src/syscall_cpp.cpp **** }
 270              		.loc 2 12 13 is_stmt 0
 271 00fc 97000000 		call	_Z8mem_freePv@plt
 271      E7800000 
 272              	.LVL17:
  13:src/syscall_cpp.cpp **** 
 273              		.loc 2 13 1
 274 0104 83308100 		ld	ra,8(sp)
 275              		.cfi_restore 1
 276 0108 03340100 		ld	s0,0(sp)
 277              		.cfi_restore 8
 278              		.cfi_def_cfa 2, 16
 279 010c 13010101 		addi	sp,sp,16
 280              		.cfi_def_cfa_offset 0
 281 0110 67800000 		jr	ra
 282              		.cfi_endproc
 283              	.LFE67:
 284              		.section	.gcc_except_table
 285              	.LLSDA67:
 286 0004 FF       		.byte	0xff
 287 0005 FF       		.byte	0xff
 288 0006 03       		.byte	0x3
 289 0007 00       		.byte	0
 290              		.text
 292              		.align	2
 293              		.globl	_ZN6ThreadD2Ev
 295              	_ZN6ThreadD2Ev:
 296              	.LFB76:
  39:src/syscall_cpp.cpp ****     delete this->myHandle;
 297              		.loc 2 39 1 is_stmt 1
 298              		.cfi_startproc
 299              		.cfi_personality 0x9b,DW.ref.__gxx_personality_v0
 300              		.cfi_lsda 0x1b,.LLSDA76
 301              	.LVL18:
 302 0114 130101FE 		addi	sp,sp,-32
 303              		.cfi_def_cfa_offset 32
 304 0118 233C1100 		sd	ra,24(sp)
 305 011c 23388100 		sd	s0,16(sp)
 306 0120 23349100 		sd	s1,8(sp)
 307              		.cfi_offset 1, -8
 308              		.cfi_offset 8, -16
 309              		.cfi_offset 9, -24
 310 0124 13040102 		addi	s0,sp,32
 311              		.cfi_def_cfa 8, 0
 312              	.LBB12:
GAS LISTING /tmp/cc4au8fv.s 			page 9


  39:src/syscall_cpp.cpp ****     delete this->myHandle;
 313              		.loc 2 39 17 is_stmt 0
 314 0128 97070000 		lla	a5,_ZTV6Thread+16
 314      93870700 
 315 0130 2330F500 		sd	a5,0(a0)
  40:src/syscall_cpp.cpp **** }
 316              		.loc 2 40 5 is_stmt 1
  40:src/syscall_cpp.cpp **** }
 317              		.loc 2 40 18 is_stmt 0
 318 0134 83348500 		ld	s1,8(a0)
  40:src/syscall_cpp.cpp **** }
 319              		.loc 2 40 26
 320 0138 63800402 		beqz	s1,.L18
 321              	.LVL19:
 322              	.LBB13:
 323              	.LBB14:
 324              		.file 3 "src/../h/../h/../h/tcb.hpp"
   1:src/../h/../h/../h/tcb.hpp **** #ifndef TCP_HPP
   2:src/../h/../h/../h/tcb.hpp **** #define TCP_HPP
   3:src/../h/../h/../h/tcb.hpp **** 
   4:src/../h/../h/../h/tcb.hpp **** #include "../lib/hw.h"
   5:src/../h/../h/../h/tcb.hpp **** #include "../h/scheduler.hpp"
   6:src/../h/../h/../h/tcb.hpp **** #include "../h/riscv.hpp"
   7:src/../h/../h/../h/tcb.hpp **** #include "../h/memory_allocator.hpp"
   8:src/../h/../h/../h/tcb.hpp **** 
   9:src/../h/../h/../h/tcb.hpp **** // Thread Control Block
  10:src/../h/../h/../h/tcb.hpp **** class TCB
  11:src/../h/../h/../h/tcb.hpp **** {
  12:src/../h/../h/../h/tcb.hpp **** private:
  13:src/../h/../h/../h/tcb.hpp ****     using Body = void (*)(void*);
  14:src/../h/../h/../h/tcb.hpp ****     Body body;
  15:src/../h/../h/../h/tcb.hpp ****     uint64* stack;
  16:src/../h/../h/../h/tcb.hpp **** 
  17:src/../h/../h/../h/tcb.hpp ****     // Thread context struct
  18:src/../h/../h/../h/tcb.hpp ****     struct Context {
  19:src/../h/../h/../h/tcb.hpp ****         uint64 ra; // Return address
  20:src/../h/../h/../h/tcb.hpp ****         uint64 sp; // Stack pointer
  21:src/../h/../h/../h/tcb.hpp ****     };
  22:src/../h/../h/../h/tcb.hpp **** 
  23:src/../h/../h/../h/tcb.hpp ****     // Thread context
  24:src/../h/../h/../h/tcb.hpp ****     Context context;
  25:src/../h/../h/../h/tcb.hpp ****     bool finished;
  26:src/../h/../h/../h/tcb.hpp ****     bool blocked;
  27:src/../h/../h/../h/tcb.hpp ****     uint64 timeSlice;
  28:src/../h/../h/../h/tcb.hpp ****     time_t sleepingTime;
  29:src/../h/../h/../h/tcb.hpp ****     bool sleep;
  30:src/../h/../h/../h/tcb.hpp ****     void* arg;
  31:src/../h/../h/../h/tcb.hpp **** 
  32:src/../h/../h/../h/tcb.hpp ****     static void contextSwitch(Context* oldContext, Context* newContext);
  33:src/../h/../h/../h/tcb.hpp **** 
  34:src/../h/../h/../h/tcb.hpp ****     TCB(Body body, void* arg, uint64 timeSlice) :
  35:src/../h/../h/../h/tcb.hpp ****             body(body),
  36:src/../h/../h/../h/tcb.hpp ****             stack(body ? (uint64*)MemoryAllocator::mem_alloc(sizeof(uint64) * DEFAULT_STACK_SIZE) :
  37:src/../h/../h/../h/tcb.hpp ****             context({(uint64)&threadWrapper, stack ? (uint64)&stack[DEFAULT_STACK_SIZE] : 0}),
  38:src/../h/../h/../h/tcb.hpp ****             finished(false),
  39:src/../h/../h/../h/tcb.hpp ****             blocked(false),
  40:src/../h/../h/../h/tcb.hpp ****             timeSlice(timeSlice),
GAS LISTING /tmp/cc4au8fv.s 			page 10


  41:src/../h/../h/../h/tcb.hpp ****             sleepingTime(0),
  42:src/../h/../h/../h/tcb.hpp ****             sleep(false),
  43:src/../h/../h/../h/tcb.hpp ****             arg(arg)
  44:src/../h/../h/../h/tcb.hpp ****     { if (body) Scheduler::put(this); }
  45:src/../h/../h/../h/tcb.hpp **** 
  46:src/../h/../h/../h/tcb.hpp **** public:
  47:src/../h/../h/../h/tcb.hpp **** 
  48:src/../h/../h/../h/tcb.hpp ****     void* operator new(size_t size) {
  49:src/../h/../h/../h/tcb.hpp ****         return MemoryAllocator::mem_alloc(size);
  50:src/../h/../h/../h/tcb.hpp ****     }
  51:src/../h/../h/../h/tcb.hpp **** 
  52:src/../h/../h/../h/tcb.hpp ****     void* operator new[] (size_t size) {
  53:src/../h/../h/../h/tcb.hpp ****         return MemoryAllocator::mem_alloc(size);
  54:src/../h/../h/../h/tcb.hpp ****     }
  55:src/../h/../h/../h/tcb.hpp **** 
  56:src/../h/../h/../h/tcb.hpp ****     void operator delete(void* ptr) noexcept {
  57:src/../h/../h/../h/tcb.hpp ****         MemoryAllocator::mem_free(ptr);
  58:src/../h/../h/../h/tcb.hpp ****     }
  59:src/../h/../h/../h/tcb.hpp **** 
  60:src/../h/../h/../h/tcb.hpp ****     void operator delete[] (void* ptr) noexcept {
  61:src/../h/../h/../h/tcb.hpp ****         MemoryAllocator::mem_free(ptr);
  62:src/../h/../h/../h/tcb.hpp ****     }
  63:src/../h/../h/../h/tcb.hpp **** 
  64:src/../h/../h/../h/tcb.hpp ****     static TCB* createThread(Body body, void* arg, uint64 timeSlice);
  65:src/../h/../h/../h/tcb.hpp **** 
  66:src/../h/../h/../h/tcb.hpp ****     // Getter and setter for finished
  67:src/../h/../h/../h/tcb.hpp ****     bool isFinished() const { return this->finished; }
  68:src/../h/../h/../h/tcb.hpp ****     void setFinished(bool value) { this->finished = value; }
  69:src/../h/../h/../h/tcb.hpp **** 
  70:src/../h/../h/../h/tcb.hpp ****     // Getter and setter for blocked
  71:src/../h/../h/../h/tcb.hpp ****     bool isBlocked() const { return this->blocked; }
  72:src/../h/../h/../h/tcb.hpp ****     void setBlocked(bool value) { this->blocked = value; }
  73:src/../h/../h/../h/tcb.hpp **** 
  74:src/../h/../h/../h/tcb.hpp ****     // Getter for time slice
  75:src/../h/../h/../h/tcb.hpp ****     uint64 getTimeSlice() const { return this->timeSlice; }
  76:src/../h/../h/../h/tcb.hpp ****     static uint64 timeSliceCounter;
  77:src/../h/../h/../h/tcb.hpp **** 
  78:src/../h/../h/../h/tcb.hpp ****     // Sleeping getters and setters
  79:src/../h/../h/../h/tcb.hpp ****     void setSleepingTime(time_t time) { this->sleepingTime = time; }
  80:src/../h/../h/../h/tcb.hpp ****     time_t getSleepingTime() const { return this->sleepingTime; }
  81:src/../h/../h/../h/tcb.hpp **** 
  82:src/../h/../h/../h/tcb.hpp ****     void setSleep(bool val) { this->sleep = val; }
  83:src/../h/../h/../h/tcb.hpp ****     bool isSleeping() const { return this->sleep; }
  84:src/../h/../h/../h/tcb.hpp **** 
  85:src/../h/../h/../h/tcb.hpp ****     static void dispatch();
  86:src/../h/../h/../h/tcb.hpp **** 
  87:src/../h/../h/../h/tcb.hpp ****     static void threadWrapper();
  88:src/../h/../h/../h/tcb.hpp **** 
  89:src/../h/../h/../h/tcb.hpp ****     static TCB* running;
  90:src/../h/../h/../h/tcb.hpp ****     static void yield();
  91:src/../h/../h/../h/tcb.hpp **** 
  92:src/../h/../h/../h/tcb.hpp ****     ~TCB() { delete this->stack; }
 325              		.loc 3 92 14 is_stmt 1
 326              		.loc 3 92 27 is_stmt 0
 327 013c 03B58400 		ld	a0,8(s1)
 328              	.LVL20:
 329              		.loc 3 92 32
GAS LISTING /tmp/cc4au8fv.s 			page 11


 330 0140 63060500 		beqz	a0,.L20
 331              		.loc 3 92 27
 332 0144 97000000 		call	_ZdlPv
 332      E7800000 
 333              	.LVL21:
 334              	.L20:
 335              	.LBE14:
 336              	.LBE13:
 337              	.LBB15:
 338              	.LBB16:
  57:src/../h/../h/../h/tcb.hpp ****     }
 339              		.loc 3 57 9 is_stmt 1
  57:src/../h/../h/../h/tcb.hpp ****     }
 340              		.loc 3 57 34 is_stmt 0
 341 014c 13850400 		mv	a0,s1
 342 0150 97000000 		call	_ZN15MemoryAllocator8mem_freeEPv@plt
 342      E7800000 
 343              	.LVL22:
 344              	.L18:
 345              	.LBE16:
 346              	.LBE15:
 347              	.LBE12:
  41:src/syscall_cpp.cpp **** 
 348              		.loc 2 41 1
 349 0158 83308101 		ld	ra,24(sp)
 350              		.cfi_restore 1
 351 015c 03340101 		ld	s0,16(sp)
 352              		.cfi_restore 8
 353              		.cfi_def_cfa 2, 32
 354 0160 83348100 		ld	s1,8(sp)
 355              		.cfi_restore 9
 356 0164 13010102 		addi	sp,sp,32
 357              		.cfi_def_cfa_offset 0
 358 0168 67800000 		jr	ra
 359              		.cfi_endproc
 360              	.LFE76:
 361              		.section	.gcc_except_table
 362              	.LLSDA76:
 363 0008 FF       		.byte	0xff
 364 0009 FF       		.byte	0xff
 365 000a 03       		.byte	0x3
 366 000b 00       		.byte	0
 367              		.text
 369              		.globl	_ZN6ThreadD1Ev
 370              		.set	_ZN6ThreadD1Ev,_ZN6ThreadD2Ev
 371              		.section	.text._ZN14PeriodicThreadD2Ev,"axG",@progbits,_ZN14PeriodicThreadD5Ev,comdat
 372              		.align	2
 373              		.weak	_ZN14PeriodicThreadD2Ev
 375              	_ZN14PeriodicThreadD2Ev:
 376              	.LFB105:
  47:src/../h/syscall_cpp.hpp **** {
 377              		.loc 1 47 7 is_stmt 1
 378              		.cfi_startproc
 379              	.LVL23:
 380 0000 130101FF 		addi	sp,sp,-16
 381              		.cfi_def_cfa_offset 16
 382 0004 23341100 		sd	ra,8(sp)
GAS LISTING /tmp/cc4au8fv.s 			page 12


 383 0008 23308100 		sd	s0,0(sp)
 384              		.cfi_offset 1, -8
 385              		.cfi_offset 8, -16
 386 000c 13040101 		addi	s0,sp,16
 387              		.cfi_def_cfa 8, 0
 388              	.LBB17:
  47:src/../h/syscall_cpp.hpp **** {
 389              		.loc 1 47 7 is_stmt 0
 390 0010 97070000 		lla	a5,_ZTV14PeriodicThread+16
 390      93870700 
 391 0018 2330F500 		sd	a5,0(a0)
 392 001c 97000000 		call	_ZN6ThreadD2Ev
 392      E7800000 
 393              	.LVL24:
 394              	.LBE17:
 395 0024 83308100 		ld	ra,8(sp)
 396              		.cfi_restore 1
 397 0028 03340100 		ld	s0,0(sp)
 398              		.cfi_restore 8
 399              		.cfi_def_cfa 2, 16
 400 002c 13010101 		addi	sp,sp,16
 401              		.cfi_def_cfa_offset 0
 402 0030 67800000 		jr	ra
 403              		.cfi_endproc
 404              	.LFE105:
 406              		.weak	_ZN14PeriodicThreadD1Ev
 407              		.set	_ZN14PeriodicThreadD1Ev,_ZN14PeriodicThreadD2Ev
 408              		.text
 409              		.align	2
 410              		.globl	_ZN6ThreadD0Ev
 412              	_ZN6ThreadD0Ev:
 413              	.LFB78:
  39:src/syscall_cpp.cpp ****     delete this->myHandle;
 414              		.loc 2 39 1 is_stmt 1
 415              		.cfi_startproc
 416              	.LVL25:
 417 016c 130101FE 		addi	sp,sp,-32
 418              		.cfi_def_cfa_offset 32
 419 0170 233C1100 		sd	ra,24(sp)
 420 0174 23388100 		sd	s0,16(sp)
 421 0178 23349100 		sd	s1,8(sp)
 422              		.cfi_offset 1, -8
 423              		.cfi_offset 8, -16
 424              		.cfi_offset 9, -24
 425 017c 13040102 		addi	s0,sp,32
 426              		.cfi_def_cfa 8, 0
 427 0180 93040500 		mv	s1,a0
  41:src/syscall_cpp.cpp **** 
 428              		.loc 2 41 1 is_stmt 0
 429 0184 97000000 		call	_ZN6ThreadD1Ev
 429      E7800000 
 430              	.LVL26:
 431 018c 13850400 		mv	a0,s1
 432 0190 97000000 		call	_ZdlPv
 432      E7800000 
 433              	.LVL27:
 434 0198 83308101 		ld	ra,24(sp)
GAS LISTING /tmp/cc4au8fv.s 			page 13


 435              		.cfi_restore 1
 436 019c 03340101 		ld	s0,16(sp)
 437              		.cfi_restore 8
 438              		.cfi_def_cfa 2, 32
 439 01a0 83348100 		ld	s1,8(sp)
 440              		.cfi_restore 9
 441              	.LVL28:
 442 01a4 13010102 		addi	sp,sp,32
 443              		.cfi_def_cfa_offset 0
 444 01a8 67800000 		jr	ra
 445              		.cfi_endproc
 446              	.LFE78:
 448              		.align	2
 449              		.globl	_ZN9SemaphoreD0Ev
 451              	_ZN9SemaphoreD0Ev:
 452              	.LFB89:
  57:src/syscall_cpp.cpp ****     sem_close(this->myHandle);
 453              		.loc 2 57 1 is_stmt 1
 454              		.cfi_startproc
 455              	.LVL29:
 456 01ac 130101FE 		addi	sp,sp,-32
 457              		.cfi_def_cfa_offset 32
 458 01b0 233C1100 		sd	ra,24(sp)
 459 01b4 23388100 		sd	s0,16(sp)
 460 01b8 23349100 		sd	s1,8(sp)
 461              		.cfi_offset 1, -8
 462              		.cfi_offset 8, -16
 463              		.cfi_offset 9, -24
 464 01bc 13040102 		addi	s0,sp,32
 465              		.cfi_def_cfa 8, 0
 466 01c0 93040500 		mv	s1,a0
  59:src/syscall_cpp.cpp **** 
 467              		.loc 2 59 1 is_stmt 0
 468 01c4 97000000 		call	_ZN9SemaphoreD1Ev
 468      E7800000 
 469              	.LVL30:
 470 01cc 13850400 		mv	a0,s1
 471 01d0 97000000 		call	_ZdlPv
 471      E7800000 
 472              	.LVL31:
 473 01d8 83308101 		ld	ra,24(sp)
 474              		.cfi_restore 1
 475 01dc 03340101 		ld	s0,16(sp)
 476              		.cfi_restore 8
 477              		.cfi_def_cfa 2, 32
 478 01e0 83348100 		ld	s1,8(sp)
 479              		.cfi_restore 9
 480              	.LVL32:
 481 01e4 13010102 		addi	sp,sp,32
 482              		.cfi_def_cfa_offset 0
 483 01e8 67800000 		jr	ra
 484              		.cfi_endproc
 485              	.LFE89:
 487              		.section	.text._ZN14PeriodicThreadD0Ev,"axG",@progbits,_ZN14PeriodicThreadD5Ev,comdat
 488              		.align	2
 489              		.weak	_ZN14PeriodicThreadD0Ev
 491              	_ZN14PeriodicThreadD0Ev:
GAS LISTING /tmp/cc4au8fv.s 			page 14


 492              	.LFB107:
  47:src/../h/syscall_cpp.hpp **** {
 493              		.loc 1 47 7 is_stmt 1
 494              		.cfi_startproc
 495              	.LVL33:
 496 0000 130101FE 		addi	sp,sp,-32
 497              		.cfi_def_cfa_offset 32
 498 0004 233C1100 		sd	ra,24(sp)
 499 0008 23388100 		sd	s0,16(sp)
 500 000c 23349100 		sd	s1,8(sp)
 501              		.cfi_offset 1, -8
 502              		.cfi_offset 8, -16
 503              		.cfi_offset 9, -24
 504 0010 13040102 		addi	s0,sp,32
 505              		.cfi_def_cfa 8, 0
 506 0014 93040500 		mv	s1,a0
 507              	.LVL34:
 508              	.LBB18:
 509              	.LBB19:
  47:src/../h/syscall_cpp.hpp **** {
 510              		.loc 1 47 7 is_stmt 0
 511 0018 97070000 		lla	a5,_ZTV14PeriodicThread+16
 511      93870700 
 512 0020 2330F500 		sd	a5,0(a0)
 513 0024 97000000 		call	_ZN6ThreadD2Ev
 513      E7800000 
 514              	.LVL35:
 515              	.LBE19:
 516              	.LBE18:
 517 002c 13850400 		mv	a0,s1
 518 0030 97000000 		call	_ZdlPv
 518      E7800000 
 519              	.LVL36:
 520 0038 83308101 		ld	ra,24(sp)
 521              		.cfi_restore 1
 522 003c 03340101 		ld	s0,16(sp)
 523              		.cfi_restore 8
 524              		.cfi_def_cfa 2, 32
 525 0040 83348100 		ld	s1,8(sp)
 526              		.cfi_restore 9
 527              	.LVL37:
 528 0044 13010102 		addi	sp,sp,32
 529              		.cfi_def_cfa_offset 0
 530 0048 67800000 		jr	ra
 531              		.cfi_endproc
 532              	.LFE107:
 534              		.text
 535              		.align	2
 536              		.globl	_ZdaPv
 538              	_ZdaPv:
 539              	.LFB68:
  15:src/syscall_cpp.cpp ****     mem_free(ptr);
 540              		.loc 2 15 45 is_stmt 1
 541              		.cfi_startproc
 542              		.cfi_personality 0x9b,DW.ref.__gxx_personality_v0
 543              		.cfi_lsda 0x1b,.LLSDA68
 544              	.LVL38:
GAS LISTING /tmp/cc4au8fv.s 			page 15


 545 01ec 130101FF 		addi	sp,sp,-16
 546              		.cfi_def_cfa_offset 16
 547 01f0 23341100 		sd	ra,8(sp)
 548 01f4 23308100 		sd	s0,0(sp)
 549              		.cfi_offset 1, -8
 550              		.cfi_offset 8, -16
 551 01f8 13040101 		addi	s0,sp,16
 552              		.cfi_def_cfa 8, 0
  16:src/syscall_cpp.cpp **** }
 553              		.loc 2 16 5
  16:src/syscall_cpp.cpp **** }
 554              		.loc 2 16 13 is_stmt 0
 555 01fc 97000000 		call	_Z8mem_freePv@plt
 555      E7800000 
 556              	.LVL39:
  17:src/syscall_cpp.cpp **** 
 557              		.loc 2 17 1
 558 0204 83308100 		ld	ra,8(sp)
 559              		.cfi_restore 1
 560 0208 03340100 		ld	s0,0(sp)
 561              		.cfi_restore 8
 562              		.cfi_def_cfa 2, 16
 563 020c 13010101 		addi	sp,sp,16
 564              		.cfi_def_cfa_offset 0
 565 0210 67800000 		jr	ra
 566              		.cfi_endproc
 567              	.LFE68:
 568              		.section	.gcc_except_table
 569              	.LLSDA68:
 570 000c FF       		.byte	0xff
 571 000d FF       		.byte	0xff
 572 000e 03       		.byte	0x3
 573 000f 00       		.byte	0
 574              		.text
 576              		.align	2
 577              		.globl	_ZN6ThreadC2EPFvPvES0_
 579              	_ZN6ThreadC2EPFvPvES0_:
 580              	.LFB70:
  19:src/syscall_cpp.cpp ****     this->body = body;
 581              		.loc 2 19 1 is_stmt 1
 582              		.cfi_startproc
 583              	.LVL40:
 584 0214 130101FF 		addi	sp,sp,-16
 585              		.cfi_def_cfa_offset 16
 586 0218 23348100 		sd	s0,8(sp)
 587              		.cfi_offset 8, -8
 588 021c 13040101 		addi	s0,sp,16
 589              		.cfi_def_cfa 8, 0
 590              	.LBB20:
  19:src/syscall_cpp.cpp ****     this->body = body;
 591              		.loc 2 19 47 is_stmt 0
 592 0220 97070000 		lla	a5,_ZTV6Thread+16
 592      93870700 
 593 0228 2330F500 		sd	a5,0(a0)
  20:src/syscall_cpp.cpp ****     this->arg = arg;
 594              		.loc 2 20 5 is_stmt 1
  20:src/syscall_cpp.cpp ****     this->arg = arg;
GAS LISTING /tmp/cc4au8fv.s 			page 16


 595              		.loc 2 20 16 is_stmt 0
 596 022c 2338B500 		sd	a1,16(a0)
  21:src/syscall_cpp.cpp **** }
 597              		.loc 2 21 5 is_stmt 1
  21:src/syscall_cpp.cpp **** }
 598              		.loc 2 21 15 is_stmt 0
 599 0230 233CC500 		sd	a2,24(a0)
 600              	.LBE20:
  22:src/syscall_cpp.cpp **** 
 601              		.loc 2 22 1
 602 0234 03348100 		ld	s0,8(sp)
 603              		.cfi_restore 8
 604              		.cfi_def_cfa 2, 16
 605 0238 13010101 		addi	sp,sp,16
 606              		.cfi_def_cfa_offset 0
 607 023c 67800000 		jr	ra
 608              		.cfi_endproc
 609              	.LFE70:
 611              		.globl	_ZN6ThreadC1EPFvPvES0_
 612              		.set	_ZN6ThreadC1EPFvPvES0_,_ZN6ThreadC2EPFvPvES0_
 613              		.align	2
 614              		.globl	_ZN6Thread5startEv
 616              	_ZN6Thread5startEv:
 617              	.LFB72:
  24:src/syscall_cpp.cpp ****     if (body)
 618              		.loc 2 24 21 is_stmt 1
 619              		.cfi_startproc
 620              	.LVL41:
 621 0240 130101FF 		addi	sp,sp,-16
 622              		.cfi_def_cfa_offset 16
 623 0244 23341100 		sd	ra,8(sp)
 624 0248 23308100 		sd	s0,0(sp)
 625              		.cfi_offset 1, -8
 626              		.cfi_offset 8, -16
 627 024c 13040101 		addi	s0,sp,16
 628              		.cfi_def_cfa 8, 0
  25:src/syscall_cpp.cpp ****         return thread_create(&this->myHandle, this->body, this->arg);
 629              		.loc 2 25 5
  25:src/syscall_cpp.cpp ****         return thread_create(&this->myHandle, this->body, this->arg);
 630              		.loc 2 25 9 is_stmt 0
 631 0250 83350501 		ld	a1,16(a0)
  25:src/syscall_cpp.cpp ****         return thread_create(&this->myHandle, this->body, this->arg);
 632              		.loc 2 25 5
 633 0254 63820502 		beqz	a1,.L35
  26:src/syscall_cpp.cpp ****     else
 634              		.loc 2 26 9 is_stmt 1
  26:src/syscall_cpp.cpp ****     else
 635              		.loc 2 26 29 is_stmt 0
 636 0258 03368501 		ld	a2,24(a0)
 637 025c 13058500 		addi	a0,a0,8
 638              	.LVL42:
 639 0260 97000000 		call	_Z13thread_createPP3TCBPFvPvES2_@plt
 639      E7800000 
 640              	.LVL43:
 641              	.L36:
  29:src/syscall_cpp.cpp **** 
 642              		.loc 2 29 1
GAS LISTING /tmp/cc4au8fv.s 			page 17


 643 0268 83308100 		ld	ra,8(sp)
 644              		.cfi_remember_state
 645              		.cfi_restore 1
 646 026c 03340100 		ld	s0,0(sp)
 647              		.cfi_restore 8
 648              		.cfi_def_cfa 2, 16
 649 0270 13010101 		addi	sp,sp,16
 650              		.cfi_def_cfa_offset 0
 651 0274 67800000 		jr	ra
 652              	.LVL44:
 653              	.L35:
 654              		.cfi_restore_state
  28:src/syscall_cpp.cpp **** }
 655              		.loc 2 28 9 is_stmt 1
  28:src/syscall_cpp.cpp **** }
 656              		.loc 2 28 29 is_stmt 0
 657 0278 13060500 		mv	a2,a0
 658 027c 97050000 		lla	a1,_ZN6Thread7wrapperEPv
 658      93850500 
 659 0284 13058500 		addi	a0,a0,8
 660              	.LVL45:
 661 0288 97000000 		call	_Z13thread_createPP3TCBPFvPvES2_@plt
 661      E7800000 
 662              	.LVL46:
  28:src/syscall_cpp.cpp **** }
 663              		.loc 2 28 60
 664 0290 6FF09FFD 		j	.L36
 665              		.cfi_endproc
 666              	.LFE72:
 668              		.align	2
 669              		.globl	_ZN6Thread8dispatchEv
 671              	_ZN6Thread8dispatchEv:
 672              	.LFB73:
  31:src/syscall_cpp.cpp ****     thread_dispatch();
 673              		.loc 2 31 25 is_stmt 1
 674              		.cfi_startproc
 675 0294 130101FF 		addi	sp,sp,-16
 676              		.cfi_def_cfa_offset 16
 677 0298 23341100 		sd	ra,8(sp)
 678 029c 23308100 		sd	s0,0(sp)
 679              		.cfi_offset 1, -8
 680              		.cfi_offset 8, -16
 681 02a0 13040101 		addi	s0,sp,16
 682              		.cfi_def_cfa 8, 0
  32:src/syscall_cpp.cpp **** }
 683              		.loc 2 32 5
  32:src/syscall_cpp.cpp **** }
 684              		.loc 2 32 20 is_stmt 0
 685 02a4 97000000 		call	_Z15thread_dispatchv@plt
 685      E7800000 
 686              	.LVL47:
  33:src/syscall_cpp.cpp **** 
 687              		.loc 2 33 1
 688 02ac 83308100 		ld	ra,8(sp)
 689              		.cfi_restore 1
 690 02b0 03340100 		ld	s0,0(sp)
 691              		.cfi_restore 8
GAS LISTING /tmp/cc4au8fv.s 			page 18


 692              		.cfi_def_cfa 2, 16
 693 02b4 13010101 		addi	sp,sp,16
 694              		.cfi_def_cfa_offset 0
 695 02b8 67800000 		jr	ra
 696              		.cfi_endproc
 697              	.LFE73:
 699              		.align	2
 700              		.globl	_ZN6Thread5sleepEm
 702              	_ZN6Thread5sleepEm:
 703              	.LFB74:
  35:src/syscall_cpp.cpp ****     return time_sleep(time);
 704              		.loc 2 35 32 is_stmt 1
 705              		.cfi_startproc
 706              	.LVL48:
 707 02bc 130101FF 		addi	sp,sp,-16
 708              		.cfi_def_cfa_offset 16
 709 02c0 23341100 		sd	ra,8(sp)
 710 02c4 23308100 		sd	s0,0(sp)
 711              		.cfi_offset 1, -8
 712              		.cfi_offset 8, -16
 713 02c8 13040101 		addi	s0,sp,16
 714              		.cfi_def_cfa 8, 0
  36:src/syscall_cpp.cpp **** }
 715              		.loc 2 36 5
  36:src/syscall_cpp.cpp **** }
 716              		.loc 2 36 22 is_stmt 0
 717 02cc 97000000 		call	_Z10time_sleepm@plt
 717      E7800000 
 718              	.LVL49:
  37:src/syscall_cpp.cpp **** 
 719              		.loc 2 37 1
 720 02d4 83308100 		ld	ra,8(sp)
 721              		.cfi_restore 1
 722 02d8 03340100 		ld	s0,0(sp)
 723              		.cfi_restore 8
 724              		.cfi_def_cfa 2, 16
 725 02dc 13010101 		addi	sp,sp,16
 726              		.cfi_def_cfa_offset 0
 727 02e0 67800000 		jr	ra
 728              		.cfi_endproc
 729              	.LFE74:
 731              		.align	2
 732              		.globl	_ZN6ThreadC2Ev
 734              	_ZN6ThreadC2Ev:
 735              	.LFB80:
  43:src/syscall_cpp.cpp ****     this->body = nullptr;
 736              		.loc 2 43 1 is_stmt 1
 737              		.cfi_startproc
 738              	.LVL50:
 739 02e4 130101FF 		addi	sp,sp,-16
 740              		.cfi_def_cfa_offset 16
 741 02e8 23348100 		sd	s0,8(sp)
 742              		.cfi_offset 8, -8
 743 02ec 13040101 		addi	s0,sp,16
 744              		.cfi_def_cfa 8, 0
 745              	.LBB21:
  43:src/syscall_cpp.cpp ****     this->body = nullptr;
GAS LISTING /tmp/cc4au8fv.s 			page 19


 746              		.loc 2 43 16 is_stmt 0
 747 02f0 97070000 		lla	a5,_ZTV6Thread+16
 747      93870700 
 748 02f8 2330F500 		sd	a5,0(a0)
  44:src/syscall_cpp.cpp ****     this->arg = nullptr;
 749              		.loc 2 44 5 is_stmt 1
  44:src/syscall_cpp.cpp ****     this->arg = nullptr;
 750              		.loc 2 44 16 is_stmt 0
 751 02fc 23380500 		sd	zero,16(a0)
  45:src/syscall_cpp.cpp **** }
 752              		.loc 2 45 5 is_stmt 1
  45:src/syscall_cpp.cpp **** }
 753              		.loc 2 45 15 is_stmt 0
 754 0300 233C0500 		sd	zero,24(a0)
 755              	.LBE21:
  46:src/syscall_cpp.cpp **** 
 756              		.loc 2 46 1
 757 0304 03348100 		ld	s0,8(sp)
 758              		.cfi_restore 8
 759              		.cfi_def_cfa 2, 16
 760 0308 13010101 		addi	sp,sp,16
 761              		.cfi_def_cfa_offset 0
 762 030c 67800000 		jr	ra
 763              		.cfi_endproc
 764              	.LFE80:
 766              		.globl	_ZN6ThreadC1Ev
 767              		.set	_ZN6ThreadC1Ev,_ZN6ThreadC2Ev
 768              		.align	2
 769              		.globl	_ZN9SemaphoreC2Ej
 771              	_ZN9SemaphoreC2Ej:
 772              	.LFB84:
  53:src/syscall_cpp.cpp ****     sem_open(&this->myHandle, init);
 773              		.loc 2 53 1 is_stmt 1
 774              		.cfi_startproc
 775              	.LVL51:
 776 0310 130101FF 		addi	sp,sp,-16
 777              		.cfi_def_cfa_offset 16
 778 0314 23341100 		sd	ra,8(sp)
 779 0318 23308100 		sd	s0,0(sp)
 780              		.cfi_offset 1, -8
 781              		.cfi_offset 8, -16
 782 031c 13040101 		addi	s0,sp,16
 783              		.cfi_def_cfa 8, 0
 784              	.LBB22:
  53:src/syscall_cpp.cpp ****     sem_open(&this->myHandle, init);
 785              		.loc 2 53 39 is_stmt 0
 786 0320 97070000 		lla	a5,_ZTV9Semaphore+16
 786      93870700 
 787 0328 2330F500 		sd	a5,0(a0)
  54:src/syscall_cpp.cpp **** }
 788              		.loc 2 54 5 is_stmt 1
  54:src/syscall_cpp.cpp **** }
 789              		.loc 2 54 13 is_stmt 0
 790 032c 13058500 		addi	a0,a0,8
 791              	.LVL52:
 792 0330 97000000 		call	_Z8sem_openPP10_Semaphorej@plt
 792      E7800000 
GAS LISTING /tmp/cc4au8fv.s 			page 20


 793              	.LVL53:
 794              	.LBE22:
  55:src/syscall_cpp.cpp **** 
 795              		.loc 2 55 1
 796 0338 83308100 		ld	ra,8(sp)
 797              		.cfi_restore 1
 798 033c 03340100 		ld	s0,0(sp)
 799              		.cfi_restore 8
 800              		.cfi_def_cfa 2, 16
 801 0340 13010101 		addi	sp,sp,16
 802              		.cfi_def_cfa_offset 0
 803 0344 67800000 		jr	ra
 804              		.cfi_endproc
 805              	.LFE84:
 807              		.globl	_ZN9SemaphoreC1Ej
 808              		.set	_ZN9SemaphoreC1Ej,_ZN9SemaphoreC2Ej
 809              		.align	2
 810              		.globl	_ZN9Semaphore4waitEv
 812              	_ZN9Semaphore4waitEv:
 813              	.LFB90:
  61:src/syscall_cpp.cpp ****     return sem_wait(this->myHandle);
 814              		.loc 2 61 23 is_stmt 1
 815              		.cfi_startproc
 816              	.LVL54:
 817 0348 130101FF 		addi	sp,sp,-16
 818              		.cfi_def_cfa_offset 16
 819 034c 23341100 		sd	ra,8(sp)
 820 0350 23308100 		sd	s0,0(sp)
 821              		.cfi_offset 1, -8
 822              		.cfi_offset 8, -16
 823 0354 13040101 		addi	s0,sp,16
 824              		.cfi_def_cfa 8, 0
  62:src/syscall_cpp.cpp **** }
 825              		.loc 2 62 5
  62:src/syscall_cpp.cpp **** }
 826              		.loc 2 62 20 is_stmt 0
 827 0358 03358500 		ld	a0,8(a0)
 828              	.LVL55:
 829 035c 97000000 		call	_Z8sem_waitP10_Semaphore@plt
 829      E7800000 
 830              	.LVL56:
  63:src/syscall_cpp.cpp **** 
 831              		.loc 2 63 1
 832 0364 83308100 		ld	ra,8(sp)
 833              		.cfi_restore 1
 834 0368 03340100 		ld	s0,0(sp)
 835              		.cfi_restore 8
 836              		.cfi_def_cfa 2, 16
 837 036c 13010101 		addi	sp,sp,16
 838              		.cfi_def_cfa_offset 0
 839 0370 67800000 		jr	ra
 840              		.cfi_endproc
 841              	.LFE90:
 843              		.align	2
 844              		.globl	_ZN9Semaphore6signalEv
 846              	_ZN9Semaphore6signalEv:
 847              	.LFB91:
GAS LISTING /tmp/cc4au8fv.s 			page 21


  65:src/syscall_cpp.cpp ****     return sem_signal(this->myHandle);
 848              		.loc 2 65 25 is_stmt 1
 849              		.cfi_startproc
 850              	.LVL57:
 851 0374 130101FF 		addi	sp,sp,-16
 852              		.cfi_def_cfa_offset 16
 853 0378 23341100 		sd	ra,8(sp)
 854 037c 23308100 		sd	s0,0(sp)
 855              		.cfi_offset 1, -8
 856              		.cfi_offset 8, -16
 857 0380 13040101 		addi	s0,sp,16
 858              		.cfi_def_cfa 8, 0
  66:src/syscall_cpp.cpp **** }
 859              		.loc 2 66 5
  66:src/syscall_cpp.cpp **** }
 860              		.loc 2 66 22 is_stmt 0
 861 0384 03358500 		ld	a0,8(a0)
 862              	.LVL58:
 863 0388 97000000 		call	_Z10sem_signalP10_Semaphore@plt
 863      E7800000 
 864              	.LVL59:
  67:src/syscall_cpp.cpp **** 
 865              		.loc 2 67 1
 866 0390 83308100 		ld	ra,8(sp)
 867              		.cfi_restore 1
 868 0394 03340100 		ld	s0,0(sp)
 869              		.cfi_restore 8
 870              		.cfi_def_cfa 2, 16
 871 0398 13010101 		addi	sp,sp,16
 872              		.cfi_def_cfa_offset 0
 873 039c 67800000 		jr	ra
 874              		.cfi_endproc
 875              	.LFE91:
 877              		.align	2
 878              		.globl	_ZN9Semaphore9timedWaitEm
 880              	_ZN9Semaphore9timedWaitEm:
 881              	.LFB92:
  69:src/syscall_cpp.cpp ****     return sem_timedwait(this->myHandle, time);
 882              		.loc 2 69 39 is_stmt 1
 883              		.cfi_startproc
 884              	.LVL60:
 885 03a0 130101FF 		addi	sp,sp,-16
 886              		.cfi_def_cfa_offset 16
 887 03a4 23341100 		sd	ra,8(sp)
 888 03a8 23308100 		sd	s0,0(sp)
 889              		.cfi_offset 1, -8
 890              		.cfi_offset 8, -16
 891 03ac 13040101 		addi	s0,sp,16
 892              		.cfi_def_cfa 8, 0
  70:src/syscall_cpp.cpp **** }
 893              		.loc 2 70 5
  70:src/syscall_cpp.cpp **** }
 894              		.loc 2 70 25 is_stmt 0
 895 03b0 03358500 		ld	a0,8(a0)
 896              	.LVL61:
 897 03b4 97000000 		call	_Z13sem_timedwaitP10_Semaphorem@plt
 897      E7800000 
GAS LISTING /tmp/cc4au8fv.s 			page 22


 898              	.LVL62:
  71:src/syscall_cpp.cpp **** 
 899              		.loc 2 71 1
 900 03bc 83308100 		ld	ra,8(sp)
 901              		.cfi_restore 1
 902 03c0 03340100 		ld	s0,0(sp)
 903              		.cfi_restore 8
 904              		.cfi_def_cfa 2, 16
 905 03c4 13010101 		addi	sp,sp,16
 906              		.cfi_def_cfa_offset 0
 907 03c8 67800000 		jr	ra
 908              		.cfi_endproc
 909              	.LFE92:
 911              		.align	2
 912              		.globl	_ZN9Semaphore7tryWaitEv
 914              	_ZN9Semaphore7tryWaitEv:
 915              	.LFB93:
  73:src/syscall_cpp.cpp ****     return sem_trywait(this->myHandle);
 916              		.loc 2 73 26 is_stmt 1
 917              		.cfi_startproc
 918              	.LVL63:
 919 03cc 130101FF 		addi	sp,sp,-16
 920              		.cfi_def_cfa_offset 16
 921 03d0 23341100 		sd	ra,8(sp)
 922 03d4 23308100 		sd	s0,0(sp)
 923              		.cfi_offset 1, -8
 924              		.cfi_offset 8, -16
 925 03d8 13040101 		addi	s0,sp,16
 926              		.cfi_def_cfa 8, 0
  74:src/syscall_cpp.cpp **** }
 927              		.loc 2 74 5
  74:src/syscall_cpp.cpp **** }
 928              		.loc 2 74 23 is_stmt 0
 929 03dc 03358500 		ld	a0,8(a0)
 930              	.LVL64:
 931 03e0 97000000 		call	_Z11sem_trywaitP10_Semaphore@plt
 931      E7800000 
 932              	.LVL65:
  75:src/syscall_cpp.cpp **** 
 933              		.loc 2 75 1
 934 03e8 83308100 		ld	ra,8(sp)
 935              		.cfi_restore 1
 936 03ec 03340100 		ld	s0,0(sp)
 937              		.cfi_restore 8
 938              		.cfi_def_cfa 2, 16
 939 03f0 13010101 		addi	sp,sp,16
 940              		.cfi_def_cfa_offset 0
 941 03f4 67800000 		jr	ra
 942              		.cfi_endproc
 943              	.LFE93:
 945              		.align	2
 946              		.globl	_ZN14PeriodicThreadC2Em
 948              	_ZN14PeriodicThreadC2Em:
 949              	.LFB95:
  77:src/syscall_cpp.cpp **** 
 950              		.loc 2 77 1 is_stmt 1
 951              		.cfi_startproc
GAS LISTING /tmp/cc4au8fv.s 			page 23


 952              	.LVL66:
 953 03f8 130101FE 		addi	sp,sp,-32
 954              		.cfi_def_cfa_offset 32
 955 03fc 233C1100 		sd	ra,24(sp)
 956 0400 23388100 		sd	s0,16(sp)
 957 0404 23349100 		sd	s1,8(sp)
 958 0408 23302101 		sd	s2,0(sp)
 959              		.cfi_offset 1, -8
 960              		.cfi_offset 8, -16
 961              		.cfi_offset 9, -24
 962              		.cfi_offset 18, -32
 963 040c 13040102 		addi	s0,sp,32
 964              		.cfi_def_cfa 8, 0
 965 0410 93040500 		mv	s1,a0
 966 0414 13890500 		mv	s2,a1
 967              	.LBB23:
  77:src/syscall_cpp.cpp **** 
 968              		.loc 2 77 62 is_stmt 0
 969 0418 97000000 		call	_ZN6ThreadC2Ev
 969      E7800000 
 970              	.LVL67:
 971 0420 97070000 		lla	a5,_ZTV14PeriodicThread+16
 971      93870700 
 972 0428 23B0F400 		sd	a5,0(s1)
 973 042c 23B02403 		sd	s2,32(s1)
 974              	.LBE23:
  77:src/syscall_cpp.cpp **** 
 975              		.loc 2 77 65
 976 0430 83308101 		ld	ra,24(sp)
 977              		.cfi_restore 1
 978 0434 03340101 		ld	s0,16(sp)
 979              		.cfi_restore 8
 980              		.cfi_def_cfa 2, 32
 981 0438 83348100 		ld	s1,8(sp)
 982              		.cfi_restore 9
 983              	.LVL68:
 984 043c 03390100 		ld	s2,0(sp)
 985              		.cfi_restore 18
 986              	.LVL69:
 987 0440 13010102 		addi	sp,sp,32
 988              		.cfi_def_cfa_offset 0
 989 0444 67800000 		jr	ra
 990              		.cfi_endproc
 991              	.LFE95:
 993              		.globl	_ZN14PeriodicThreadC1Em
 994              		.set	_ZN14PeriodicThreadC1Em,_ZN14PeriodicThreadC2Em
 995              		.align	2
 996              		.globl	_ZN14PeriodicThread9terminateEv
 998              	_ZN14PeriodicThread9terminateEv:
 999              	.LFB98:
  83:src/syscall_cpp.cpp ****     }
  84:src/syscall_cpp.cpp **** }
  85:src/syscall_cpp.cpp **** 
  86:src/syscall_cpp.cpp **** void PeriodicThread::terminate() {
 1000              		.loc 2 86 34 is_stmt 1
 1001              		.cfi_startproc
 1002              	.LVL70:
GAS LISTING /tmp/cc4au8fv.s 			page 24


 1003 0448 130101FF 		addi	sp,sp,-16
 1004              		.cfi_def_cfa_offset 16
 1005 044c 23341100 		sd	ra,8(sp)
 1006 0450 23308100 		sd	s0,0(sp)
 1007              		.cfi_offset 1, -8
 1008              		.cfi_offset 8, -16
 1009 0454 13040101 		addi	s0,sp,16
 1010              		.cfi_def_cfa 8, 0
  87:src/syscall_cpp.cpp ****     thread_exit();
 1011              		.loc 2 87 5
 1012              		.loc 2 87 16 is_stmt 0
 1013 0458 97000000 		call	_Z11thread_exitv@plt
 1013      E7800000 
 1014              	.LVL71:
  88:src/syscall_cpp.cpp **** }
 1015              		.loc 2 88 1
 1016 0460 83308100 		ld	ra,8(sp)
 1017              		.cfi_restore 1
 1018 0464 03340100 		ld	s0,0(sp)
 1019              		.cfi_restore 8
 1020              		.cfi_def_cfa 2, 16
 1021 0468 13010101 		addi	sp,sp,16
 1022              		.cfi_def_cfa_offset 0
 1023 046c 67800000 		jr	ra
 1024              		.cfi_endproc
 1025              	.LFE98:
 1027              		.align	2
 1028              		.globl	_ZN7Console4getcEv
 1030              	_ZN7Console4getcEv:
 1031              	.LFB99:
  89:src/syscall_cpp.cpp **** 
  90:src/syscall_cpp.cpp **** char Console::getc() {
 1032              		.loc 2 90 22 is_stmt 1
 1033              		.cfi_startproc
 1034 0470 130101FF 		addi	sp,sp,-16
 1035              		.cfi_def_cfa_offset 16
 1036 0474 23341100 		sd	ra,8(sp)
 1037 0478 23308100 		sd	s0,0(sp)
 1038              		.cfi_offset 1, -8
 1039              		.cfi_offset 8, -16
 1040 047c 13040101 		addi	s0,sp,16
 1041              		.cfi_def_cfa 8, 0
  91:src/syscall_cpp.cpp ****     return ::getc();
 1042              		.loc 2 91 5
 1043              		.loc 2 91 18 is_stmt 0
 1044 0480 97000000 		call	_Z4getcv@plt
 1044      E7800000 
 1045              	.LVL72:
  92:src/syscall_cpp.cpp **** }
 1046              		.loc 2 92 1
 1047 0488 83308100 		ld	ra,8(sp)
 1048              		.cfi_restore 1
 1049 048c 03340100 		ld	s0,0(sp)
 1050              		.cfi_restore 8
 1051              		.cfi_def_cfa 2, 16
 1052 0490 13010101 		addi	sp,sp,16
 1053              		.cfi_def_cfa_offset 0
GAS LISTING /tmp/cc4au8fv.s 			page 25


 1054 0494 67800000 		jr	ra
 1055              		.cfi_endproc
 1056              	.LFE99:
 1058              		.align	2
 1059              		.globl	_ZN7Console4putcEc
 1061              	_ZN7Console4putcEc:
 1062              	.LFB100:
  93:src/syscall_cpp.cpp **** 
  94:src/syscall_cpp.cpp **** void Console::putc(char c) {
 1063              		.loc 2 94 28 is_stmt 1
 1064              		.cfi_startproc
 1065              	.LVL73:
 1066 0498 130101FF 		addi	sp,sp,-16
 1067              		.cfi_def_cfa_offset 16
 1068 049c 23341100 		sd	ra,8(sp)
 1069 04a0 23308100 		sd	s0,0(sp)
 1070              		.cfi_offset 1, -8
 1071              		.cfi_offset 8, -16
 1072 04a4 13040101 		addi	s0,sp,16
 1073              		.cfi_def_cfa 8, 0
  95:src/syscall_cpp.cpp ****     ::putc(c);
 1074              		.loc 2 95 5
 1075              		.loc 2 95 11 is_stmt 0
 1076 04a8 97000000 		call	_Z4putcc@plt
 1076      E7800000 
 1077              	.LVL74:
  96:src/syscall_cpp.cpp **** }
 1078              		.loc 2 96 1
 1079 04b0 83308100 		ld	ra,8(sp)
 1080              		.cfi_restore 1
 1081 04b4 03340100 		ld	s0,0(sp)
 1082              		.cfi_restore 8
 1083              		.cfi_def_cfa 2, 16
 1084 04b8 13010101 		addi	sp,sp,16
 1085              		.cfi_def_cfa_offset 0
 1086 04bc 67800000 		jr	ra
 1087              		.cfi_endproc
 1088              	.LFE100:
 1090              		.weak	_ZTV6Thread
 1091              		.section	.data.rel.ro.local._ZTV6Thread,"awG",@progbits,_ZTV6Thread,comdat
 1092              		.align	3
 1095              	_ZTV6Thread:
 1096 0000 00000000 		.dword	0
 1096      00000000 
 1097 0008 00000000 		.dword	0
 1097      00000000 
 1098 0010 00000000 		.dword	_ZN6ThreadD1Ev
 1098      00000000 
 1099 0018 00000000 		.dword	_ZN6ThreadD0Ev
 1099      00000000 
 1100 0020 00000000 		.dword	_ZN6Thread3runEv
 1100      00000000 
 1101              		.weak	_ZTV9Semaphore
 1102              		.section	.data.rel.ro.local._ZTV9Semaphore,"awG",@progbits,_ZTV9Semaphore,comdat
 1103              		.align	3
 1106              	_ZTV9Semaphore:
 1107 0000 00000000 		.dword	0
GAS LISTING /tmp/cc4au8fv.s 			page 26


 1107      00000000 
 1108 0008 00000000 		.dword	0
 1108      00000000 
 1109 0010 00000000 		.dword	_ZN9SemaphoreD1Ev
 1109      00000000 
 1110 0018 00000000 		.dword	_ZN9SemaphoreD0Ev
 1110      00000000 
 1111              		.weak	_ZTV14PeriodicThread
 1112              		.section	.data.rel.ro.local._ZTV14PeriodicThread,"awG",@progbits,_ZTV14PeriodicThread,comdat
 1113              		.align	3
 1116              	_ZTV14PeriodicThread:
 1117 0000 00000000 		.dword	0
 1117      00000000 
 1118 0008 00000000 		.dword	0
 1118      00000000 
 1119 0010 00000000 		.dword	_ZN14PeriodicThreadD1Ev
 1119      00000000 
 1120 0018 00000000 		.dword	_ZN14PeriodicThreadD0Ev
 1120      00000000 
 1121 0020 00000000 		.dword	_ZN14PeriodicThread3runEv
 1121      00000000 
 1122 0028 00000000 		.dword	_ZN14PeriodicThread18periodicActivationEv
 1122      00000000 
 1123              		.text
 1124              	.Letext0:
 1125              		.file 4 "src/../h/../h/../lib/hw.h"
 1126              		.file 5 "src/../h/../h/../h/../h/../h/memory_allocator.hpp"
 1127              		.file 6 "src/../h/../h/../h/../h/list.hpp"
 1128              		.file 7 "src/../h/../h/../h/../h/wait_list.hpp"
 1129              		.file 8 "src/../h/../h/../h/semaphore.hpp"
 1130              		.file 9 "src/../h/../h/syscall_c.hpp"
 5874              		.align	3
 5877              	DW.ref.__gxx_personality_v0:
 5878 0000 00000000 		.dword	__gxx_personality_v0
 5878      00000000 
 5879              		.ident	"GCC: (Ubuntu 9.4.0-1ubuntu1~20.04) 9.4.0"
 5880              		.section	.note.GNU-stack,"",@progbits
GAS LISTING /tmp/cc4au8fv.s 			page 27


DEFINED SYMBOLS
                            *ABS*:0000000000000000 syscall_cpp.cpp
     /tmp/cc4au8fv.s:10     .text._ZN6Thread3runEv:0000000000000000 _ZN6Thread3runEv
     /tmp/cc4au8fv.s:14     .text._ZN6Thread3runEv:0000000000000000 .L0 
     /tmp/cc4au8fv.s:16     .text._ZN6Thread3runEv:0000000000000000 .L0 
     /tmp/cc4au8fv.s:17     .text._ZN6Thread3runEv:0000000000000004 .L0 
     /tmp/cc4au8fv.s:19     .text._ZN6Thread3runEv:0000000000000008 .L0 
     /tmp/cc4au8fv.s:21     .text._ZN6Thread3runEv:000000000000000c .L0 
     /tmp/cc4au8fv.s:23     .text._ZN6Thread3runEv:000000000000000c .L0 
     /tmp/cc4au8fv.s:24     .text._ZN6Thread3runEv:0000000000000010 .L0 
     /tmp/cc4au8fv.s:25     .text._ZN6Thread3runEv:0000000000000010 .L0 
     /tmp/cc4au8fv.s:27     .text._ZN6Thread3runEv:0000000000000014 .L0 
     /tmp/cc4au8fv.s:29     .text._ZN6Thread3runEv:0000000000000018 .L0 
     /tmp/cc4au8fv.s:36     .text._ZN14PeriodicThread18periodicActivationEv:0000000000000000 _ZN14PeriodicThread18periodicActivationEv
     /tmp/cc4au8fv.s:39     .text._ZN14PeriodicThread18periodicActivationEv:0000000000000000 .L0 
     /tmp/cc4au8fv.s:41     .text._ZN14PeriodicThread18periodicActivationEv:0000000000000000 .L0 
     /tmp/cc4au8fv.s:42     .text._ZN14PeriodicThread18periodicActivationEv:0000000000000004 .L0 
     /tmp/cc4au8fv.s:44     .text._ZN14PeriodicThread18periodicActivationEv:0000000000000008 .L0 
     /tmp/cc4au8fv.s:46     .text._ZN14PeriodicThread18periodicActivationEv:000000000000000c .L0 
     /tmp/cc4au8fv.s:48     .text._ZN14PeriodicThread18periodicActivationEv:000000000000000c .L0 
     /tmp/cc4au8fv.s:49     .text._ZN14PeriodicThread18periodicActivationEv:0000000000000010 .L0 
     /tmp/cc4au8fv.s:50     .text._ZN14PeriodicThread18periodicActivationEv:0000000000000010 .L0 
     /tmp/cc4au8fv.s:52     .text._ZN14PeriodicThread18periodicActivationEv:0000000000000014 .L0 
     /tmp/cc4au8fv.s:54     .text._ZN14PeriodicThread18periodicActivationEv:0000000000000018 .L0 
     /tmp/cc4au8fv.s:61     .text:0000000000000000 _ZN6Thread7wrapperEPv
     /tmp/cc4au8fv.s:65     .text:0000000000000000 .L0 
     /tmp/cc4au8fv.s:67     .text:0000000000000000 .L0 
     /tmp/cc4au8fv.s:68     .text:0000000000000004 .L0 
     /tmp/cc4au8fv.s:71     .text:000000000000000c .L0 
     /tmp/cc4au8fv.s:72     .text:000000000000000c .L0 
     /tmp/cc4au8fv.s:74     .text:0000000000000010 .L0 
     /tmp/cc4au8fv.s:77     .text:0000000000000010 .L0 
     /tmp/cc4au8fv.s:78     .text:0000000000000010 .L0 
     /tmp/cc4au8fv.s:79     .text:0000000000000010 .L0 
     /tmp/cc4au8fv.s:82     .text:0000000000000018 .L0 
     /tmp/cc4au8fv.s:85     .text:000000000000001c .L0 
     /tmp/cc4au8fv.s:86     .text:0000000000000020 .L0 
     /tmp/cc4au8fv.s:88     .text:0000000000000024 .L0 
     /tmp/cc4au8fv.s:89     .text:0000000000000024 .L0 
     /tmp/cc4au8fv.s:91     .text:0000000000000028 .L0 
     /tmp/cc4au8fv.s:93     .text:000000000000002c .L0 
     /tmp/cc4au8fv.s:99     .text:000000000000002c _ZN14PeriodicThread3runEv
     /tmp/cc4au8fv.s:102    .text:000000000000002c .L0 
     /tmp/cc4au8fv.s:104    .text:000000000000002c .L0 
     /tmp/cc4au8fv.s:105    .text:0000000000000030 .L0 
     /tmp/cc4au8fv.s:109    .text:000000000000003c .L0 
     /tmp/cc4au8fv.s:110    .text:000000000000003c .L0 
     /tmp/cc4au8fv.s:111    .text:000000000000003c .L0 
     /tmp/cc4au8fv.s:113    .text:0000000000000040 .L0 
     /tmp/cc4au8fv.s:118    .text:0000000000000044 .L0 
     /tmp/cc4au8fv.s:119    .text:0000000000000044 .L0 
     /tmp/cc4au8fv.s:120    .text:0000000000000044 .L0 
     /tmp/cc4au8fv.s:123    .text:000000000000004c .L0 
     /tmp/cc4au8fv.s:127    .text:0000000000000054 .L0 
     /tmp/cc4au8fv.s:128    .text:0000000000000054 .L0 
     /tmp/cc4au8fv.s:132    .text:0000000000000060 .L0 
     /tmp/cc4au8fv.s:133    .text:0000000000000064 .L0 
GAS LISTING /tmp/cc4au8fv.s 			page 28


     /tmp/cc4au8fv.s:139    .text:0000000000000064 _ZN9SemaphoreD2Ev
     /tmp/cc4au8fv.s:142    .text:0000000000000064 .L0 
     /tmp/cc4au8fv.s:5877   .data.rel.local.DW.ref.__gxx_personality_v0:0000000000000000 DW.ref.__gxx_personality_v0
     /tmp/cc4au8fv.s:146    .text:0000000000000064 .L0 
     /tmp/cc4au8fv.s:147    .text:0000000000000068 .L0 
     /tmp/cc4au8fv.s:150    .text:0000000000000070 .L0 
     /tmp/cc4au8fv.s:151    .text:0000000000000070 .L0 
     /tmp/cc4au8fv.s:153    .text:0000000000000074 .L0 
     /tmp/cc4au8fv.s:1106   .data.rel.ro.local._ZTV9Semaphore:0000000000000000 _ZTV9Semaphore
     /tmp/cc4au8fv.s:156    .text:0000000000000074 .L0 
     /tmp/cc4au8fv.s:159    .text:0000000000000080 .L0 
     /tmp/cc4au8fv.s:160    .text:0000000000000080 .L0 
     /tmp/cc4au8fv.s:166    .text:000000000000008c .L0 
     /tmp/cc4au8fv.s:167    .text:0000000000000090 .L0 
     /tmp/cc4au8fv.s:169    .text:0000000000000094 .L0 
     /tmp/cc4au8fv.s:170    .text:0000000000000094 .L0 
     /tmp/cc4au8fv.s:172    .text:0000000000000098 .L0 
     /tmp/cc4au8fv.s:174    .text:000000000000009c .L0 
     /tmp/cc4au8fv.s:139    .text:0000000000000064 _ZN9SemaphoreD1Ev
     /tmp/cc4au8fv.s:190    .text:000000000000009c _Znwm
     /tmp/cc4au8fv.s:193    .text:000000000000009c .L0 
     /tmp/cc4au8fv.s:195    .text:000000000000009c .L0 
     /tmp/cc4au8fv.s:196    .text:00000000000000a0 .L0 
     /tmp/cc4au8fv.s:199    .text:00000000000000a8 .L0 
     /tmp/cc4au8fv.s:200    .text:00000000000000a8 .L0 
     /tmp/cc4au8fv.s:202    .text:00000000000000ac .L0 
     /tmp/cc4au8fv.s:204    .text:00000000000000ac .L0 
     /tmp/cc4au8fv.s:205    .text:00000000000000ac .L0 
     /tmp/cc4au8fv.s:208    .text:00000000000000b4 .L0 
     /tmp/cc4au8fv.s:209    .text:00000000000000b8 .L0 
     /tmp/cc4au8fv.s:211    .text:00000000000000bc .L0 
     /tmp/cc4au8fv.s:212    .text:00000000000000bc .L0 
     /tmp/cc4au8fv.s:214    .text:00000000000000c0 .L0 
     /tmp/cc4au8fv.s:216    .text:00000000000000c4 .L0 
     /tmp/cc4au8fv.s:222    .text:00000000000000c4 _Znam
     /tmp/cc4au8fv.s:225    .text:00000000000000c4 .L0 
     /tmp/cc4au8fv.s:227    .text:00000000000000c4 .L0 
     /tmp/cc4au8fv.s:228    .text:00000000000000c8 .L0 
     /tmp/cc4au8fv.s:231    .text:00000000000000d0 .L0 
     /tmp/cc4au8fv.s:232    .text:00000000000000d0 .L0 
     /tmp/cc4au8fv.s:234    .text:00000000000000d4 .L0 
     /tmp/cc4au8fv.s:236    .text:00000000000000d4 .L0 
     /tmp/cc4au8fv.s:237    .text:00000000000000d4 .L0 
     /tmp/cc4au8fv.s:240    .text:00000000000000dc .L0 
     /tmp/cc4au8fv.s:241    .text:00000000000000e0 .L0 
     /tmp/cc4au8fv.s:243    .text:00000000000000e4 .L0 
     /tmp/cc4au8fv.s:244    .text:00000000000000e4 .L0 
     /tmp/cc4au8fv.s:246    .text:00000000000000e8 .L0 
     /tmp/cc4au8fv.s:248    .text:00000000000000ec .L0 
     /tmp/cc4au8fv.s:254    .text:00000000000000ec _ZdlPv
     /tmp/cc4au8fv.s:257    .text:00000000000000ec .L0 
     /tmp/cc4au8fv.s:261    .text:00000000000000ec .L0 
     /tmp/cc4au8fv.s:262    .text:00000000000000f0 .L0 
     /tmp/cc4au8fv.s:265    .text:00000000000000f8 .L0 
     /tmp/cc4au8fv.s:266    .text:00000000000000f8 .L0 
     /tmp/cc4au8fv.s:268    .text:00000000000000fc .L0 
     /tmp/cc4au8fv.s:270    .text:00000000000000fc .L0 
GAS LISTING /tmp/cc4au8fv.s 			page 29


     /tmp/cc4au8fv.s:271    .text:00000000000000fc .L0 
     /tmp/cc4au8fv.s:274    .text:0000000000000104 .L0 
     /tmp/cc4au8fv.s:275    .text:0000000000000108 .L0 
     /tmp/cc4au8fv.s:277    .text:000000000000010c .L0 
     /tmp/cc4au8fv.s:278    .text:000000000000010c .L0 
     /tmp/cc4au8fv.s:280    .text:0000000000000110 .L0 
     /tmp/cc4au8fv.s:282    .text:0000000000000114 .L0 
     /tmp/cc4au8fv.s:295    .text:0000000000000114 _ZN6ThreadD2Ev
     /tmp/cc4au8fv.s:298    .text:0000000000000114 .L0 
     /tmp/cc4au8fv.s:302    .text:0000000000000114 .L0 
     /tmp/cc4au8fv.s:303    .text:0000000000000118 .L0 
     /tmp/cc4au8fv.s:307    .text:0000000000000124 .L0 
     /tmp/cc4au8fv.s:308    .text:0000000000000124 .L0 
     /tmp/cc4au8fv.s:309    .text:0000000000000124 .L0 
     /tmp/cc4au8fv.s:311    .text:0000000000000128 .L0 
     /tmp/cc4au8fv.s:1095   .data.rel.ro.local._ZTV6Thread:0000000000000000 _ZTV6Thread
     /tmp/cc4au8fv.s:314    .text:0000000000000128 .L0 
     /tmp/cc4au8fv.s:317    .text:0000000000000134 .L0 
     /tmp/cc4au8fv.s:318    .text:0000000000000134 .L0 
     /tmp/cc4au8fv.s:320    .text:0000000000000138 .L0 
     /tmp/cc4au8fv.s:326    .text:000000000000013c .L0 
     /tmp/cc4au8fv.s:327    .text:000000000000013c .L0 
     /tmp/cc4au8fv.s:330    .text:0000000000000140 .L0 
     /tmp/cc4au8fv.s:332    .text:0000000000000144 .L0 
     /tmp/cc4au8fv.s:340    .text:000000000000014c .L0 
     /tmp/cc4au8fv.s:341    .text:000000000000014c .L0 
     /tmp/cc4au8fv.s:349    .text:0000000000000158 .L0 
     /tmp/cc4au8fv.s:350    .text:000000000000015c .L0 
     /tmp/cc4au8fv.s:352    .text:0000000000000160 .L0 
     /tmp/cc4au8fv.s:353    .text:0000000000000160 .L0 
     /tmp/cc4au8fv.s:355    .text:0000000000000164 .L0 
     /tmp/cc4au8fv.s:357    .text:0000000000000168 .L0 
     /tmp/cc4au8fv.s:359    .text:000000000000016c .L0 
     /tmp/cc4au8fv.s:295    .text:0000000000000114 _ZN6ThreadD1Ev
     /tmp/cc4au8fv.s:375    .text._ZN14PeriodicThreadD2Ev:0000000000000000 _ZN14PeriodicThreadD2Ev
     /tmp/cc4au8fv.s:378    .text._ZN14PeriodicThreadD2Ev:0000000000000000 .L0 
     /tmp/cc4au8fv.s:380    .text._ZN14PeriodicThreadD2Ev:0000000000000000 .L0 
     /tmp/cc4au8fv.s:381    .text._ZN14PeriodicThreadD2Ev:0000000000000004 .L0 
     /tmp/cc4au8fv.s:384    .text._ZN14PeriodicThreadD2Ev:000000000000000c .L0 
     /tmp/cc4au8fv.s:385    .text._ZN14PeriodicThreadD2Ev:000000000000000c .L0 
     /tmp/cc4au8fv.s:387    .text._ZN14PeriodicThreadD2Ev:0000000000000010 .L0 
     /tmp/cc4au8fv.s:1116   .data.rel.ro.local._ZTV14PeriodicThread:0000000000000000 _ZTV14PeriodicThread
     /tmp/cc4au8fv.s:390    .text._ZN14PeriodicThreadD2Ev:0000000000000010 .L0 
     /tmp/cc4au8fv.s:396    .text._ZN14PeriodicThreadD2Ev:0000000000000028 .L0 
     /tmp/cc4au8fv.s:398    .text._ZN14PeriodicThreadD2Ev:000000000000002c .L0 
     /tmp/cc4au8fv.s:399    .text._ZN14PeriodicThreadD2Ev:000000000000002c .L0 
     /tmp/cc4au8fv.s:401    .text._ZN14PeriodicThreadD2Ev:0000000000000030 .L0 
     /tmp/cc4au8fv.s:403    .text._ZN14PeriodicThreadD2Ev:0000000000000034 .L0 
     /tmp/cc4au8fv.s:375    .text._ZN14PeriodicThreadD2Ev:0000000000000000 _ZN14PeriodicThreadD1Ev
     /tmp/cc4au8fv.s:412    .text:000000000000016c _ZN6ThreadD0Ev
     /tmp/cc4au8fv.s:415    .text:000000000000016c .L0 
     /tmp/cc4au8fv.s:417    .text:000000000000016c .L0 
     /tmp/cc4au8fv.s:418    .text:0000000000000170 .L0 
     /tmp/cc4au8fv.s:422    .text:000000000000017c .L0 
     /tmp/cc4au8fv.s:423    .text:000000000000017c .L0 
     /tmp/cc4au8fv.s:424    .text:000000000000017c .L0 
     /tmp/cc4au8fv.s:426    .text:0000000000000180 .L0 
GAS LISTING /tmp/cc4au8fv.s 			page 30


     /tmp/cc4au8fv.s:429    .text:0000000000000184 .L0 
     /tmp/cc4au8fv.s:435    .text:000000000000019c .L0 
     /tmp/cc4au8fv.s:437    .text:00000000000001a0 .L0 
     /tmp/cc4au8fv.s:438    .text:00000000000001a0 .L0 
     /tmp/cc4au8fv.s:440    .text:00000000000001a4 .L0 
     /tmp/cc4au8fv.s:443    .text:00000000000001a8 .L0 
     /tmp/cc4au8fv.s:445    .text:00000000000001ac .L0 
     /tmp/cc4au8fv.s:451    .text:00000000000001ac _ZN9SemaphoreD0Ev
     /tmp/cc4au8fv.s:454    .text:00000000000001ac .L0 
     /tmp/cc4au8fv.s:456    .text:00000000000001ac .L0 
     /tmp/cc4au8fv.s:457    .text:00000000000001b0 .L0 
     /tmp/cc4au8fv.s:461    .text:00000000000001bc .L0 
     /tmp/cc4au8fv.s:462    .text:00000000000001bc .L0 
     /tmp/cc4au8fv.s:463    .text:00000000000001bc .L0 
     /tmp/cc4au8fv.s:465    .text:00000000000001c0 .L0 
     /tmp/cc4au8fv.s:468    .text:00000000000001c4 .L0 
     /tmp/cc4au8fv.s:474    .text:00000000000001dc .L0 
     /tmp/cc4au8fv.s:476    .text:00000000000001e0 .L0 
     /tmp/cc4au8fv.s:477    .text:00000000000001e0 .L0 
     /tmp/cc4au8fv.s:479    .text:00000000000001e4 .L0 
     /tmp/cc4au8fv.s:482    .text:00000000000001e8 .L0 
     /tmp/cc4au8fv.s:484    .text:00000000000001ec .L0 
     /tmp/cc4au8fv.s:491    .text._ZN14PeriodicThreadD0Ev:0000000000000000 _ZN14PeriodicThreadD0Ev
     /tmp/cc4au8fv.s:494    .text._ZN14PeriodicThreadD0Ev:0000000000000000 .L0 
     /tmp/cc4au8fv.s:496    .text._ZN14PeriodicThreadD0Ev:0000000000000000 .L0 
     /tmp/cc4au8fv.s:497    .text._ZN14PeriodicThreadD0Ev:0000000000000004 .L0 
     /tmp/cc4au8fv.s:501    .text._ZN14PeriodicThreadD0Ev:0000000000000010 .L0 
     /tmp/cc4au8fv.s:502    .text._ZN14PeriodicThreadD0Ev:0000000000000010 .L0 
     /tmp/cc4au8fv.s:503    .text._ZN14PeriodicThreadD0Ev:0000000000000010 .L0 
     /tmp/cc4au8fv.s:505    .text._ZN14PeriodicThreadD0Ev:0000000000000014 .L0 
     /tmp/cc4au8fv.s:511    .text._ZN14PeriodicThreadD0Ev:0000000000000018 .L0 
     /tmp/cc4au8fv.s:521    .text._ZN14PeriodicThreadD0Ev:000000000000003c .L0 
     /tmp/cc4au8fv.s:523    .text._ZN14PeriodicThreadD0Ev:0000000000000040 .L0 
     /tmp/cc4au8fv.s:524    .text._ZN14PeriodicThreadD0Ev:0000000000000040 .L0 
     /tmp/cc4au8fv.s:526    .text._ZN14PeriodicThreadD0Ev:0000000000000044 .L0 
     /tmp/cc4au8fv.s:529    .text._ZN14PeriodicThreadD0Ev:0000000000000048 .L0 
     /tmp/cc4au8fv.s:531    .text._ZN14PeriodicThreadD0Ev:000000000000004c .L0 
     /tmp/cc4au8fv.s:538    .text:00000000000001ec _ZdaPv
     /tmp/cc4au8fv.s:541    .text:00000000000001ec .L0 
     /tmp/cc4au8fv.s:545    .text:00000000000001ec .L0 
     /tmp/cc4au8fv.s:546    .text:00000000000001f0 .L0 
     /tmp/cc4au8fv.s:549    .text:00000000000001f8 .L0 
     /tmp/cc4au8fv.s:550    .text:00000000000001f8 .L0 
     /tmp/cc4au8fv.s:552    .text:00000000000001fc .L0 
     /tmp/cc4au8fv.s:554    .text:00000000000001fc .L0 
     /tmp/cc4au8fv.s:555    .text:00000000000001fc .L0 
     /tmp/cc4au8fv.s:558    .text:0000000000000204 .L0 
     /tmp/cc4au8fv.s:559    .text:0000000000000208 .L0 
     /tmp/cc4au8fv.s:561    .text:000000000000020c .L0 
     /tmp/cc4au8fv.s:562    .text:000000000000020c .L0 
     /tmp/cc4au8fv.s:564    .text:0000000000000210 .L0 
     /tmp/cc4au8fv.s:566    .text:0000000000000214 .L0 
     /tmp/cc4au8fv.s:579    .text:0000000000000214 _ZN6ThreadC2EPFvPvES0_
     /tmp/cc4au8fv.s:582    .text:0000000000000214 .L0 
     /tmp/cc4au8fv.s:584    .text:0000000000000214 .L0 
     /tmp/cc4au8fv.s:585    .text:0000000000000218 .L0 
     /tmp/cc4au8fv.s:587    .text:000000000000021c .L0 
GAS LISTING /tmp/cc4au8fv.s 			page 31


     /tmp/cc4au8fv.s:589    .text:0000000000000220 .L0 
     /tmp/cc4au8fv.s:592    .text:0000000000000220 .L0 
     /tmp/cc4au8fv.s:595    .text:000000000000022c .L0 
     /tmp/cc4au8fv.s:596    .text:000000000000022c .L0 
     /tmp/cc4au8fv.s:598    .text:0000000000000230 .L0 
     /tmp/cc4au8fv.s:599    .text:0000000000000230 .L0 
     /tmp/cc4au8fv.s:602    .text:0000000000000234 .L0 
     /tmp/cc4au8fv.s:603    .text:0000000000000238 .L0 
     /tmp/cc4au8fv.s:604    .text:0000000000000238 .L0 
     /tmp/cc4au8fv.s:606    .text:000000000000023c .L0 
     /tmp/cc4au8fv.s:608    .text:0000000000000240 .L0 
     /tmp/cc4au8fv.s:579    .text:0000000000000214 _ZN6ThreadC1EPFvPvES0_
     /tmp/cc4au8fv.s:616    .text:0000000000000240 _ZN6Thread5startEv
     /tmp/cc4au8fv.s:619    .text:0000000000000240 .L0 
     /tmp/cc4au8fv.s:621    .text:0000000000000240 .L0 
     /tmp/cc4au8fv.s:622    .text:0000000000000244 .L0 
     /tmp/cc4au8fv.s:625    .text:000000000000024c .L0 
     /tmp/cc4au8fv.s:626    .text:000000000000024c .L0 
     /tmp/cc4au8fv.s:628    .text:0000000000000250 .L0 
     /tmp/cc4au8fv.s:630    .text:0000000000000250 .L0 
     /tmp/cc4au8fv.s:631    .text:0000000000000250 .L0 
     /tmp/cc4au8fv.s:633    .text:0000000000000254 .L0 
     /tmp/cc4au8fv.s:635    .text:0000000000000258 .L0 
     /tmp/cc4au8fv.s:636    .text:0000000000000258 .L0 
     /tmp/cc4au8fv.s:643    .text:0000000000000268 .L0 
     /tmp/cc4au8fv.s:644    .text:000000000000026c .L0 
     /tmp/cc4au8fv.s:645    .text:000000000000026c .L0 
     /tmp/cc4au8fv.s:647    .text:0000000000000270 .L0 
     /tmp/cc4au8fv.s:648    .text:0000000000000270 .L0 
     /tmp/cc4au8fv.s:650    .text:0000000000000274 .L0 
     /tmp/cc4au8fv.s:654    .text:0000000000000278 .L0 
     /tmp/cc4au8fv.s:656    .text:0000000000000278 .L0 
     /tmp/cc4au8fv.s:657    .text:0000000000000278 .L0 
     /tmp/cc4au8fv.s:664    .text:0000000000000290 .L0 
     /tmp/cc4au8fv.s:665    .text:0000000000000294 .L0 
     /tmp/cc4au8fv.s:671    .text:0000000000000294 _ZN6Thread8dispatchEv
     /tmp/cc4au8fv.s:674    .text:0000000000000294 .L0 
     /tmp/cc4au8fv.s:675    .text:0000000000000294 .L0 
     /tmp/cc4au8fv.s:676    .text:0000000000000298 .L0 
     /tmp/cc4au8fv.s:679    .text:00000000000002a0 .L0 
     /tmp/cc4au8fv.s:680    .text:00000000000002a0 .L0 
     /tmp/cc4au8fv.s:682    .text:00000000000002a4 .L0 
     /tmp/cc4au8fv.s:684    .text:00000000000002a4 .L0 
     /tmp/cc4au8fv.s:685    .text:00000000000002a4 .L0 
     /tmp/cc4au8fv.s:688    .text:00000000000002ac .L0 
     /tmp/cc4au8fv.s:689    .text:00000000000002b0 .L0 
     /tmp/cc4au8fv.s:691    .text:00000000000002b4 .L0 
     /tmp/cc4au8fv.s:692    .text:00000000000002b4 .L0 
     /tmp/cc4au8fv.s:694    .text:00000000000002b8 .L0 
     /tmp/cc4au8fv.s:696    .text:00000000000002bc .L0 
     /tmp/cc4au8fv.s:702    .text:00000000000002bc _ZN6Thread5sleepEm
     /tmp/cc4au8fv.s:705    .text:00000000000002bc .L0 
     /tmp/cc4au8fv.s:707    .text:00000000000002bc .L0 
     /tmp/cc4au8fv.s:708    .text:00000000000002c0 .L0 
     /tmp/cc4au8fv.s:711    .text:00000000000002c8 .L0 
     /tmp/cc4au8fv.s:712    .text:00000000000002c8 .L0 
     /tmp/cc4au8fv.s:714    .text:00000000000002cc .L0 
GAS LISTING /tmp/cc4au8fv.s 			page 32


     /tmp/cc4au8fv.s:716    .text:00000000000002cc .L0 
     /tmp/cc4au8fv.s:717    .text:00000000000002cc .L0 
     /tmp/cc4au8fv.s:720    .text:00000000000002d4 .L0 
     /tmp/cc4au8fv.s:721    .text:00000000000002d8 .L0 
     /tmp/cc4au8fv.s:723    .text:00000000000002dc .L0 
     /tmp/cc4au8fv.s:724    .text:00000000000002dc .L0 
     /tmp/cc4au8fv.s:726    .text:00000000000002e0 .L0 
     /tmp/cc4au8fv.s:728    .text:00000000000002e4 .L0 
     /tmp/cc4au8fv.s:734    .text:00000000000002e4 _ZN6ThreadC2Ev
     /tmp/cc4au8fv.s:737    .text:00000000000002e4 .L0 
     /tmp/cc4au8fv.s:739    .text:00000000000002e4 .L0 
     /tmp/cc4au8fv.s:740    .text:00000000000002e8 .L0 
     /tmp/cc4au8fv.s:742    .text:00000000000002ec .L0 
     /tmp/cc4au8fv.s:744    .text:00000000000002f0 .L0 
     /tmp/cc4au8fv.s:747    .text:00000000000002f0 .L0 
     /tmp/cc4au8fv.s:750    .text:00000000000002fc .L0 
     /tmp/cc4au8fv.s:751    .text:00000000000002fc .L0 
     /tmp/cc4au8fv.s:753    .text:0000000000000300 .L0 
     /tmp/cc4au8fv.s:754    .text:0000000000000300 .L0 
     /tmp/cc4au8fv.s:757    .text:0000000000000304 .L0 
     /tmp/cc4au8fv.s:758    .text:0000000000000308 .L0 
     /tmp/cc4au8fv.s:759    .text:0000000000000308 .L0 
     /tmp/cc4au8fv.s:761    .text:000000000000030c .L0 
     /tmp/cc4au8fv.s:763    .text:0000000000000310 .L0 
     /tmp/cc4au8fv.s:734    .text:00000000000002e4 _ZN6ThreadC1Ev
     /tmp/cc4au8fv.s:771    .text:0000000000000310 _ZN9SemaphoreC2Ej
     /tmp/cc4au8fv.s:774    .text:0000000000000310 .L0 
     /tmp/cc4au8fv.s:776    .text:0000000000000310 .L0 
     /tmp/cc4au8fv.s:777    .text:0000000000000314 .L0 
     /tmp/cc4au8fv.s:780    .text:000000000000031c .L0 
     /tmp/cc4au8fv.s:781    .text:000000000000031c .L0 
     /tmp/cc4au8fv.s:783    .text:0000000000000320 .L0 
     /tmp/cc4au8fv.s:786    .text:0000000000000320 .L0 
     /tmp/cc4au8fv.s:789    .text:000000000000032c .L0 
     /tmp/cc4au8fv.s:790    .text:000000000000032c .L0 
     /tmp/cc4au8fv.s:796    .text:0000000000000338 .L0 
     /tmp/cc4au8fv.s:797    .text:000000000000033c .L0 
     /tmp/cc4au8fv.s:799    .text:0000000000000340 .L0 
     /tmp/cc4au8fv.s:800    .text:0000000000000340 .L0 
     /tmp/cc4au8fv.s:802    .text:0000000000000344 .L0 
     /tmp/cc4au8fv.s:804    .text:0000000000000348 .L0 
     /tmp/cc4au8fv.s:771    .text:0000000000000310 _ZN9SemaphoreC1Ej
     /tmp/cc4au8fv.s:812    .text:0000000000000348 _ZN9Semaphore4waitEv
     /tmp/cc4au8fv.s:815    .text:0000000000000348 .L0 
     /tmp/cc4au8fv.s:817    .text:0000000000000348 .L0 
     /tmp/cc4au8fv.s:818    .text:000000000000034c .L0 
     /tmp/cc4au8fv.s:821    .text:0000000000000354 .L0 
     /tmp/cc4au8fv.s:822    .text:0000000000000354 .L0 
     /tmp/cc4au8fv.s:824    .text:0000000000000358 .L0 
     /tmp/cc4au8fv.s:826    .text:0000000000000358 .L0 
     /tmp/cc4au8fv.s:827    .text:0000000000000358 .L0 
     /tmp/cc4au8fv.s:832    .text:0000000000000364 .L0 
     /tmp/cc4au8fv.s:833    .text:0000000000000368 .L0 
     /tmp/cc4au8fv.s:835    .text:000000000000036c .L0 
     /tmp/cc4au8fv.s:836    .text:000000000000036c .L0 
     /tmp/cc4au8fv.s:838    .text:0000000000000370 .L0 
     /tmp/cc4au8fv.s:840    .text:0000000000000374 .L0 
GAS LISTING /tmp/cc4au8fv.s 			page 33


     /tmp/cc4au8fv.s:846    .text:0000000000000374 _ZN9Semaphore6signalEv
     /tmp/cc4au8fv.s:849    .text:0000000000000374 .L0 
     /tmp/cc4au8fv.s:851    .text:0000000000000374 .L0 
     /tmp/cc4au8fv.s:852    .text:0000000000000378 .L0 
     /tmp/cc4au8fv.s:855    .text:0000000000000380 .L0 
     /tmp/cc4au8fv.s:856    .text:0000000000000380 .L0 
     /tmp/cc4au8fv.s:858    .text:0000000000000384 .L0 
     /tmp/cc4au8fv.s:860    .text:0000000000000384 .L0 
     /tmp/cc4au8fv.s:861    .text:0000000000000384 .L0 
     /tmp/cc4au8fv.s:866    .text:0000000000000390 .L0 
     /tmp/cc4au8fv.s:867    .text:0000000000000394 .L0 
     /tmp/cc4au8fv.s:869    .text:0000000000000398 .L0 
     /tmp/cc4au8fv.s:870    .text:0000000000000398 .L0 
     /tmp/cc4au8fv.s:872    .text:000000000000039c .L0 
     /tmp/cc4au8fv.s:874    .text:00000000000003a0 .L0 
     /tmp/cc4au8fv.s:880    .text:00000000000003a0 _ZN9Semaphore9timedWaitEm
     /tmp/cc4au8fv.s:883    .text:00000000000003a0 .L0 
     /tmp/cc4au8fv.s:885    .text:00000000000003a0 .L0 
     /tmp/cc4au8fv.s:886    .text:00000000000003a4 .L0 
     /tmp/cc4au8fv.s:889    .text:00000000000003ac .L0 
     /tmp/cc4au8fv.s:890    .text:00000000000003ac .L0 
     /tmp/cc4au8fv.s:892    .text:00000000000003b0 .L0 
     /tmp/cc4au8fv.s:894    .text:00000000000003b0 .L0 
     /tmp/cc4au8fv.s:895    .text:00000000000003b0 .L0 
     /tmp/cc4au8fv.s:900    .text:00000000000003bc .L0 
     /tmp/cc4au8fv.s:901    .text:00000000000003c0 .L0 
     /tmp/cc4au8fv.s:903    .text:00000000000003c4 .L0 
     /tmp/cc4au8fv.s:904    .text:00000000000003c4 .L0 
     /tmp/cc4au8fv.s:906    .text:00000000000003c8 .L0 
     /tmp/cc4au8fv.s:908    .text:00000000000003cc .L0 
     /tmp/cc4au8fv.s:914    .text:00000000000003cc _ZN9Semaphore7tryWaitEv
     /tmp/cc4au8fv.s:917    .text:00000000000003cc .L0 
     /tmp/cc4au8fv.s:919    .text:00000000000003cc .L0 
     /tmp/cc4au8fv.s:920    .text:00000000000003d0 .L0 
     /tmp/cc4au8fv.s:923    .text:00000000000003d8 .L0 
     /tmp/cc4au8fv.s:924    .text:00000000000003d8 .L0 
     /tmp/cc4au8fv.s:926    .text:00000000000003dc .L0 
     /tmp/cc4au8fv.s:928    .text:00000000000003dc .L0 
     /tmp/cc4au8fv.s:929    .text:00000000000003dc .L0 
     /tmp/cc4au8fv.s:934    .text:00000000000003e8 .L0 
     /tmp/cc4au8fv.s:935    .text:00000000000003ec .L0 
     /tmp/cc4au8fv.s:937    .text:00000000000003f0 .L0 
     /tmp/cc4au8fv.s:938    .text:00000000000003f0 .L0 
     /tmp/cc4au8fv.s:940    .text:00000000000003f4 .L0 
     /tmp/cc4au8fv.s:942    .text:00000000000003f8 .L0 
     /tmp/cc4au8fv.s:948    .text:00000000000003f8 _ZN14PeriodicThreadC2Em
     /tmp/cc4au8fv.s:951    .text:00000000000003f8 .L0 
     /tmp/cc4au8fv.s:953    .text:00000000000003f8 .L0 
     /tmp/cc4au8fv.s:954    .text:00000000000003fc .L0 
     /tmp/cc4au8fv.s:959    .text:000000000000040c .L0 
     /tmp/cc4au8fv.s:960    .text:000000000000040c .L0 
     /tmp/cc4au8fv.s:961    .text:000000000000040c .L0 
     /tmp/cc4au8fv.s:962    .text:000000000000040c .L0 
     /tmp/cc4au8fv.s:964    .text:0000000000000410 .L0 
     /tmp/cc4au8fv.s:969    .text:0000000000000418 .L0 
     /tmp/cc4au8fv.s:976    .text:0000000000000430 .L0 
     /tmp/cc4au8fv.s:977    .text:0000000000000434 .L0 
GAS LISTING /tmp/cc4au8fv.s 			page 34


     /tmp/cc4au8fv.s:979    .text:0000000000000438 .L0 
     /tmp/cc4au8fv.s:980    .text:0000000000000438 .L0 
     /tmp/cc4au8fv.s:982    .text:000000000000043c .L0 
     /tmp/cc4au8fv.s:985    .text:0000000000000440 .L0 
     /tmp/cc4au8fv.s:988    .text:0000000000000444 .L0 
     /tmp/cc4au8fv.s:990    .text:0000000000000448 .L0 
     /tmp/cc4au8fv.s:948    .text:00000000000003f8 _ZN14PeriodicThreadC1Em
     /tmp/cc4au8fv.s:998    .text:0000000000000448 _ZN14PeriodicThread9terminateEv
     /tmp/cc4au8fv.s:1001   .text:0000000000000448 .L0 
     /tmp/cc4au8fv.s:1003   .text:0000000000000448 .L0 
     /tmp/cc4au8fv.s:1004   .text:000000000000044c .L0 
     /tmp/cc4au8fv.s:1007   .text:0000000000000454 .L0 
     /tmp/cc4au8fv.s:1008   .text:0000000000000454 .L0 
     /tmp/cc4au8fv.s:1010   .text:0000000000000458 .L0 
     /tmp/cc4au8fv.s:1012   .text:0000000000000458 .L0 
     /tmp/cc4au8fv.s:1013   .text:0000000000000458 .L0 
     /tmp/cc4au8fv.s:1016   .text:0000000000000460 .L0 
     /tmp/cc4au8fv.s:1017   .text:0000000000000464 .L0 
     /tmp/cc4au8fv.s:1019   .text:0000000000000468 .L0 
     /tmp/cc4au8fv.s:1020   .text:0000000000000468 .L0 
     /tmp/cc4au8fv.s:1022   .text:000000000000046c .L0 
     /tmp/cc4au8fv.s:1024   .text:0000000000000470 .L0 
     /tmp/cc4au8fv.s:1030   .text:0000000000000470 _ZN7Console4getcEv
     /tmp/cc4au8fv.s:1033   .text:0000000000000470 .L0 
     /tmp/cc4au8fv.s:1034   .text:0000000000000470 .L0 
     /tmp/cc4au8fv.s:1035   .text:0000000000000474 .L0 
     /tmp/cc4au8fv.s:1038   .text:000000000000047c .L0 
     /tmp/cc4au8fv.s:1039   .text:000000000000047c .L0 
     /tmp/cc4au8fv.s:1041   .text:0000000000000480 .L0 
     /tmp/cc4au8fv.s:1043   .text:0000000000000480 .L0 
     /tmp/cc4au8fv.s:1044   .text:0000000000000480 .L0 
     /tmp/cc4au8fv.s:1047   .text:0000000000000488 .L0 
     /tmp/cc4au8fv.s:1048   .text:000000000000048c .L0 
     /tmp/cc4au8fv.s:1050   .text:0000000000000490 .L0 
     /tmp/cc4au8fv.s:1051   .text:0000000000000490 .L0 
     /tmp/cc4au8fv.s:1053   .text:0000000000000494 .L0 
     /tmp/cc4au8fv.s:1055   .text:0000000000000498 .L0 
     /tmp/cc4au8fv.s:1061   .text:0000000000000498 _ZN7Console4putcEc
     /tmp/cc4au8fv.s:1064   .text:0000000000000498 .L0 
     /tmp/cc4au8fv.s:1066   .text:0000000000000498 .L0 
     /tmp/cc4au8fv.s:1067   .text:000000000000049c .L0 
     /tmp/cc4au8fv.s:1070   .text:00000000000004a4 .L0 
     /tmp/cc4au8fv.s:1071   .text:00000000000004a4 .L0 
     /tmp/cc4au8fv.s:1073   .text:00000000000004a8 .L0 
     /tmp/cc4au8fv.s:1075   .text:00000000000004a8 .L0 
     /tmp/cc4au8fv.s:1076   .text:00000000000004a8 .L0 
     /tmp/cc4au8fv.s:1079   .text:00000000000004b0 .L0 
     /tmp/cc4au8fv.s:1080   .text:00000000000004b4 .L0 
     /tmp/cc4au8fv.s:1082   .text:00000000000004b8 .L0 
     /tmp/cc4au8fv.s:1083   .text:00000000000004b8 .L0 
     /tmp/cc4au8fv.s:1085   .text:00000000000004bc .L0 
     /tmp/cc4au8fv.s:1087   .text:00000000000004c0 .L0 
     /tmp/cc4au8fv.s:32     .text._ZN6Thread3runEv:0000000000000018 .L0 
     /tmp/cc4au8fv.s:57     .text._ZN14PeriodicThread18periodicActivationEv:0000000000000018 .L0 
     /tmp/cc4au8fv.s:1131   .text:00000000000004c0 .L0 
     /tmp/cc4au8fv.s:408    .text._ZN14PeriodicThreadD2Ev:0000000000000034 .L0 
     /tmp/cc4au8fv.s:534    .text._ZN14PeriodicThreadD0Ev:000000000000004c .L0 
GAS LISTING /tmp/cc4au8fv.s 			page 35


     /tmp/cc4au8fv.s:156    .text:0000000000000074 .L0 
     /tmp/cc4au8fv.s:314    .text:0000000000000128 .L0 
     /tmp/cc4au8fv.s:592    .text:0000000000000220 .L0 
     /tmp/cc4au8fv.s:658    .text:000000000000027c .L0 
     /tmp/cc4au8fv.s:747    .text:00000000000002f0 .L0 
     /tmp/cc4au8fv.s:786    .text:0000000000000320 .L0 
     /tmp/cc4au8fv.s:971    .text:0000000000000420 .L0 
     /tmp/cc4au8fv.s:116    .text:0000000000000044 .L8
     /tmp/cc4au8fv.s:344    .text:0000000000000158 .L18
     /tmp/cc4au8fv.s:334    .text:000000000000014c .L20
     /tmp/cc4au8fv.s:653    .text:0000000000000278 .L35
     /tmp/cc4au8fv.s:641    .text:0000000000000268 .L36
     /tmp/cc4au8fv.s:390    .text._ZN14PeriodicThreadD2Ev:0000000000000010 .L0 
     /tmp/cc4au8fv.s:511    .text._ZN14PeriodicThreadD0Ev:0000000000000018 .L0 
     /tmp/cc4au8fv.s:3561   .debug_abbrev:0000000000000000 .Ldebug_abbrev0
     /tmp/cc4au8fv.s:5785   .debug_str:0000000000000b24 .LASF215
     /tmp/cc4au8fv.s:5587   .debug_str:000000000000059d .LASF216
     /tmp/cc4au8fv.s:5545   .debug_str:0000000000000410 .LASF217
     /tmp/cc4au8fv.s:5405   .debug_ranges:0000000000000000 .Ldebug_ranges0
     /tmp/cc4au8fv.s:5419   .debug_line:0000000000000000 .Ldebug_line0
     /tmp/cc4au8fv.s:5577   .debug_str:0000000000000557 .LASF0
     /tmp/cc4au8fv.s:5611   .debug_str:000000000000066c .LASF1
     /tmp/cc4au8fv.s:5715   .debug_str:0000000000000942 .LASF2
     /tmp/cc4au8fv.s:5723   .debug_str:000000000000097c .LASF4
     /tmp/cc4au8fv.s:5589   .debug_str:00000000000005b1 .LASF3
     /tmp/cc4au8fv.s:5439   .debug_str:00000000000000b6 .LASF5
     /tmp/cc4au8fv.s:5679   .debug_str:0000000000000834 .LASF6
     /tmp/cc4au8fv.s:5669   .debug_str:00000000000007f0 .LASF7
     /tmp/cc4au8fv.s:5603   .debug_str:000000000000063f .LASF8
     /tmp/cc4au8fv.s:5547   .debug_str:0000000000000429 .LASF9
     /tmp/cc4au8fv.s:5559   .debug_str:00000000000004a7 .LASF10
     /tmp/cc4au8fv.s:5481   .debug_str:00000000000001f9 .LASF11
     /tmp/cc4au8fv.s:5539   .debug_str:00000000000003f0 .LASF12
     /tmp/cc4au8fv.s:5499   .debug_str:000000000000028b .LASF13
     /tmp/cc4au8fv.s:5479   .debug_str:00000000000001e9 .LASF14
     /tmp/cc4au8fv.s:5757   .debug_str:0000000000000a71 .LASF15
     /tmp/cc4au8fv.s:5525   .debug_str:000000000000036c .LASF16
     /tmp/cc4au8fv.s:5747   .debug_str:0000000000000a1e .LASF17
     /tmp/cc4au8fv.s:5595   .debug_str:00000000000005f7 .LASF49
     /tmp/cc4au8fv.s:5609   .debug_str:0000000000000667 .LASF18
     /tmp/cc4au8fv.s:5483   .debug_str:0000000000000208 .LASF19
     /tmp/cc4au8fv.s:5453   .debug_str:000000000000013f .LASF20
     /tmp/cc4au8fv.s:5665   .debug_str:00000000000007d4 .LASF23
     /tmp/cc4au8fv.s:5707   .debug_str:0000000000000901 .LASF21
     /tmp/cc4au8fv.s:5819   .debug_str:0000000000000d26 .LASF22
     /tmp/cc4au8fv.s:5451   .debug_str:0000000000000126 .LASF69
     /tmp/cc4au8fv.s:5593   .debug_str:00000000000005db .LASF25
     /tmp/cc4au8fv.s:5719   .debug_str:000000000000095d .LASF34
     /tmp/cc4au8fv.s:5817   .debug_str:0000000000000d0a .LASF35
     /tmp/cc4au8fv.s:5585   .debug_str:0000000000000593 .LASF60
     /tmp/cc4au8fv.s:5573   .debug_str:0000000000000520 .LASF62
     /tmp/cc4au8fv.s:5635   .debug_str:0000000000000704 .LASF24
     /tmp/cc4au8fv.s:5443   .debug_str:00000000000000e7 .LASF26
     /tmp/cc4au8fv.s:5767   .debug_str:0000000000000ab1 .LASF27
     /tmp/cc4au8fv.s:5637   .debug_str:000000000000070e .LASF28
     /tmp/cc4au8fv.s:5459   .debug_str:0000000000000168 .LASF93
     /tmp/cc4au8fv.s:5859   .debug_str:0000000000000e52 .LASF95
GAS LISTING /tmp/cc4au8fv.s 			page 36


     /tmp/cc4au8fv.s:5829   .debug_str:0000000000000d66 .LASF29
     /tmp/cc4au8fv.s:5811   .debug_str:0000000000000cdf .LASF218
     /tmp/cc4au8fv.s:5751   .debug_str:0000000000000a47 .LASF30
     /tmp/cc4au8fv.s:5649   .debug_str:0000000000000784 .LASF31
     /tmp/cc4au8fv.s:5643   .debug_str:000000000000075d .LASF32
     /tmp/cc4au8fv.s:5749   .debug_str:0000000000000a34 .LASF33
     /tmp/cc4au8fv.s:5535   .debug_str:00000000000003d3 .LASF36
     /tmp/cc4au8fv.s:5705   .debug_str:00000000000008ea .LASF149
     /tmp/cc4au8fv.s:5605   .debug_str:0000000000000652 .LASF37
     /tmp/cc4au8fv.s:5469   .debug_str:0000000000000199 .LASF38
     /tmp/cc4au8fv.s:5623   .debug_str:00000000000006c6 .LASF39
     /tmp/cc4au8fv.s:5529   .debug_str:000000000000038b .LASF40
     /tmp/cc4au8fv.s:5667   .debug_str:00000000000007e4 .LASF41
     /tmp/cc4au8fv.s:5831   .debug_str:0000000000000d70 .LASF42
     /tmp/cc4au8fv.s:5867   .debug_str:0000000000000ea7 .LASF43
     /tmp/cc4au8fv.s:5853   .debug_str:0000000000000e10 .LASF44
     /tmp/cc4au8fv.s:5735   .debug_str:00000000000009d8 .LASF45
     /tmp/cc4au8fv.s:5601   .debug_str:0000000000000622 .LASF46
     /tmp/cc4au8fv.s:5697   .debug_str:00000000000008c3 .LASF47
     /tmp/cc4au8fv.s:5429   .debug_str:000000000000003e .LASF48
     /tmp/cc4au8fv.s:5489   .debug_str:0000000000000234 .LASF50
     /tmp/cc4au8fv.s:5659   .debug_str:00000000000007af .LASF51
     /tmp/cc4au8fv.s:5425   .debug_str:0000000000000029 .LASF52
     /tmp/cc4au8fv.s:5741   .debug_str:0000000000000a07 .LASF53
     /tmp/cc4au8fv.s:5803   .debug_str:0000000000000c8b .LASF54
     /tmp/cc4au8fv.s:5745   .debug_str:0000000000000a15 .LASF55
     /tmp/cc4au8fv.s:5655   .debug_str:00000000000007a0 .LASF56
     /tmp/cc4au8fv.s:5795   .debug_str:0000000000000c3b .LASF57
     /tmp/cc4au8fv.s:5597   .debug_str:00000000000005fd .LASF58
     /tmp/cc4au8fv.s:5613   .debug_str:000000000000067f .LASF59
     /tmp/cc4au8fv.s:5507   .debug_str:00000000000002e3 .LASF61
     /tmp/cc4au8fv.s:5431   .debug_str:0000000000000058 .LASF63
     /tmp/cc4au8fv.s:5685   .debug_str:0000000000000866 .LASF219
     /tmp/cc4au8fv.s:5863   .debug_str:0000000000000e8a .LASF64
     /tmp/cc4au8fv.s:5553   .debug_str:000000000000047a .LASF65
     /tmp/cc4au8fv.s:5631   .debug_str:00000000000006ef .LASF66
     /tmp/cc4au8fv.s:5543   .debug_str:0000000000000404 .LASF67
     /tmp/cc4au8fv.s:5427   .debug_str:000000000000002e .LASF68
     /tmp/cc4au8fv.s:5625   .debug_str:00000000000006ce .LASF70
     /tmp/cc4au8fv.s:5533   .debug_str:00000000000003c0 .LASF71
     /tmp/cc4au8fv.s:5717   .debug_str:0000000000000950 .LASF72
     /tmp/cc4au8fv.s:5755   .debug_str:0000000000000a64 .LASF73
     /tmp/cc4au8fv.s:5801   .debug_str:0000000000000c6a .LASF74
     /tmp/cc4au8fv.s:5769   .debug_str:0000000000000aba .LASF75
     /tmp/cc4au8fv.s:5647   .debug_str:000000000000076d .LASF76
     /tmp/cc4au8fv.s:5463   .debug_str:0000000000000174 .LASF77
     /tmp/cc4au8fv.s:5805   .debug_str:0000000000000c93 .LASF78
     /tmp/cc4au8fv.s:5839   .debug_str:0000000000000dbb .LASF79
     /tmp/cc4au8fv.s:5473   .debug_str:00000000000001bc .LASF80
     /tmp/cc4au8fv.s:5771   .debug_str:0000000000000ac5 .LASF81
     /tmp/cc4au8fv.s:5495   .debug_str:0000000000000261 .LASF82
     /tmp/cc4au8fv.s:5617   .debug_str:0000000000000698 .LASF83
     /tmp/cc4au8fv.s:5789   .debug_str:0000000000000bfb .LASF84
     /tmp/cc4au8fv.s:5731   .debug_str:00000000000009b5 .LASF99
     /tmp/cc4au8fv.s:5673   .debug_str:0000000000000808 .LASF85
     /tmp/cc4au8fv.s:5571   .debug_str:0000000000000505 .LASF86
     /tmp/cc4au8fv.s:5865   .debug_str:0000000000000e97 .LASF87
GAS LISTING /tmp/cc4au8fv.s 			page 37


     /tmp/cc4au8fv.s:5861   .debug_str:0000000000000e6e .LASF88
     /tmp/cc4au8fv.s:5521   .debug_str:0000000000000346 .LASF89
     /tmp/cc4au8fv.s:5823   .debug_str:0000000000000d41 .LASF90
     /tmp/cc4au8fv.s:5645   .debug_str:0000000000000762 .LASF91
     /tmp/cc4au8fv.s:5511   .debug_str:0000000000000305 .LASF92
     /tmp/cc4au8fv.s:5513   .debug_str:000000000000031c .LASF94
     /tmp/cc4au8fv.s:5491   .debug_str:000000000000023c .LASF96
     /tmp/cc4au8fv.s:5467   .debug_str:000000000000018b .LASF97
     /tmp/cc4au8fv.s:5619   .debug_str:00000000000006a5 .LASF98
     /tmp/cc4au8fv.s:5783   .debug_str:0000000000000b1c .LASF100
     /tmp/cc4au8fv.s:5471   .debug_str:00000000000001b6 .LASF101
     /tmp/cc4au8fv.s:5791   .debug_str:0000000000000c14 .LASF102
     /tmp/cc4au8fv.s:5725   .debug_str:0000000000000983 .LASF103
     /tmp/cc4au8fv.s:5433   .debug_str:0000000000000080 .LASF104
     /tmp/cc4au8fv.s:5701   .debug_str:00000000000008dc .LASF105
     /tmp/cc4au8fv.s:5827   .debug_str:0000000000000d5d .LASF106
     /tmp/cc4au8fv.s:5465   .debug_str:0000000000000180 .LASF107
     /tmp/cc4au8fv.s:5569   .debug_str:00000000000004ff .LASF108
     /tmp/cc4au8fv.s:5833   .debug_str:0000000000000d8e .LASF109
     /tmp/cc4au8fv.s:5509   .debug_str:00000000000002f1 .LASF110
     /tmp/cc4au8fv.s:5497   .debug_str:0000000000000277 .LASF111
     /tmp/cc4au8fv.s:5421   .debug_str:0000000000000000 .LASF112
     /tmp/cc4au8fv.s:5721   .debug_str:0000000000000967 .LASF113
     /tmp/cc4au8fv.s:5423   .debug_str:0000000000000015 .LASF114
     /tmp/cc4au8fv.s:5713   .debug_str:0000000000000932 .LASF115
     /tmp/cc4au8fv.s:5503   .debug_str:00000000000002b5 .LASF116
     /tmp/cc4au8fv.s:5477   .debug_str:00000000000001e0 .LASF117
     /tmp/cc4au8fv.s:5561   .debug_str:00000000000004b5 .LASF118
     /tmp/cc4au8fv.s:5515   .debug_str:0000000000000325 .LASF119
     /tmp/cc4au8fv.s:5835   .debug_str:0000000000000d95 .LASF120
     /tmp/cc4au8fv.s:5761   .debug_str:0000000000000a86 .LASF121
     /tmp/cc4au8fv.s:5531   .debug_str:00000000000003a7 .LASF122
     /tmp/cc4au8fv.s:5447   .debug_str:000000000000011a .LASF123
     /tmp/cc4au8fv.s:5583   .debug_str:000000000000057b .LASF124
     /tmp/cc4au8fv.s:5663   .debug_str:00000000000007ca .LASF125
     /tmp/cc4au8fv.s:5683   .debug_str:000000000000084a .LASF126
     /tmp/cc4au8fv.s:5765   .debug_str:0000000000000aa9 .LASF127
     /tmp/cc4au8fv.s:5457   .debug_str:000000000000014e .LASF128
     /tmp/cc4au8fv.s:5519   .debug_str:000000000000033d .LASF129
     /tmp/cc4au8fv.s:5563   .debug_str:00000000000004d1 .LASF130
     /tmp/cc4au8fv.s:5843   .debug_str:0000000000000dd6 .LASF131
     /tmp/cc4au8fv.s:5627   .debug_str:00000000000006db .LASF132
     /tmp/cc4au8fv.s:5581   .debug_str:0000000000000576 .LASF192
     /tmp/cc4au8fv.s:5729   .debug_str:00000000000009a2 .LASF220
     /tmp/cc4au8fv.s:5633   .debug_str:00000000000006ff .LASF133
     /tmp/cc4au8fv.s:5517   .debug_str:000000000000032a .LASF134
     /tmp/cc4au8fv.s:5773   .debug_str:0000000000000ad0 .LASF135
     /tmp/cc4au8fv.s:5837   .debug_str:0000000000000dac .LASF136
     /tmp/cc4au8fv.s:5807   .debug_str:0000000000000caa .LASF137
     /tmp/cc4au8fv.s:5809   .debug_str:0000000000000cc4 .LASF138
     /tmp/cc4au8fv.s:5775   .debug_str:0000000000000ad5 .LASF139
     /tmp/cc4au8fv.s:5551   .debug_str:000000000000045a .LASF140
     /tmp/cc4au8fv.s:5599   .debug_str:000000000000060a .LASF141
     /tmp/cc4au8fv.s:5555   .debug_str:0000000000000486 .LASF142
     /tmp/cc4au8fv.s:5441   .debug_str:00000000000000bd .LASF221
     /tmp/cc4au8fv.s:5727   .debug_str:0000000000000988 .LASF158
     /tmp/cc4au8fv.s:5461   .debug_str:000000000000016d .LASF143
GAS LISTING /tmp/cc4au8fv.s 			page 38


     /tmp/cc4au8fv.s:5651   .debug_str:0000000000000789 .LASF144
     /tmp/cc4au8fv.s:5813   .debug_str:0000000000000ce4 .LASF222
     /tmp/cc4au8fv.s:5567   .debug_str:00000000000004f8 .LASF145
     /tmp/cc4au8fv.s:5493   .debug_str:000000000000024f .LASF146
     /tmp/cc4au8fv.s:5709   .debug_str:000000000000090d .LASF163
     /tmp/cc4au8fv.s:5857   .debug_str:0000000000000e3b .LASF147
     /tmp/cc4au8fv.s:5743   .debug_str:0000000000000a0d .LASF148
     /tmp/cc4au8fv.s:5475   .debug_str:00000000000001d1 .LASF150
     /tmp/cc4au8fv.s:5849   .debug_str:0000000000000df9 .LASF151
     /tmp/cc4au8fv.s:5615   .debug_str:0000000000000685 .LASF152
     /tmp/cc4au8fv.s:5661   .debug_str:00000000000007b4 .LASF153
     /tmp/cc4au8fv.s:5787   .debug_str:0000000000000be8 .LASF154
     /tmp/cc4au8fv.s:5621   .debug_str:00000000000006be .LASF155
     /tmp/cc4au8fv.s:5781   .debug_str:0000000000000b06 .LASF156
     /tmp/cc4au8fv.s:5845   .debug_str:0000000000000ddc .LASF157
     /tmp/cc4au8fv.s:5841   .debug_str:0000000000000dc5 .LASF159
     /tmp/cc4au8fv.s:5527   .debug_str:0000000000000382 .LASF160
     /tmp/cc4au8fv.s:5687   .debug_str:000000000000087b .LASF161
     /tmp/cc4au8fv.s:5779   .debug_str:0000000000000af1 .LASF162
     /tmp/cc4au8fv.s:5855   .debug_str:0000000000000e2b .LASF164
     /tmp/cc4au8fv.s:5777   .debug_str:0000000000000adf .LASF165
     /tmp/cc4au8fv.s:5693   .debug_str:00000000000008ae .LASF166
     /tmp/cc4au8fv.s:5733   .debug_str:00000000000009c6 .LASF167
     /tmp/cc4au8fv.s:5487   .debug_str:000000000000021f .LASF168
     /tmp/cc4au8fv.s:5797   .debug_str:0000000000000c45 .LASF169
     /tmp/cc4au8fv.s:5455   .debug_str:0000000000000144 .LASF170
     /tmp/cc4au8fv.s:5691   .debug_str:0000000000000894 .LASF171
     /tmp/cc4au8fv.s:5591   .debug_str:00000000000005c3 .LASF172
     /tmp/cc4au8fv.s:5575   .debug_str:0000000000000547 .LASF223
     /tmp/cc4au8fv.s:5541   .debug_str:00000000000003ff .LASF173
     /tmp/cc4au8fv.s:5437   .debug_str:00000000000000ac .LASF174
     /tmp/cc4au8fv.s:5869   .debug_str:0000000000000eb1 .LASF175
     /tmp/cc4au8fv.s:492    .text._ZN14PeriodicThreadD0Ev:0000000000000000 .LFB107
     /tmp/cc4au8fv.s:532    .text._ZN14PeriodicThreadD0Ev:000000000000004c .LFE107
     /tmp/cc4au8fv.s:4950   .debug_loc:0000000000000000 .LLST13
     /tmp/cc4au8fv.s:508    .text._ZN14PeriodicThreadD0Ev:0000000000000018 .LBB18
     /tmp/cc4au8fv.s:516    .text._ZN14PeriodicThreadD0Ev:000000000000002c .LBE18
     /tmp/cc4au8fv.s:4968   .debug_loc:000000000000004c .LLST14
     /tmp/cc4au8fv.s:514    .text._ZN14PeriodicThreadD0Ev:000000000000002c .LVL35
     /tmp/cc4au8fv.s:519    .text._ZN14PeriodicThreadD0Ev:0000000000000038 .LVL36
     /tmp/cc4au8fv.s:5711   .debug_str:000000000000091a .LASF176
     /tmp/cc4au8fv.s:376    .text._ZN14PeriodicThreadD2Ev:0000000000000000 .LFB105
     /tmp/cc4au8fv.s:404    .text._ZN14PeriodicThreadD2Ev:0000000000000034 .LFE105
     /tmp/cc4au8fv.s:4979   .debug_loc:0000000000000082 .LLST10
     /tmp/cc4au8fv.s:393    .text._ZN14PeriodicThreadD2Ev:0000000000000024 .LVL24
     /tmp/cc4au8fv.s:1062   .text:0000000000000498 .LFB100
     /tmp/cc4au8fv.s:1088   .text:00000000000004c0 .LFE100
     /tmp/cc4au8fv.s:4993   .debug_loc:00000000000000bb .LLST28
     /tmp/cc4au8fv.s:1077   .text:00000000000004b0 .LVL74
     /tmp/cc4au8fv.s:1031   .text:0000000000000470 .LFB99
     /tmp/cc4au8fv.s:1056   .text:0000000000000498 .LFE99
     /tmp/cc4au8fv.s:1045   .text:0000000000000488 .LVL72
     /tmp/cc4au8fv.s:999    .text:0000000000000448 .LFB98
     /tmp/cc4au8fv.s:1025   .text:0000000000000470 .LFE98
     /tmp/cc4au8fv.s:5007   .debug_loc:00000000000000f4 .LLST27
     /tmp/cc4au8fv.s:1014   .text:0000000000000460 .LVL71
     /tmp/cc4au8fv.s:100    .text:000000000000002c .LFB97
GAS LISTING /tmp/cc4au8fv.s 			page 39


     /tmp/cc4au8fv.s:134    .text:0000000000000064 .LFE97
     /tmp/cc4au8fv.s:5021   .debug_loc:000000000000012d .LLST2
     /tmp/cc4au8fv.s:125    .text:0000000000000054 .LVL7
     /tmp/cc4au8fv.s:130    .text:0000000000000060 .LVL8
     /tmp/cc4au8fv.s:5753   .debug_str:0000000000000a4c .LASF177
     /tmp/cc4au8fv.s:949    .text:00000000000003f8 .LFB95
     /tmp/cc4au8fv.s:991    .text:0000000000000448 .LFE95
     /tmp/cc4au8fv.s:5032   .debug_loc:0000000000000163 .LLST25
     /tmp/cc4au8fv.s:5050   .debug_loc:00000000000001af .LLST26
     /tmp/cc4au8fv.s:970    .text:0000000000000420 .LVL67
     /tmp/cc4au8fv.s:915    .text:00000000000003cc .LFB93
     /tmp/cc4au8fv.s:943    .text:00000000000003f8 .LFE93
     /tmp/cc4au8fv.s:5069   .debug_loc:00000000000001fc .LLST24
     /tmp/cc4au8fv.s:932    .text:00000000000003e8 .LVL65
     /tmp/cc4au8fv.s:881    .text:00000000000003a0 .LFB92
     /tmp/cc4au8fv.s:909    .text:00000000000003cc .LFE92
     /tmp/cc4au8fv.s:5083   .debug_loc:0000000000000235 .LLST22
     /tmp/cc4au8fv.s:5671   .debug_str:0000000000000803 .LASF178
     /tmp/cc4au8fv.s:5097   .debug_loc:000000000000026e .LLST23
     /tmp/cc4au8fv.s:898    .text:00000000000003bc .LVL62
     /tmp/cc4au8fv.s:847    .text:0000000000000374 .LFB91
     /tmp/cc4au8fv.s:875    .text:00000000000003a0 .LFE91
     /tmp/cc4au8fv.s:5111   .debug_loc:00000000000002a7 .LLST21
     /tmp/cc4au8fv.s:864    .text:0000000000000390 .LVL59
     /tmp/cc4au8fv.s:813    .text:0000000000000348 .LFB90
     /tmp/cc4au8fv.s:841    .text:0000000000000374 .LFE90
     /tmp/cc4au8fv.s:5125   .debug_loc:00000000000002e0 .LLST20
     /tmp/cc4au8fv.s:830    .text:0000000000000364 .LVL56
     /tmp/cc4au8fv.s:5579   .debug_str:0000000000000564 .LASF179
     /tmp/cc4au8fv.s:452    .text:00000000000001ac .LFB89
     /tmp/cc4au8fv.s:485    .text:00000000000001ec .LFE89
     /tmp/cc4au8fv.s:5139   .debug_loc:0000000000000319 .LLST12
     /tmp/cc4au8fv.s:469    .text:00000000000001cc .LVL30
     /tmp/cc4au8fv.s:472    .text:00000000000001d8 .LVL31
     /tmp/cc4au8fv.s:5445   .debug_str:0000000000000108 .LASF180
     /tmp/cc4au8fv.s:140    .text:0000000000000064 .LFB87
     /tmp/cc4au8fv.s:175    .text:000000000000009c .LFE87
     /tmp/cc4au8fv.s:5157   .debug_loc:0000000000000365 .LLST3
     /tmp/cc4au8fv.s:163    .text:000000000000008c .LVL11
     /tmp/cc4au8fv.s:5485   .debug_str:000000000000020d .LASF181
     /tmp/cc4au8fv.s:772    .text:0000000000000310 .LFB84
     /tmp/cc4au8fv.s:805    .text:0000000000000348 .LFE84
     /tmp/cc4au8fv.s:5171   .debug_loc:000000000000039e .LLST18
     /tmp/cc4au8fv.s:5191   .debug_loc:00000000000003ec .LLST19
     /tmp/cc4au8fv.s:793    .text:0000000000000338 .LVL53
     /tmp/cc4au8fv.s:62     .text:0000000000000000 .LFB82
     /tmp/cc4au8fv.s:94     .text:000000000000002c .LFE82
     /tmp/cc4au8fv.s:5205   .debug_loc:0000000000000425 .LLST0
     /tmp/cc4au8fv.s:5219   .debug_loc:000000000000045e .LLST1
     /tmp/cc4au8fv.s:83     .text:000000000000001c .LVL4
     /tmp/cc4au8fv.s:5681   .debug_str:000000000000083b .LASF182
     /tmp/cc4au8fv.s:735    .text:00000000000002e4 .LFB80
     /tmp/cc4au8fv.s:764    .text:0000000000000310 .LFE80
     /tmp/cc4au8fv.s:5821   .debug_str:0000000000000d32 .LASF183
     /tmp/cc4au8fv.s:413    .text:000000000000016c .LFB78
     /tmp/cc4au8fv.s:446    .text:00000000000001ac .LFE78
     /tmp/cc4au8fv.s:5233   .debug_loc:0000000000000497 .LLST11
GAS LISTING /tmp/cc4au8fv.s 			page 40


     /tmp/cc4au8fv.s:430    .text:000000000000018c .LVL26
     /tmp/cc4au8fv.s:433    .text:0000000000000198 .LVL27
     /tmp/cc4au8fv.s:5689   .debug_str:0000000000000885 .LASF184
     /tmp/cc4au8fv.s:296    .text:0000000000000114 .LFB76
     /tmp/cc4au8fv.s:360    .text:000000000000016c .LFE76
     /tmp/cc4au8fv.s:5251   .debug_loc:00000000000004e3 .LLST7
     /tmp/cc4au8fv.s:322    .text:000000000000013c .LBB13
     /tmp/cc4au8fv.s:336    .text:000000000000014c .LBE13
     /tmp/cc4au8fv.s:5265   .debug_loc:000000000000051c .LLST8
     /tmp/cc4au8fv.s:333    .text:000000000000014c .LVL21
     /tmp/cc4au8fv.s:337    .text:000000000000014c .LBB15
     /tmp/cc4au8fv.s:346    .text:0000000000000158 .LBE15
     /tmp/cc4au8fv.s:5272   .debug_loc:000000000000053f .LLST9
     /tmp/cc4au8fv.s:343    .text:0000000000000158 .LVL22
     /tmp/cc4au8fv.s:703    .text:00000000000002bc .LFB74
     /tmp/cc4au8fv.s:729    .text:00000000000002e4 .LFE74
     /tmp/cc4au8fv.s:5279   .debug_loc:0000000000000562 .LLST17
     /tmp/cc4au8fv.s:718    .text:00000000000002d4 .LVL49
     /tmp/cc4au8fv.s:672    .text:0000000000000294 .LFB73
     /tmp/cc4au8fv.s:697    .text:00000000000002bc .LFE73
     /tmp/cc4au8fv.s:686    .text:00000000000002ac .LVL47
     /tmp/cc4au8fv.s:617    .text:0000000000000240 .LFB72
     /tmp/cc4au8fv.s:666    .text:0000000000000294 .LFE72
     /tmp/cc4au8fv.s:5293   .debug_loc:000000000000059b .LLST16
     /tmp/cc4au8fv.s:640    .text:0000000000000268 .LVL43
     /tmp/cc4au8fv.s:662    .text:0000000000000290 .LVL46
     /tmp/cc4au8fv.s:5793   .debug_str:0000000000000c24 .LASF185
     /tmp/cc4au8fv.s:580    .text:0000000000000214 .LFB70
     /tmp/cc4au8fv.s:609    .text:0000000000000240 .LFE70
     /tmp/cc4au8fv.s:5653   .debug_str:0000000000000799 .LASF186
     /tmp/cc4au8fv.s:539    .text:00000000000001ec .LFB68
     /tmp/cc4au8fv.s:567    .text:0000000000000214 .LFE68
     /tmp/cc4au8fv.s:5328   .debug_loc:0000000000000625 .LLST15
     /tmp/cc4au8fv.s:556    .text:0000000000000204 .LVL39
     /tmp/cc4au8fv.s:5657   .debug_str:00000000000007a8 .LASF187
     /tmp/cc4au8fv.s:255    .text:00000000000000ec .LFB67
     /tmp/cc4au8fv.s:283    .text:0000000000000114 .LFE67
     /tmp/cc4au8fv.s:5342   .debug_loc:000000000000065e .LLST6
     /tmp/cc4au8fv.s:272    .text:0000000000000104 .LVL17
     /tmp/cc4au8fv.s:5449   .debug_str:0000000000000120 .LASF188
     /tmp/cc4au8fv.s:223    .text:00000000000000c4 .LFB66
     /tmp/cc4au8fv.s:249    .text:00000000000000ec .LFE66
     /tmp/cc4au8fv.s:5356   .debug_loc:0000000000000697 .LLST5
     /tmp/cc4au8fv.s:238    .text:00000000000000dc .LVL15
     /tmp/cc4au8fv.s:5537   .debug_str:00000000000003ea .LASF189
     /tmp/cc4au8fv.s:191    .text:000000000000009c .LFB65
     /tmp/cc4au8fv.s:217    .text:00000000000000c4 .LFE65
     /tmp/cc4au8fv.s:5370   .debug_loc:00000000000006d0 .LLST4
     /tmp/cc4au8fv.s:206    .text:00000000000000b4 .LVL13
     /tmp/cc4au8fv.s:37     .text._ZN14PeriodicThread18periodicActivationEv:0000000000000000 .LFB64
     /tmp/cc4au8fv.s:55     .text._ZN14PeriodicThread18periodicActivationEv:0000000000000018 .LFE64
     /tmp/cc4au8fv.s:11     .text._ZN6Thread3runEv:0000000000000000 .LFB63
     /tmp/cc4au8fv.s:30     .text._ZN6Thread3runEv:0000000000000018 .LFE63
     /tmp/cc4au8fv.s:5607   .debug_str:000000000000065b .LASF224
     /tmp/cc4au8fv.s:5759   .debug_str:0000000000000a7d .LASF190
     /tmp/cc4au8fv.s:5825   .debug_str:0000000000000d54 .LASF191
     /tmp/cc4au8fv.s:5851   .debug_str:0000000000000dff .LASF193
GAS LISTING /tmp/cc4au8fv.s 			page 41


     /tmp/cc4au8fv.s:5629   .debug_str:00000000000006e3 .LASF194
     /tmp/cc4au8fv.s:5677   .debug_str:0000000000000824 .LASF195
     /tmp/cc4au8fv.s:5505   .debug_str:00000000000002d8 .LASF196
     /tmp/cc4au8fv.s:5523   .debug_str:000000000000034f .LASF197
     /tmp/cc4au8fv.s:5675   .debug_str:0000000000000818 .LASF198
     /tmp/cc4au8fv.s:5435   .debug_str:000000000000008c .LASF199
     /tmp/cc4au8fv.s:5799   .debug_str:0000000000000c5c .LASF200
     /tmp/cc4au8fv.s:5763   .debug_str:0000000000000a8d .LASF201
     /tmp/cc4au8fv.s:5565   .debug_str:00000000000004ed .LASF202
     /tmp/cc4au8fv.s:5641   .debug_str:0000000000000744 .LASF203
     /tmp/cc4au8fv.s:5739   .debug_str:00000000000009fe .LASF204
     /tmp/cc4au8fv.s:5501   .debug_str:000000000000029b .LASF205
     /tmp/cc4au8fv.s:5695   .debug_str:00000000000008b9 .LASF206
     /tmp/cc4au8fv.s:5737   .debug_str:00000000000009e3 .LASF207
     /tmp/cc4au8fv.s:5703   .debug_str:00000000000008e1 .LASF208
     /tmp/cc4au8fv.s:5639   .debug_str:000000000000072f .LASF209
     /tmp/cc4au8fv.s:5699   .debug_str:00000000000008cc .LASF210
     /tmp/cc4au8fv.s:5549   .debug_str:0000000000000439 .LASF211
     /tmp/cc4au8fv.s:5815   .debug_str:0000000000000cfc .LASF212
     /tmp/cc4au8fv.s:5847   .debug_str:0000000000000deb .LASF213
     /tmp/cc4au8fv.s:5557   .debug_str:0000000000000499 .LASF214
     /tmp/cc4au8fv.s:495    .text._ZN14PeriodicThreadD0Ev:0000000000000000 .LVL33
     /tmp/cc4au8fv.s:527    .text._ZN14PeriodicThreadD0Ev:0000000000000044 .LVL37
     /tmp/cc4au8fv.s:507    .text._ZN14PeriodicThreadD0Ev:0000000000000018 .LVL34
     /tmp/cc4au8fv.s:379    .text._ZN14PeriodicThreadD2Ev:0000000000000000 .LVL23
     /tmp/cc4au8fv.s:1065   .text:0000000000000498 .LVL73
     /tmp/cc4au8fv.s:1002   .text:0000000000000448 .LVL70
     /tmp/cc4au8fv.s:103    .text:000000000000002c .LVL5
     /tmp/cc4au8fv.s:115    .text:0000000000000044 .LVL6
     /tmp/cc4au8fv.s:952    .text:00000000000003f8 .LVL66
     /tmp/cc4au8fv.s:983    .text:000000000000043c .LVL68
     /tmp/cc4au8fv.s:986    .text:0000000000000440 .LVL69
     /tmp/cc4au8fv.s:918    .text:00000000000003cc .LVL63
     /tmp/cc4au8fv.s:930    .text:00000000000003e0 .LVL64
     /tmp/cc4au8fv.s:884    .text:00000000000003a0 .LVL60
     /tmp/cc4au8fv.s:896    .text:00000000000003b4 .LVL61
     /tmp/cc4au8fv.s:850    .text:0000000000000374 .LVL57
     /tmp/cc4au8fv.s:862    .text:0000000000000388 .LVL58
     /tmp/cc4au8fv.s:816    .text:0000000000000348 .LVL54
     /tmp/cc4au8fv.s:828    .text:000000000000035c .LVL55
     /tmp/cc4au8fv.s:455    .text:00000000000001ac .LVL29
     /tmp/cc4au8fv.s:480    .text:00000000000001e4 .LVL32
     /tmp/cc4au8fv.s:145    .text:0000000000000064 .LVL9
     /tmp/cc4au8fv.s:161    .text:0000000000000084 .LVL10
     /tmp/cc4au8fv.s:775    .text:0000000000000310 .LVL51
     /tmp/cc4au8fv.s:791    .text:0000000000000330 .LVL52
     /tmp/cc4au8fv.s:66     .text:0000000000000000 .LVL2
     /tmp/cc4au8fv.s:76     .text:0000000000000010 .LVL3
     /tmp/cc4au8fv.s:416    .text:000000000000016c .LVL25
     /tmp/cc4au8fv.s:441    .text:00000000000001a4 .LVL28
     /tmp/cc4au8fv.s:301    .text:0000000000000114 .LVL18
     /tmp/cc4au8fv.s:328    .text:0000000000000140 .LVL20
     /tmp/cc4au8fv.s:321    .text:000000000000013c .LVL19
     /tmp/cc4au8fv.s:706    .text:00000000000002bc .LVL48
     /tmp/cc4au8fv.s:620    .text:0000000000000240 .LVL41
     /tmp/cc4au8fv.s:638    .text:0000000000000260 .LVL42
     /tmp/cc4au8fv.s:652    .text:0000000000000278 .LVL44
GAS LISTING /tmp/cc4au8fv.s 			page 42


     /tmp/cc4au8fv.s:660    .text:0000000000000288 .LVL45
     /tmp/cc4au8fv.s:544    .text:00000000000001ec .LVL38
     /tmp/cc4au8fv.s:260    .text:00000000000000ec .LVL16
     /tmp/cc4au8fv.s:226    .text:00000000000000c4 .LVL14
     /tmp/cc4au8fv.s:194    .text:000000000000009c .LVL12
     /tmp/cc4au8fv.s:1132   .debug_info:0000000000000000 .Ldebug_info0
     /tmp/cc4au8fv.s:5      .text:0000000000000000 .Ltext0
     /tmp/cc4au8fv.s:1124   .text:00000000000004c0 .Letext0
     /tmp/cc4au8fv.s:178    .gcc_except_table:0000000000000000 .LLSDA87
     /tmp/cc4au8fv.s:285    .gcc_except_table:0000000000000004 .LLSDA67
     /tmp/cc4au8fv.s:362    .gcc_except_table:0000000000000008 .LLSDA76
     /tmp/cc4au8fv.s:569    .gcc_except_table:000000000000000c .LLSDA68
                           .group:0000000000000000 _ZN14PeriodicThreadD5Ev

UNDEFINED SYMBOLS
_Z10time_sleepm
_Z9sem_closeP10_Semaphore
__gxx_personality_v0
_Z9mem_allocm
_Z8mem_freePv
_ZN15MemoryAllocator8mem_freeEPv
_Z13thread_createPP3TCBPFvPvES2_
_Z15thread_dispatchv
_Z8sem_openPP10_Semaphorej
_Z8sem_waitP10_Semaphore
_Z10sem_signalP10_Semaphore
_Z13sem_timedwaitP10_Semaphorem
_Z11sem_trywaitP10_Semaphore
_Z11thread_exitv
_Z4getcv
_Z4putcc
