GAS LISTING /tmp/cc6O7FTK.s 			page 1


   1              		.file	"tcb.cpp"
   2              		.option pic
   3              		.option norelax
   4              		.text
   5              	.Ltext0:
   6              		.align	2
   7              		.globl	_ZN3TCB12createThreadEPFvPvES0_m
   9              	_ZN3TCB12createThreadEPFvPvES0_m:
  10              	.LFB63:
  11              		.file 1 "src/tcb.cpp"
   1:src/tcb.cpp   **** #include "../h/tcb.hpp"
   2:src/tcb.cpp   **** #include "../h/syscall_c.hpp"
   3:src/tcb.cpp   **** 
   4:src/tcb.cpp   **** TCB* TCB::running = nullptr;
   5:src/tcb.cpp   **** 
   6:src/tcb.cpp   **** uint64 TCB::timeSliceCounter = 0;
   7:src/tcb.cpp   **** 
   8:src/tcb.cpp   **** TCB* TCB::createThread(TCB::Body body, void* arg, uint64 timeSlice) {
  12              		.loc 1 8 69
  13              		.cfi_startproc
  14              		.cfi_personality 0x9b,DW.ref.__gxx_personality_v0
  15              		.cfi_lsda 0x1b,.LLSDA63
  16              	.LVL0:
  17 0000 130101FD 		addi	sp,sp,-48
  18              		.cfi_def_cfa_offset 48
  19 0004 23341102 		sd	ra,40(sp)
  20 0008 23308102 		sd	s0,32(sp)
  21 000c 233C9100 		sd	s1,24(sp)
  22 0010 23382101 		sd	s2,16(sp)
  23 0014 23343101 		sd	s3,8(sp)
  24 0018 23304101 		sd	s4,0(sp)
  25              		.cfi_offset 1, -8
  26              		.cfi_offset 8, -16
  27              		.cfi_offset 9, -24
  28              		.cfi_offset 18, -32
  29              		.cfi_offset 19, -40
  30              		.cfi_offset 20, -48
  31 001c 13040103 		addi	s0,sp,48
  32              		.cfi_def_cfa 8, 0
  33 0020 13090500 		mv	s2,a0
  34 0024 93890500 		mv	s3,a1
  35 0028 130A0600 		mv	s4,a2
   9:src/tcb.cpp   ****     return new TCB(body, arg, timeSlice);
  36              		.loc 1 9 5
  37              	.LVL1:
  38              	.LBB17:
  39              	.LBB18:
  40              		.file 2 "src/../h/tcb.hpp"
   1:src/../h/tcb.hpp **** #ifndef TCP_HPP
   2:src/../h/tcb.hpp **** #define TCP_HPP
   3:src/../h/tcb.hpp **** 
   4:src/../h/tcb.hpp **** #include "../lib/hw.h"
   5:src/../h/tcb.hpp **** #include "../h/scheduler.hpp"
   6:src/../h/tcb.hpp **** #include "../h/riscv.hpp"
   7:src/../h/tcb.hpp **** #include "../h/memory_allocator.hpp"
   8:src/../h/tcb.hpp **** 
   9:src/../h/tcb.hpp **** // Thread Control Block
GAS LISTING /tmp/cc6O7FTK.s 			page 2


  10:src/../h/tcb.hpp **** class TCB
  11:src/../h/tcb.hpp **** {
  12:src/../h/tcb.hpp **** private:
  13:src/../h/tcb.hpp ****     using Body = void (*)(void*);
  14:src/../h/tcb.hpp ****     Body body;
  15:src/../h/tcb.hpp ****     uint64* stack;
  16:src/../h/tcb.hpp **** 
  17:src/../h/tcb.hpp ****     // Thread context struct
  18:src/../h/tcb.hpp ****     struct Context {
  19:src/../h/tcb.hpp ****         uint64 ra; // Return address
  20:src/../h/tcb.hpp ****         uint64 sp; // Stack pointer
  21:src/../h/tcb.hpp ****     };
  22:src/../h/tcb.hpp **** 
  23:src/../h/tcb.hpp ****     // Thread context
  24:src/../h/tcb.hpp ****     Context context;
  25:src/../h/tcb.hpp ****     bool finished;
  26:src/../h/tcb.hpp ****     bool blocked;
  27:src/../h/tcb.hpp ****     uint64 timeSlice;
  28:src/../h/tcb.hpp ****     time_t sleepingTime;
  29:src/../h/tcb.hpp ****     bool sleep;
  30:src/../h/tcb.hpp ****     void* arg;
  31:src/../h/tcb.hpp **** 
  32:src/../h/tcb.hpp ****     static void contextSwitch(Context* oldContext, Context* newContext);
  33:src/../h/tcb.hpp **** 
  34:src/../h/tcb.hpp ****     TCB(Body body, void* arg, uint64 timeSlice) :
  35:src/../h/tcb.hpp ****             body(body),
  36:src/../h/tcb.hpp ****             stack(body ? (uint64*)MemoryAllocator::mem_alloc(sizeof(uint64) * DEFAULT_STACK_SIZE) :
  37:src/../h/tcb.hpp ****             context({(uint64)&threadWrapper, stack ? (uint64)&stack[DEFAULT_STACK_SIZE] : 0}),
  38:src/../h/tcb.hpp ****             finished(false),
  39:src/../h/tcb.hpp ****             blocked(false),
  40:src/../h/tcb.hpp ****             timeSlice(timeSlice),
  41:src/../h/tcb.hpp ****             sleepingTime(0),
  42:src/../h/tcb.hpp ****             sleep(false),
  43:src/../h/tcb.hpp ****             arg(arg)
  44:src/../h/tcb.hpp ****     { if (body) Scheduler::put(this); }
  45:src/../h/tcb.hpp **** 
  46:src/../h/tcb.hpp **** public:
  47:src/../h/tcb.hpp **** 
  48:src/../h/tcb.hpp ****     void* operator new(size_t size) {
  49:src/../h/tcb.hpp ****         return MemoryAllocator::mem_alloc(size);
  41              		.loc 2 49 9
  42              		.loc 2 49 42 is_stmt 0
  43 002c 13058004 		li	a0,72
  44              	.LVL2:
  45              	.LEHB0:
  46 0030 97000000 		call	_ZN15MemoryAllocator9mem_allocEm@plt
  46      E7800000 
  47              	.LVL3:
  48              	.LEHE0:
  49 0038 93040500 		mv	s1,a0
  50              	.LVL4:
  51              	.LBE18:
  52              	.LBE17:
  53              	.LBB19:
  54              	.LBB20:
  43:src/../h/tcb.hpp ****     { if (body) Scheduler::put(this); }
  55              		.loc 2 43 20
GAS LISTING /tmp/cc6O7FTK.s 			page 3


  56 003c 23302501 		sd	s2,0(a0)
  36:src/../h/tcb.hpp ****             context({(uint64)&threadWrapper, stack ? (uint64)&stack[DEFAULT_STACK_SIZE] : 0}),
  57              		.loc 2 36 24
  58 0040 630A0900 		beqz	s2,.L6
  36:src/../h/tcb.hpp ****             context({(uint64)&threadWrapper, stack ? (uint64)&stack[DEFAULT_STACK_SIZE] : 0}),
  59              		.loc 2 36 61
  60 0044 37850000 		li	a0,32768
  61              	.LEHB1:
  62 0048 97000000 		call	_ZN15MemoryAllocator9mem_allocEm@plt
  62      E7800000 
  63              	.LVL5:
  64 0050 6F008000 		j	.L2
  65              	.L6:
  36:src/../h/tcb.hpp ****             context({(uint64)&threadWrapper, stack ? (uint64)&stack[DEFAULT_STACK_SIZE] : 0}),
  66              		.loc 2 36 24
  67 0054 13050000 		li	a0,0
  68              	.L2:
  43:src/../h/tcb.hpp ****     { if (body) Scheduler::put(this); }
  69              		.loc 2 43 20
  70 0058 23B4A400 		sd	a0,8(s1)
  71 005c 97070000 		lla	a5,_ZN3TCB13threadWrapperEv
  71      93870700 
  72 0064 23B8F400 		sd	a5,16(s1)
  37:src/../h/tcb.hpp ****             finished(false),
  73              		.loc 2 37 52
  74 0068 630E0502 		beqz	a0,.L7
  37:src/../h/tcb.hpp ****             finished(false),
  75              		.loc 2 37 62
  76 006c B7870000 		li	a5,32768
  77 0070 B307F500 		add	a5,a0,a5
  78              	.L3:
  43:src/../h/tcb.hpp ****     { if (body) Scheduler::put(this); }
  79              		.loc 2 43 20
  80 0074 23BCF400 		sd	a5,24(s1)
  81 0078 23800402 		sb	zero,32(s1)
  82 007c A3800402 		sb	zero,33(s1)
  83 0080 23B44403 		sd	s4,40(s1)
  84 0084 23B80402 		sd	zero,48(s1)
  85 0088 238C0402 		sb	zero,56(s1)
  86 008c 23B03405 		sd	s3,64(s1)
  44:src/../h/tcb.hpp **** 
  87              		.loc 2 44 7 is_stmt 1
  88 0090 630C0902 		beqz	s2,.L1
  44:src/../h/tcb.hpp **** 
  89              		.loc 2 44 17
  44:src/../h/tcb.hpp **** 
  90              		.loc 2 44 31 is_stmt 0
  91 0094 13850400 		mv	a0,s1
  92 0098 97000000 		call	_ZN9Scheduler3putEP3TCB@plt
  92      E7800000 
  93              	.LVL6:
  94              	.LEHE1:
  95 00a0 6F008002 		j	.L1
  96              	.L7:
  37:src/../h/tcb.hpp ****             finished(false),
  97              		.loc 2 37 52
  98 00a4 93070000 		li	a5,0
GAS LISTING /tmp/cc6O7FTK.s 			page 4


  99 00a8 6FF0DFFC 		j	.L3
 100              	.L8:
 101 00ac 13090500 		mv	s2,a0
 102              	.LVL7:
 103              	.LBE20:
 104              	.LBE19:
 105              	.LBB21:
 106              	.LBB22:
  50:src/../h/tcb.hpp ****     }
  51:src/../h/tcb.hpp **** 
  52:src/../h/tcb.hpp ****     void* operator new[] (size_t size) {
  53:src/../h/tcb.hpp ****         return MemoryAllocator::mem_alloc(size);
  54:src/../h/tcb.hpp ****     }
  55:src/../h/tcb.hpp **** 
  56:src/../h/tcb.hpp ****     void operator delete(void* ptr) noexcept {
  57:src/../h/tcb.hpp ****         MemoryAllocator::mem_free(ptr);
 107              		.loc 2 57 9 is_stmt 1
 108              		.loc 2 57 34 is_stmt 0
 109 00b0 13850400 		mv	a0,s1
 110 00b4 97000000 		call	_ZN15MemoryAllocator8mem_freeEPv@plt
 110      E7800000 
 111              	.LVL8:
 112 00bc 13050900 		mv	a0,s2
 113              	.LEHB2:
 114 00c0 97000000 		call	_Unwind_Resume@plt
 114      E7800000 
 115              	.LVL9:
 116              	.LEHE2:
 117              	.L1:
 118              	.LBE22:
 119              	.LBE21:
  10:src/tcb.cpp   **** }
 120              		.loc 1 10 1
 121 00c8 13850400 		mv	a0,s1
 122 00cc 83308102 		ld	ra,40(sp)
 123              		.cfi_restore 1
 124 00d0 03340102 		ld	s0,32(sp)
 125              		.cfi_restore 8
 126              		.cfi_def_cfa 2, 48
 127 00d4 83348101 		ld	s1,24(sp)
 128              		.cfi_restore 9
 129              	.LVL10:
 130 00d8 03390101 		ld	s2,16(sp)
 131              		.cfi_restore 18
 132              	.LVL11:
 133 00dc 83398100 		ld	s3,8(sp)
 134              		.cfi_restore 19
 135              	.LVL12:
 136 00e0 033A0100 		ld	s4,0(sp)
 137              		.cfi_restore 20
 138              	.LVL13:
 139 00e4 13010103 		addi	sp,sp,48
 140              		.cfi_def_cfa_offset 0
 141 00e8 67800000 		jr	ra
 142              		.cfi_endproc
 143              	.LFE63:
 144              		.globl	__gxx_personality_v0
GAS LISTING /tmp/cc6O7FTK.s 			page 5


 145              		.section	.gcc_except_table,"a",@progbits
 146              	.LLSDA63:
 147 0000 FF       		.byte	0xff
 148 0001 FF       		.byte	0xff
 149 0002 03       		.byte	0x3
 150 0003 27       		.byte	0x27
 151 0004 00000000 		.4byte	.LEHB0-.LFB63
 152 0008 00000000 		.4byte	.LEHE0-.LEHB0
 153 000c 00000000 		.4byte	0
 154 0010 00       		.byte	0
 155 0011 00000000 		.4byte	.LEHB1-.LFB63
 156 0015 00000000 		.4byte	.LEHE1-.LEHB1
 157 0019 00000000 		.4byte	.L8-.LFB63
 158 001d 00       		.byte	0
 159 001e 00000000 		.4byte	.LEHB2-.LFB63
 160 0022 00000000 		.4byte	.LEHE2-.LEHB2
 161 0026 00000000 		.4byte	0
 162 002a 00       		.byte	0
 163              		.text
 165              		.align	2
 166              		.globl	_ZN3TCB5yieldEv
 168              	_ZN3TCB5yieldEv:
 169              	.LFB64:
  11:src/tcb.cpp   **** 
  12:src/tcb.cpp   **** void TCB::yield() {
 170              		.loc 1 12 19 is_stmt 1
 171              		.cfi_startproc
 172 00ec 130101FF 		addi	sp,sp,-16
 173              		.cfi_def_cfa_offset 16
 174 00f0 23341100 		sd	ra,8(sp)
 175 00f4 23308100 		sd	s0,0(sp)
 176              		.cfi_offset 1, -8
 177              		.cfi_offset 8, -16
 178 00f8 13040101 		addi	s0,sp,16
 179              		.cfi_def_cfa 8, 0
  13:src/tcb.cpp   ****     thread_dispatch();
 180              		.loc 1 13 5
 181              		.loc 1 13 20 is_stmt 0
 182 00fc 97000000 		call	_Z15thread_dispatchv@plt
 182      E7800000 
 183              	.LVL14:
  14:src/tcb.cpp   **** }
 184              		.loc 1 14 1
 185 0104 83308100 		ld	ra,8(sp)
 186              		.cfi_restore 1
 187 0108 03340100 		ld	s0,0(sp)
 188              		.cfi_restore 8
 189              		.cfi_def_cfa 2, 16
 190 010c 13010101 		addi	sp,sp,16
 191              		.cfi_def_cfa_offset 0
 192 0110 67800000 		jr	ra
 193              		.cfi_endproc
 194              	.LFE64:
 196              		.align	2
 197              		.globl	_ZN3TCB13threadWrapperEv
 199              	_ZN3TCB13threadWrapperEv:
 200              	.LFB66:
GAS LISTING /tmp/cc6O7FTK.s 			page 6


  15:src/tcb.cpp   **** 
  16:src/tcb.cpp   **** void TCB::dispatch() {
  17:src/tcb.cpp   ****     TCB* old = TCB::running;
  18:src/tcb.cpp   ****     if (!old->finished && !old->blocked && !old->isSleeping())
  19:src/tcb.cpp   ****         Scheduler::put(old);
  20:src/tcb.cpp   ****     TCB::running = Scheduler::get();
  21:src/tcb.cpp   **** 
  22:src/tcb.cpp   ****     if (old != running)
  23:src/tcb.cpp   ****         TCB::contextSwitch(&old->context, &TCB::running->context);
  24:src/tcb.cpp   **** }
  25:src/tcb.cpp   **** 
  26:src/tcb.cpp   **** void TCB::threadWrapper() {
 201              		.loc 1 26 27 is_stmt 1
 202              		.cfi_startproc
 203 0114 130101FE 		addi	sp,sp,-32
 204              		.cfi_def_cfa_offset 32
 205 0118 233C1100 		sd	ra,24(sp)
 206 011c 23388100 		sd	s0,16(sp)
 207 0120 23349100 		sd	s1,8(sp)
 208              		.cfi_offset 1, -8
 209              		.cfi_offset 8, -16
 210              		.cfi_offset 9, -24
 211 0124 13040102 		addi	s0,sp,32
 212              		.cfi_def_cfa 8, 0
  27:src/tcb.cpp   ****     Riscv::popSppSpie();
 213              		.loc 1 27 5
 214              		.loc 1 27 22 is_stmt 0
 215 0128 97000000 		call	_ZN5Riscv10popSppSpieEv@plt
 215      E7800000 
 216              	.LVL15:
  28:src/tcb.cpp   ****     running->body(running->arg);
 217              		.loc 1 28 5 is_stmt 1
 218              		.loc 1 28 14 is_stmt 0
 219 0130 97040000 		lla	s1,.LANCHOR0
 219      93840400 
 220 0138 83B70400 		ld	a5,0(s1)
 221 013c 03B70700 		ld	a4,0(a5)
 222              		.loc 1 28 18
 223 0140 03B50704 		ld	a0,64(a5)
 224 0144 E7000700 		jalr	a4
 225              	.LVL16:
  29:src/tcb.cpp   ****     running->setFinished(true);
 226              		.loc 1 29 5 is_stmt 1
 227              		.loc 1 29 25 is_stmt 0
 228 0148 83B70400 		ld	a5,0(s1)
 229              	.LVL17:
 230              	.LBB23:
 231              	.LBB24:
  58:src/../h/tcb.hpp ****     }
  59:src/../h/tcb.hpp **** 
  60:src/../h/tcb.hpp ****     void operator delete[] (void* ptr) noexcept {
  61:src/../h/tcb.hpp ****         MemoryAllocator::mem_free(ptr);
  62:src/../h/tcb.hpp ****     }
  63:src/../h/tcb.hpp **** 
  64:src/../h/tcb.hpp ****     static TCB* createThread(Body body, void* arg, uint64 timeSlice);
  65:src/../h/tcb.hpp **** 
  66:src/../h/tcb.hpp ****     // Getter and setter for finished
GAS LISTING /tmp/cc6O7FTK.s 			page 7


  67:src/../h/tcb.hpp ****     bool isFinished() const { return this->finished; }
  68:src/../h/tcb.hpp ****     void setFinished(bool value) { this->finished = value; }
 232              		.loc 2 68 36 is_stmt 1
 233              		.loc 2 68 51 is_stmt 0
 234 014c 13071000 		li	a4,1
 235 0150 2380E702 		sb	a4,32(a5)
 236              	.LVL18:
 237              	.LBE24:
 238              	.LBE23:
  30:src/tcb.cpp   ****     TCB::yield();
 239              		.loc 1 30 5 is_stmt 1
 240              		.loc 1 30 15 is_stmt 0
 241 0154 97000000 		call	_ZN3TCB5yieldEv
 241      E7800000 
 242              	.LVL19:
  31:src/tcb.cpp   **** }...
 243              		.loc 1 31 1
 244 015c 83308101 		ld	ra,24(sp)
 245              		.cfi_restore 1
 246 0160 03340101 		ld	s0,16(sp)
 247              		.cfi_restore 8
 248              		.cfi_def_cfa 2, 32
 249 0164 83348100 		ld	s1,8(sp)
 250              		.cfi_restore 9
 251 0168 13010102 		addi	sp,sp,32
 252              		.cfi_def_cfa_offset 0
 253 016c 67800000 		jr	ra
 254              		.cfi_endproc
 255              	.LFE66:
 257              		.align	2
 258              		.globl	_ZN3TCB8dispatchEv
 260              	_ZN3TCB8dispatchEv:
 261              	.LFB65:
  16:src/tcb.cpp   **** void TCB::dispatch() {
 262              		.loc 1 16 22 is_stmt 1
 263              		.cfi_startproc
 264 0170 130101FE 		addi	sp,sp,-32
 265              		.cfi_def_cfa_offset 32
 266 0174 233C1100 		sd	ra,24(sp)
 267 0178 23388100 		sd	s0,16(sp)
 268 017c 23349100 		sd	s1,8(sp)
 269              		.cfi_offset 1, -8
 270              		.cfi_offset 8, -16
 271              		.cfi_offset 9, -24
 272 0180 13040102 		addi	s0,sp,32
 273              		.cfi_def_cfa 8, 0
  17:src/tcb.cpp   ****     TCB* old = TCB::running;
 274              		.loc 1 17 5
  17:src/tcb.cpp   ****     TCB* old = TCB::running;
 275              		.loc 1 17 10 is_stmt 0
 276 0184 97040000 		ld	s1,.LANCHOR0
 276      83B40400 
 277              	.LVL20:
  18:src/tcb.cpp   ****     if (!old->finished && !old->blocked && !old->isSleeping())
 278              		.loc 1 18 5 is_stmt 1
  18:src/tcb.cpp   ****     if (!old->finished && !old->blocked && !old->isSleeping())
 279              		.loc 1 18 15 is_stmt 0
GAS LISTING /tmp/cc6O7FTK.s 			page 8


 280 018c 83C70402 		lbu	a5,32(s1)
  18:src/tcb.cpp   ****     if (!old->finished && !old->blocked && !old->isSleeping())
 281              		.loc 1 18 41
 282 0190 639A0700 		bnez	a5,.L15
  18:src/tcb.cpp   ****     if (!old->finished && !old->blocked && !old->isSleeping())
 283              		.loc 1 18 33 discriminator 1
 284 0194 83C71402 		lbu	a5,33(s1)
  18:src/tcb.cpp   ****     if (!old->finished && !old->blocked && !old->isSleeping())
 285              		.loc 1 18 24 discriminator 1
 286 0198 63960700 		bnez	a5,.L15
 287              	.LVL21:
 288              	.LBB25:
 289              	.LBB26:
  69:src/../h/tcb.hpp **** 
  70:src/../h/tcb.hpp ****     // Getter and setter for blocked
  71:src/../h/tcb.hpp ****     bool isBlocked() const { return this->blocked; }
  72:src/../h/tcb.hpp ****     void setBlocked(bool value) { this->blocked = value; }
  73:src/../h/tcb.hpp **** 
  74:src/../h/tcb.hpp ****     // Getter for time slice
  75:src/../h/tcb.hpp ****     uint64 getTimeSlice() const { return this->timeSlice; }
  76:src/../h/tcb.hpp ****     static uint64 timeSliceCounter;
  77:src/../h/tcb.hpp **** 
  78:src/../h/tcb.hpp ****     // Sleeping getters and setters
  79:src/../h/tcb.hpp ****     void setSleepingTime(time_t time) { this->sleepingTime = time; }
  80:src/../h/tcb.hpp ****     time_t getSleepingTime() const { return this->sleepingTime; }
  81:src/../h/tcb.hpp **** 
  82:src/../h/tcb.hpp ****     void setSleep(bool val) { this->sleep = val; }
  83:src/../h/tcb.hpp ****     bool isSleeping() const { return this->sleep; }
 290              		.loc 2 83 31 is_stmt 1
 291              		.loc 2 83 44 is_stmt 0
 292 019c 83C78403 		lbu	a5,56(s1)
 293              	.LVL22:
 294              	.LBE26:
 295              	.LBE25:
  18:src/tcb.cpp   ****     if (!old->finished && !old->blocked && !old->isSleeping())
 296              		.loc 1 18 41
 297 01a0 638E0702 		beqz	a5,.L18
 298              	.L15:
  20:src/tcb.cpp   ****     TCB::running = Scheduler::get();
 299              		.loc 1 20 5 is_stmt 1
  20:src/tcb.cpp   ****     TCB::running = Scheduler::get();
 300              		.loc 1 20 34 is_stmt 0
 301 01a4 97000000 		call	_ZN9Scheduler3getEv@plt
 301      E7800000 
 302              	.LVL23:
  20:src/tcb.cpp   ****     TCB::running = Scheduler::get();
 303              		.loc 1 20 18
 304 01ac 97070000 		sd	a0,.LANCHOR0,a5
 304      23B0A700 
  22:src/tcb.cpp   ****     if (old != running)
 305              		.loc 1 22 5 is_stmt 1
 306 01b4 638AA400 		beq	s1,a0,.L14
  23:src/tcb.cpp   ****         TCB::contextSwitch(&old->context, &TCB::running->context);
 307              		.loc 1 23 9
  23:src/tcb.cpp   ****         TCB::contextSwitch(&old->context, &TCB::running->context);
 308              		.loc 1 23 27 is_stmt 0
 309 01b8 93050501 		addi	a1,a0,16
GAS LISTING /tmp/cc6O7FTK.s 			page 9


 310 01bc 13850401 		addi	a0,s1,16
 311 01c0 97000000 		call	_ZN3TCB13contextSwitchEPNS_7ContextES1_@plt
 311      E7800000 
 312              	.LVL24:
 313              	.L14:
  24:src/tcb.cpp   **** }
 314              		.loc 1 24 1
 315 01c8 83308101 		ld	ra,24(sp)
 316              		.cfi_remember_state
 317              		.cfi_restore 1
 318 01cc 03340101 		ld	s0,16(sp)
 319              		.cfi_restore 8
 320              		.cfi_def_cfa 2, 32
 321 01d0 83348100 		ld	s1,8(sp)
 322              		.cfi_restore 9
 323              	.LVL25:
 324 01d4 13010102 		addi	sp,sp,32
 325              		.cfi_def_cfa_offset 0
 326 01d8 67800000 		jr	ra
 327              	.LVL26:
 328              	.L18:
 329              		.cfi_restore_state
  19:src/tcb.cpp   ****         Scheduler::put(old);
 330              		.loc 1 19 9 is_stmt 1
  19:src/tcb.cpp   ****         Scheduler::put(old);
 331              		.loc 1 19 23 is_stmt 0
 332 01dc 13850400 		mv	a0,s1
 333 01e0 97000000 		call	_ZN9Scheduler3putEP3TCB@plt
 333      E7800000 
 334              	.LVL27:
 335 01e8 6FF0DFFB 		j	.L15
 336              		.cfi_endproc
 337              	.LFE65:
 339              		.globl	_ZN3TCB16timeSliceCounterE
 340              		.globl	_ZN3TCB7runningE
 341              		.bss
 342              		.align	3
 343              		.set	.LANCHOR0,. + 0
 346              	_ZN3TCB7runningE:
 347 0000 00000000 		.zero	8
 347      00000000 
 350              	_ZN3TCB16timeSliceCounterE:
 351 0008 00000000 		.zero	8
 351      00000000 
 352              		.text
 353              	.Letext0:
 354              		.file 3 "src/../h/../lib/hw.h"
 355              		.file 4 "src/../h/../h/../h/memory_allocator.hpp"
 356              		.file 5 "src/../h/../h/scheduler.hpp"
 357              		.file 6 "src/../h/../h/list.hpp"
 358              		.file 7 "src/../h/../h/riscv.hpp"
 359              		.file 8 "src/../h/syscall_c.hpp"
 3315              		.align	3
 3318              	DW.ref.__gxx_personality_v0:
 3319 0000 00000000 		.dword	__gxx_personality_v0
 3319      00000000 
 3320              		.ident	"GCC: (Ubuntu 9.4.0-1ubuntu1~20.04) 9.4.0"
GAS LISTING /tmp/cc6O7FTK.s 			page 10


 3321              		.section	.note.GNU-stack,"",@progbits
GAS LISTING /tmp/cc6O7FTK.s 			page 11


DEFINED SYMBOLS
                            *ABS*:0000000000000000 tcb.cpp
     /tmp/cc6O7FTK.s:9      .text:0000000000000000 _ZN3TCB12createThreadEPFvPvES0_m
     /tmp/cc6O7FTK.s:13     .text:0000000000000000 .L0 
     /tmp/cc6O7FTK.s:3318   .data.rel.local.DW.ref.__gxx_personality_v0:0000000000000000 DW.ref.__gxx_personality_v0
     /tmp/cc6O7FTK.s:17     .text:0000000000000000 .L0 
     /tmp/cc6O7FTK.s:18     .text:0000000000000004 .L0 
     /tmp/cc6O7FTK.s:25     .text:000000000000001c .L0 
     /tmp/cc6O7FTK.s:26     .text:000000000000001c .L0 
     /tmp/cc6O7FTK.s:27     .text:000000000000001c .L0 
     /tmp/cc6O7FTK.s:28     .text:000000000000001c .L0 
     /tmp/cc6O7FTK.s:29     .text:000000000000001c .L0 
     /tmp/cc6O7FTK.s:30     .text:000000000000001c .L0 
     /tmp/cc6O7FTK.s:32     .text:0000000000000020 .L0 
     /tmp/cc6O7FTK.s:41     .text:000000000000002c .L0 
     /tmp/cc6O7FTK.s:42     .text:000000000000002c .L0 
     /tmp/cc6O7FTK.s:43     .text:000000000000002c .L0 
     /tmp/cc6O7FTK.s:56     .text:000000000000003c .L0 
     /tmp/cc6O7FTK.s:58     .text:0000000000000040 .L0 
     /tmp/cc6O7FTK.s:60     .text:0000000000000044 .L0 
     /tmp/cc6O7FTK.s:67     .text:0000000000000054 .L0 
     /tmp/cc6O7FTK.s:70     .text:0000000000000058 .L0 
     /tmp/cc6O7FTK.s:199    .text:0000000000000114 _ZN3TCB13threadWrapperEv
     /tmp/cc6O7FTK.s:74     .text:0000000000000068 .L0 
     /tmp/cc6O7FTK.s:76     .text:000000000000006c .L0 
     /tmp/cc6O7FTK.s:80     .text:0000000000000074 .L0 
     /tmp/cc6O7FTK.s:88     .text:0000000000000090 .L0 
     /tmp/cc6O7FTK.s:90     .text:0000000000000094 .L0 
     /tmp/cc6O7FTK.s:91     .text:0000000000000094 .L0 
     /tmp/cc6O7FTK.s:98     .text:00000000000000a4 .L0 
     /tmp/cc6O7FTK.s:108    .text:00000000000000b0 .L0 
     /tmp/cc6O7FTK.s:109    .text:00000000000000b0 .L0 
     /tmp/cc6O7FTK.s:121    .text:00000000000000c8 .L0 
     /tmp/cc6O7FTK.s:123    .text:00000000000000d0 .L0 
     /tmp/cc6O7FTK.s:125    .text:00000000000000d4 .L0 
     /tmp/cc6O7FTK.s:126    .text:00000000000000d4 .L0 
     /tmp/cc6O7FTK.s:128    .text:00000000000000d8 .L0 
     /tmp/cc6O7FTK.s:131    .text:00000000000000dc .L0 
     /tmp/cc6O7FTK.s:134    .text:00000000000000e0 .L0 
     /tmp/cc6O7FTK.s:137    .text:00000000000000e4 .L0 
     /tmp/cc6O7FTK.s:140    .text:00000000000000e8 .L0 
     /tmp/cc6O7FTK.s:142    .text:00000000000000ec .L0 
     /tmp/cc6O7FTK.s:168    .text:00000000000000ec _ZN3TCB5yieldEv
     /tmp/cc6O7FTK.s:171    .text:00000000000000ec .L0 
     /tmp/cc6O7FTK.s:172    .text:00000000000000ec .L0 
     /tmp/cc6O7FTK.s:173    .text:00000000000000f0 .L0 
     /tmp/cc6O7FTK.s:176    .text:00000000000000f8 .L0 
     /tmp/cc6O7FTK.s:177    .text:00000000000000f8 .L0 
     /tmp/cc6O7FTK.s:179    .text:00000000000000fc .L0 
     /tmp/cc6O7FTK.s:181    .text:00000000000000fc .L0 
     /tmp/cc6O7FTK.s:182    .text:00000000000000fc .L0 
     /tmp/cc6O7FTK.s:185    .text:0000000000000104 .L0 
     /tmp/cc6O7FTK.s:186    .text:0000000000000108 .L0 
     /tmp/cc6O7FTK.s:188    .text:000000000000010c .L0 
     /tmp/cc6O7FTK.s:189    .text:000000000000010c .L0 
     /tmp/cc6O7FTK.s:191    .text:0000000000000110 .L0 
     /tmp/cc6O7FTK.s:193    .text:0000000000000114 .L0 
GAS LISTING /tmp/cc6O7FTK.s 			page 12


     /tmp/cc6O7FTK.s:202    .text:0000000000000114 .L0 
     /tmp/cc6O7FTK.s:203    .text:0000000000000114 .L0 
     /tmp/cc6O7FTK.s:204    .text:0000000000000118 .L0 
     /tmp/cc6O7FTK.s:208    .text:0000000000000124 .L0 
     /tmp/cc6O7FTK.s:209    .text:0000000000000124 .L0 
     /tmp/cc6O7FTK.s:210    .text:0000000000000124 .L0 
     /tmp/cc6O7FTK.s:212    .text:0000000000000128 .L0 
     /tmp/cc6O7FTK.s:214    .text:0000000000000128 .L0 
     /tmp/cc6O7FTK.s:215    .text:0000000000000128 .L0 
     /tmp/cc6O7FTK.s:218    .text:0000000000000130 .L0 
     /tmp/cc6O7FTK.s:219    .text:0000000000000130 .L0 
     /tmp/cc6O7FTK.s:223    .text:0000000000000140 .L0 
     /tmp/cc6O7FTK.s:227    .text:0000000000000148 .L0 
     /tmp/cc6O7FTK.s:228    .text:0000000000000148 .L0 
     /tmp/cc6O7FTK.s:233    .text:000000000000014c .L0 
     /tmp/cc6O7FTK.s:234    .text:000000000000014c .L0 
     /tmp/cc6O7FTK.s:240    .text:0000000000000154 .L0 
     /tmp/cc6O7FTK.s:241    .text:0000000000000154 .L0 
     /tmp/cc6O7FTK.s:244    .text:000000000000015c .L0 
     /tmp/cc6O7FTK.s:245    .text:0000000000000160 .L0 
     /tmp/cc6O7FTK.s:247    .text:0000000000000164 .L0 
     /tmp/cc6O7FTK.s:248    .text:0000000000000164 .L0 
     /tmp/cc6O7FTK.s:250    .text:0000000000000168 .L0 
     /tmp/cc6O7FTK.s:252    .text:000000000000016c .L0 
     /tmp/cc6O7FTK.s:254    .text:0000000000000170 .L0 
     /tmp/cc6O7FTK.s:260    .text:0000000000000170 _ZN3TCB8dispatchEv
     /tmp/cc6O7FTK.s:263    .text:0000000000000170 .L0 
     /tmp/cc6O7FTK.s:264    .text:0000000000000170 .L0 
     /tmp/cc6O7FTK.s:265    .text:0000000000000174 .L0 
     /tmp/cc6O7FTK.s:269    .text:0000000000000180 .L0 
     /tmp/cc6O7FTK.s:270    .text:0000000000000180 .L0 
     /tmp/cc6O7FTK.s:271    .text:0000000000000180 .L0 
     /tmp/cc6O7FTK.s:273    .text:0000000000000184 .L0 
     /tmp/cc6O7FTK.s:275    .text:0000000000000184 .L0 
     /tmp/cc6O7FTK.s:276    .text:0000000000000184 .L0 
     /tmp/cc6O7FTK.s:279    .text:000000000000018c .L0 
     /tmp/cc6O7FTK.s:280    .text:000000000000018c .L0 
     /tmp/cc6O7FTK.s:282    .text:0000000000000190 .L0 
     /tmp/cc6O7FTK.s:284    .text:0000000000000194 .L0 
     /tmp/cc6O7FTK.s:286    .text:0000000000000198 .L0 
     /tmp/cc6O7FTK.s:291    .text:000000000000019c .L0 
     /tmp/cc6O7FTK.s:292    .text:000000000000019c .L0 
     /tmp/cc6O7FTK.s:297    .text:00000000000001a0 .L0 
     /tmp/cc6O7FTK.s:300    .text:00000000000001a4 .L0 
     /tmp/cc6O7FTK.s:301    .text:00000000000001a4 .L0 
     /tmp/cc6O7FTK.s:304    .text:00000000000001ac .L0 
     /tmp/cc6O7FTK.s:306    .text:00000000000001b4 .L0 
     /tmp/cc6O7FTK.s:308    .text:00000000000001b8 .L0 
     /tmp/cc6O7FTK.s:309    .text:00000000000001b8 .L0 
     /tmp/cc6O7FTK.s:315    .text:00000000000001c8 .L0 
     /tmp/cc6O7FTK.s:316    .text:00000000000001cc .L0 
     /tmp/cc6O7FTK.s:317    .text:00000000000001cc .L0 
     /tmp/cc6O7FTK.s:319    .text:00000000000001d0 .L0 
     /tmp/cc6O7FTK.s:320    .text:00000000000001d0 .L0 
     /tmp/cc6O7FTK.s:322    .text:00000000000001d4 .L0 
     /tmp/cc6O7FTK.s:325    .text:00000000000001d8 .L0 
     /tmp/cc6O7FTK.s:329    .text:00000000000001dc .L0 
GAS LISTING /tmp/cc6O7FTK.s 			page 13


     /tmp/cc6O7FTK.s:331    .text:00000000000001dc .L0 
     /tmp/cc6O7FTK.s:332    .text:00000000000001dc .L0 
     /tmp/cc6O7FTK.s:336    .text:00000000000001ec .L0 
     /tmp/cc6O7FTK.s:350    .bss:0000000000000008 _ZN3TCB16timeSliceCounterE
     /tmp/cc6O7FTK.s:346    .bss:0000000000000000 _ZN3TCB7runningE
     /tmp/cc6O7FTK.s:343    .bss:0000000000000000 .LANCHOR0
     /tmp/cc6O7FTK.s:360    .text:00000000000001ec .L0 
     /tmp/cc6O7FTK.s:71     .text:000000000000005c .L0 
     /tmp/cc6O7FTK.s:219    .text:0000000000000130 .L0 
     /tmp/cc6O7FTK.s:276    .text:0000000000000184 .L0 
     /tmp/cc6O7FTK.s:304    .text:00000000000001ac .L0 
     /tmp/cc6O7FTK.s:65     .text:0000000000000054 .L6
     /tmp/cc6O7FTK.s:68     .text:0000000000000058 .L2
     /tmp/cc6O7FTK.s:96     .text:00000000000000a4 .L7
     /tmp/cc6O7FTK.s:117    .text:00000000000000c8 .L1
     /tmp/cc6O7FTK.s:78     .text:0000000000000074 .L3
     /tmp/cc6O7FTK.s:298    .text:00000000000001a4 .L15
     /tmp/cc6O7FTK.s:328    .text:00000000000001dc .L18
     /tmp/cc6O7FTK.s:313    .text:00000000000001c8 .L14
     /tmp/cc6O7FTK.s:45     .text:0000000000000030 .LEHB0
     /tmp/cc6O7FTK.s:10     .text:0000000000000000 .LFB63
     /tmp/cc6O7FTK.s:48     .text:0000000000000038 .LEHE0
     /tmp/cc6O7FTK.s:61     .text:0000000000000048 .LEHB1
     /tmp/cc6O7FTK.s:94     .text:00000000000000a0 .LEHE1
     /tmp/cc6O7FTK.s:100    .text:00000000000000ac .L8
     /tmp/cc6O7FTK.s:113    .text:00000000000000c0 .LEHB2
     /tmp/cc6O7FTK.s:116    .text:00000000000000c8 .LEHE2
     /tmp/cc6O7FTK.s:1758   .debug_abbrev:0000000000000000 .Ldebug_abbrev0
     /tmp/cc6O7FTK.s:3248   .debug_str:00000000000007d8 .LASF150
     /tmp/cc6O7FTK.s:3090   .debug_str:0000000000000390 .LASF151
     /tmp/cc6O7FTK.s:3066   .debug_str:00000000000002ad .LASF152
     /tmp/cc6O7FTK.s:5      .text:0000000000000000 .Ltext0
     /tmp/cc6O7FTK.s:353    .text:00000000000001ec .Letext0
     /tmp/cc6O7FTK.s:2980   .debug_line:0000000000000000 .Ldebug_line0
     /tmp/cc6O7FTK.s:3092   .debug_str:000000000000039c .LASF0
     /tmp/cc6O7FTK.s:3120   .debug_str:0000000000000481 .LASF1
     /tmp/cc6O7FTK.s:3198   .debug_str:0000000000000698 .LASF2
     /tmp/cc6O7FTK.s:3206   .debug_str:00000000000006d5 .LASF4
     /tmp/cc6O7FTK.s:3100   .debug_str:00000000000003cd .LASF3
     /tmp/cc6O7FTK.s:2992   .debug_str:0000000000000063 .LASF5
     /tmp/cc6O7FTK.s:3172   .debug_str:00000000000005f4 .LASF6
     /tmp/cc6O7FTK.s:3166   .debug_str:00000000000005bc .LASF7
     /tmp/cc6O7FTK.s:3112   .debug_str:000000000000044d .LASF8
     /tmp/cc6O7FTK.s:3070   .debug_str:00000000000002d0 .LASF9
     /tmp/cc6O7FTK.s:3076   .debug_str:0000000000000308 .LASF10
     /tmp/cc6O7FTK.s:3018   .debug_str:000000000000012c .LASF11
     /tmp/cc6O7FTK.s:3058   .debug_str:0000000000000279 .LASF12
     /tmp/cc6O7FTK.s:3032   .debug_str:000000000000018e .LASF13
     /tmp/cc6O7FTK.s:3016   .debug_str:000000000000011c .LASF14
     /tmp/cc6O7FTK.s:3236   .debug_str:0000000000000791 .LASF15
     /tmp/cc6O7FTK.s:3050   .debug_str:000000000000021d .LASF16
     /tmp/cc6O7FTK.s:3224   .debug_str:000000000000073b .LASF17
     /tmp/cc6O7FTK.s:3104   .debug_str:00000000000003fb .LASF51
     /tmp/cc6O7FTK.s:3118   .debug_str:000000000000047c .LASF18
     /tmp/cc6O7FTK.s:3020   .debug_str:000000000000013b .LASF19
     /tmp/cc6O7FTK.s:3000   .debug_str:00000000000000af .LASF20
     /tmp/cc6O7FTK.s:3162   .debug_str:00000000000005a0 .LASF23
GAS LISTING /tmp/cc6O7FTK.s 			page 14


     /tmp/cc6O7FTK.s:3192   .debug_str:0000000000000678 .LASF21
     /tmp/cc6O7FTK.s:3272   .debug_str:0000000000000969 .LASF22
     /tmp/cc6O7FTK.s:2998   .debug_str:0000000000000096 .LASF70
     /tmp/cc6O7FTK.s:3102   .debug_str:00000000000003df .LASF25
     /tmp/cc6O7FTK.s:3202   .debug_str:00000000000006b3 .LASF36
     /tmp/cc6O7FTK.s:3270   .debug_str:000000000000094d .LASF37
     /tmp/cc6O7FTK.s:3098   .debug_str:00000000000003c3 .LASF30
     /tmp/cc6O7FTK.s:3086   .debug_str:0000000000000351 .LASF63
     /tmp/cc6O7FTK.s:3138   .debug_str:0000000000000503 .LASF24
     /tmp/cc6O7FTK.s:2996   .debug_str:0000000000000075 .LASF26
     /tmp/cc6O7FTK.s:3238   .debug_str:000000000000079d .LASF27
     /tmp/cc6O7FTK.s:3140   .debug_str:000000000000050d .LASF28
     /tmp/cc6O7FTK.s:3002   .debug_str:00000000000000b4 .LASF96
     /tmp/cc6O7FTK.s:3300   .debug_str:0000000000000a50 .LASF98
     /tmp/cc6O7FTK.s:3068   .debug_str:00000000000002c6 .LASF29
     /tmp/cc6O7FTK.s:3242   .debug_str:00000000000007b1 .LASF86
     /tmp/cc6O7FTK.s:3296   .debug_str:0000000000000a21 .LASF153
     /tmp/cc6O7FTK.s:3082   .debug_str:0000000000000327 .LASF154
     /tmp/cc6O7FTK.s:3276   .debug_str:0000000000000988 .LASF31
     /tmp/cc6O7FTK.s:3268   .debug_str:0000000000000948 .LASF155
     /tmp/cc6O7FTK.s:3228   .debug_str:0000000000000764 .LASF32
     /tmp/cc6O7FTK.s:3152   .debug_str:0000000000000572 .LASF33
     /tmp/cc6O7FTK.s:3144   .debug_str:0000000000000543 .LASF34
     /tmp/cc6O7FTK.s:3226   .debug_str:0000000000000751 .LASF35
     /tmp/cc6O7FTK.s:3056   .debug_str:0000000000000262 .LASF38
     /tmp/cc6O7FTK.s:3190   .debug_str:0000000000000661 .LASF156
     /tmp/cc6O7FTK.s:3116   .debug_str:0000000000000473 .LASF39
     /tmp/cc6O7FTK.s:3010   .debug_str:00000000000000e4 .LASF40
     /tmp/cc6O7FTK.s:3130   .debug_str:00000000000004c8 .LASF41
     /tmp/cc6O7FTK.s:3052   .debug_str:0000000000000233 .LASF42
     /tmp/cc6O7FTK.s:3164   .debug_str:00000000000005b0 .LASF43
     /tmp/cc6O7FTK.s:3278   .debug_str:0000000000000992 .LASF44
     /tmp/cc6O7FTK.s:3310   .debug_str:0000000000000aad .LASF45
     /tmp/cc6O7FTK.s:3298   .debug_str:0000000000000a35 .LASF46
     /tmp/cc6O7FTK.s:3216   .debug_str:000000000000070c .LASF47
     /tmp/cc6O7FTK.s:3110   .debug_str:0000000000000430 .LASF48
     /tmp/cc6O7FTK.s:3182   .debug_str:000000000000063e .LASF49
     /tmp/cc6O7FTK.s:2986   .debug_str:0000000000000015 .LASF50
     /tmp/cc6O7FTK.s:3026   .debug_str:000000000000015d .LASF52
     /tmp/cc6O7FTK.s:3160   .debug_str:000000000000059b .LASF53
     /tmp/cc6O7FTK.s:2982   .debug_str:0000000000000000 .LASF54
     /tmp/cc6O7FTK.s:3220   .debug_str:000000000000072c .LASF55
     /tmp/cc6O7FTK.s:3258   .debug_str:00000000000008f0 .LASF56
     /tmp/cc6O7FTK.s:3222   .debug_str:0000000000000732 .LASF57
     /tmp/cc6O7FTK.s:3156   .debug_str:000000000000057e .LASF58
     /tmp/cc6O7FTK.s:3254   .debug_str:00000000000008c5 .LASF59
     /tmp/cc6O7FTK.s:3106   .debug_str:0000000000000401 .LASF60
     /tmp/cc6O7FTK.s:3122   .debug_str:0000000000000494 .LASF61
     /tmp/cc6O7FTK.s:3034   .debug_str:000000000000019e .LASF62
     /tmp/cc6O7FTK.s:2988   .debug_str:000000000000002f .LASF64
     /tmp/cc6O7FTK.s:3174   .debug_str:00000000000005fb .LASF157
     /tmp/cc6O7FTK.s:3304   .debug_str:0000000000000a88 .LASF65
     /tmp/cc6O7FTK.s:3072   .debug_str:00000000000002e0 .LASF66
     /tmp/cc6O7FTK.s:3134   .debug_str:00000000000004dd .LASF67
     /tmp/cc6O7FTK.s:3064   .debug_str:00000000000002a1 .LASF68
     /tmp/cc6O7FTK.s:2984   .debug_str:0000000000000005 .LASF69
     /tmp/cc6O7FTK.s:3132   .debug_str:00000000000004d0 .LASF71
GAS LISTING /tmp/cc6O7FTK.s 			page 15


     /tmp/cc6O7FTK.s:3054   .debug_str:000000000000024f .LASF72
     /tmp/cc6O7FTK.s:3200   .debug_str:00000000000006a6 .LASF73
     /tmp/cc6O7FTK.s:3234   .debug_str:0000000000000784 .LASF74
     /tmp/cc6O7FTK.s:3256   .debug_str:00000000000008cf .LASF75
     /tmp/cc6O7FTK.s:3240   .debug_str:00000000000007a6 .LASF76
     /tmp/cc6O7FTK.s:3148   .debug_str:0000000000000553 .LASF77
     /tmp/cc6O7FTK.s:3006   .debug_str:00000000000000ca .LASF78
     /tmp/cc6O7FTK.s:3262   .debug_str:000000000000090d .LASF79
     /tmp/cc6O7FTK.s:3286   .debug_str:00000000000009cf .LASF80
     /tmp/cc6O7FTK.s:3014   .debug_str:0000000000000107 .LASF81
     /tmp/cc6O7FTK.s:3244   .debug_str:00000000000007c5 .LASF82
     /tmp/cc6O7FTK.s:3030   .debug_str:0000000000000178 .LASF83
     /tmp/cc6O7FTK.s:3124   .debug_str:000000000000049a .LASF84
     /tmp/cc6O7FTK.s:3250   .debug_str:000000000000089c .LASF85
     /tmp/cc6O7FTK.s:3214   .debug_str:00000000000006fb .LASF87
     /tmp/cc6O7FTK.s:3170   .debug_str:00000000000005e4 .LASF88
     /tmp/cc6O7FTK.s:3292   .debug_str:00000000000009f7 .LASF89
     /tmp/cc6O7FTK.s:3308   .debug_str:0000000000000a9d .LASF90
     /tmp/cc6O7FTK.s:3302   .debug_str:0000000000000a6c .LASF91
     /tmp/cc6O7FTK.s:3048   .debug_str:0000000000000214 .LASF92
     /tmp/cc6O7FTK.s:3274   .debug_str:0000000000000975 .LASF93
     /tmp/cc6O7FTK.s:3146   .debug_str:0000000000000548 .LASF94
     /tmp/cc6O7FTK.s:3040   .debug_str:00000000000001d6 .LASF95
     /tmp/cc6O7FTK.s:3042   .debug_str:00000000000001ed .LASF97
     /tmp/cc6O7FTK.s:3028   .debug_str:0000000000000165 .LASF99
     /tmp/cc6O7FTK.s:3008   .debug_str:00000000000000d6 .LASF100
     /tmp/cc6O7FTK.s:3126   .debug_str:00000000000004a7 .LASF101
     /tmp/cc6O7FTK.s:3246   .debug_str:00000000000007d0 .LASF102
     /tmp/cc6O7FTK.s:3012   .debug_str:0000000000000101 .LASF103
     /tmp/cc6O7FTK.s:3252   .debug_str:00000000000008b5 .LASF104
     /tmp/cc6O7FTK.s:3208   .debug_str:00000000000006dc .LASF105
     /tmp/cc6O7FTK.s:2990   .debug_str:0000000000000057 .LASF106
     /tmp/cc6O7FTK.s:3280   .debug_str:00000000000009b0 .LASF107
     /tmp/cc6O7FTK.s:3186   .debug_str:0000000000000657 .LASF108
     /tmp/cc6O7FTK.s:3078   .debug_str:0000000000000316 .LASF109
     /tmp/cc6O7FTK.s:3088   .debug_str:0000000000000378 .LASF110
     /tmp/cc6O7FTK.s:3264   .debug_str:0000000000000924 .LASF111
     /tmp/cc6O7FTK.s:3260   .debug_str:00000000000008f8 .LASF115
     /tmp/cc6O7FTK.s:3194   .debug_str:0000000000000684 .LASF112
     /tmp/cc6O7FTK.s:3158   .debug_str:0000000000000586 .LASF113
     /tmp/cc6O7FTK.s:3176   .debug_str:0000000000000610 .LASF114
     /tmp/cc6O7FTK.s:3178   .debug_str:0000000000000617 .LASF116
     /tmp/cc6O7FTK.s:3154   .debug_str:0000000000000577 .LASF117
     /tmp/cc6O7FTK.s:3114   .debug_str:0000000000000460 .LASF118
     /tmp/cc6O7FTK.s:3288   .debug_str:00000000000009d9 .LASF119
     /tmp/cc6O7FTK.s:3232   .debug_str:0000000000000770 .LASF120
     /tmp/cc6O7FTK.s:3150   .debug_str:000000000000056a .LASF121
     /tmp/cc6O7FTK.s:3060   .debug_str:0000000000000288 .LASF122
     /tmp/cc6O7FTK.s:3128   .debug_str:00000000000004c0 .LASF123
     /tmp/cc6O7FTK.s:3180   .debug_str:000000000000062a .LASF124
     /tmp/cc6O7FTK.s:3306   .debug_str:0000000000000a95 .LASF125
     /tmp/cc6O7FTK.s:3096   .debug_str:00000000000003af .LASF126
     /tmp/cc6O7FTK.s:3230   .debug_str:0000000000000769 .LASF127
     /tmp/cc6O7FTK.s:3210   .debug_str:00000000000006e1 .LASF128
     /tmp/cc6O7FTK.s:3212   .debug_str:00000000000006f4 .LASF129
     /tmp/cc6O7FTK.s:3024   .debug_str:000000000000014a .LASF130
     /tmp/cc6O7FTK.s:3046   .debug_str:000000000000020e .LASF131
GAS LISTING /tmp/cc6O7FTK.s 			page 16


     /tmp/cc6O7FTK.s:3084   .debug_str:000000000000033f .LASF132
     /tmp/cc6O7FTK.s:3094   .debug_str:00000000000003a9 .LASF133
     /tmp/cc6O7FTK.s:3038   .debug_str:00000000000001c4 .LASF134
     /tmp/cc6O7FTK.s:2994   .debug_str:000000000000006a .LASF135
     /tmp/cc6O7FTK.s:3204   .debug_str:00000000000006bd .LASF136
     /tmp/cc6O7FTK.s:3196   .debug_str:000000000000068d .LASF137
     /tmp/cc6O7FTK.s:3044   .debug_str:00000000000001f6 .LASF138
     /tmp/cc6O7FTK.s:3282   .debug_str:00000000000009b6 .LASF139
     /tmp/cc6O7FTK.s:3290   .debug_str:00000000000009e1 .LASF140
     /tmp/cc6O7FTK.s:3022   .debug_str:0000000000000140 .LASF141
     /tmp/cc6O7FTK.s:3136   .debug_str:00000000000004ed .LASF142
     /tmp/cc6O7FTK.s:3284   .debug_str:00000000000009c0 .LASF143
     /tmp/cc6O7FTK.s:3074   .debug_str:00000000000002ec .LASF144
     /tmp/cc6O7FTK.s:3168   .debug_str:00000000000005cf .LASF158
     /tmp/cc6O7FTK.s:3108   .debug_str:000000000000040e .LASF159
     /tmp/cc6O7FTK.s:3188   .debug_str:000000000000065c .LASF145
     /tmp/cc6O7FTK.s:3004   .debug_str:00000000000000b9 .LASF146
     /tmp/cc6O7FTK.s:3266   .debug_str:000000000000092d .LASF147
     /tmp/cc6O7FTK.s:200    .text:0000000000000114 .LFB66
     /tmp/cc6O7FTK.s:255    .text:0000000000000170 .LFE66
     /tmp/cc6O7FTK.s:230    .text:000000000000014c .LBB23
     /tmp/cc6O7FTK.s:238    .text:0000000000000154 .LBE23
     /tmp/cc6O7FTK.s:2789   .debug_loc:0000000000000000 .LLST9
     /tmp/cc6O7FTK.s:2797   .debug_loc:0000000000000024 .LLST10
     /tmp/cc6O7FTK.s:216    .text:0000000000000130 .LVL15
     /tmp/cc6O7FTK.s:242    .text:000000000000015c .LVL19
     /tmp/cc6O7FTK.s:261    .text:0000000000000170 .LFB65
     /tmp/cc6O7FTK.s:337    .text:00000000000001ec .LFE65
     /tmp/cc6O7FTK.s:2804   .debug_loc:0000000000000047 .LLST11
     /tmp/cc6O7FTK.s:288    .text:000000000000019c .LBB25
     /tmp/cc6O7FTK.s:295    .text:00000000000001a0 .LBE25
     /tmp/cc6O7FTK.s:2815   .debug_loc:000000000000007d .LLST12
     /tmp/cc6O7FTK.s:302    .text:00000000000001ac .LVL23
     /tmp/cc6O7FTK.s:312    .text:00000000000001c8 .LVL24
     /tmp/cc6O7FTK.s:334    .text:00000000000001e8 .LVL27
     /tmp/cc6O7FTK.s:169    .text:00000000000000ec .LFB64
     /tmp/cc6O7FTK.s:194    .text:0000000000000114 .LFE64
     /tmp/cc6O7FTK.s:183    .text:0000000000000104 .LVL14
     /tmp/cc6O7FTK.s:143    .text:00000000000000ec .LFE63
     /tmp/cc6O7FTK.s:2822   .debug_loc:00000000000000a0 .LLST0
     /tmp/cc6O7FTK.s:2851   .debug_loc:0000000000000115 .LLST1
     /tmp/cc6O7FTK.s:2869   .debug_loc:0000000000000161 .LLST2
     /tmp/cc6O7FTK.s:38     .text:000000000000002c .LBB17
     /tmp/cc6O7FTK.s:52     .text:000000000000003c .LBE17
     /tmp/cc6O7FTK.s:2887   .debug_loc:00000000000001ad .LLST3
     /tmp/cc6O7FTK.s:47     .text:0000000000000038 .LVL3
     /tmp/cc6O7FTK.s:53     .text:000000000000003c .LBB19
     /tmp/cc6O7FTK.s:104    .text:00000000000000b0 .LBE19
     /tmp/cc6O7FTK.s:2896   .debug_loc:00000000000001d2 .LLST4
     /tmp/cc6O7FTK.s:2910   .debug_loc:000000000000020b .LLST5
     /tmp/cc6O7FTK.s:2924   .debug_loc:0000000000000244 .LLST6
     /tmp/cc6O7FTK.s:2949   .debug_loc:00000000000002a6 .LLST7
     /tmp/cc6O7FTK.s:63     .text:0000000000000050 .LVL5
     /tmp/cc6O7FTK.s:93     .text:00000000000000a0 .LVL6
     /tmp/cc6O7FTK.s:105    .text:00000000000000b0 .LBB21
     /tmp/cc6O7FTK.s:119    .text:00000000000000c8 .LBE21
     /tmp/cc6O7FTK.s:2960   .debug_loc:00000000000002dc .LLST8
GAS LISTING /tmp/cc6O7FTK.s 			page 17


     /tmp/cc6O7FTK.s:111    .text:00000000000000bc .LVL8
     /tmp/cc6O7FTK.s:115    .text:00000000000000c8 .LVL9
     /tmp/cc6O7FTK.s:3062   .debug_str:000000000000029c .LASF148
     /tmp/cc6O7FTK.s:3080   .debug_str:0000000000000321 .LASF149
     /tmp/cc6O7FTK.s:3218   .debug_str:0000000000000717 .LASF160
     /tmp/cc6O7FTK.s:3142   .debug_str:000000000000052e .LASF161
     /tmp/cc6O7FTK.s:3184   .debug_str:0000000000000647 .LASF162
     /tmp/cc6O7FTK.s:3294   .debug_str:0000000000000a12 .LASF163
     /tmp/cc6O7FTK.s:3036   .debug_str:00000000000001ac .LASF164
     /tmp/cc6O7FTK.s:229    .text:000000000000014c .LVL17
     /tmp/cc6O7FTK.s:236    .text:0000000000000154 .LVL18
     /tmp/cc6O7FTK.s:277    .text:000000000000018c .LVL20
     /tmp/cc6O7FTK.s:323    .text:00000000000001d4 .LVL25
     /tmp/cc6O7FTK.s:327    .text:00000000000001dc .LVL26
     /tmp/cc6O7FTK.s:287    .text:000000000000019c .LVL21
     /tmp/cc6O7FTK.s:293    .text:00000000000001a0 .LVL22
     /tmp/cc6O7FTK.s:16     .text:0000000000000000 .LVL0
     /tmp/cc6O7FTK.s:44     .text:0000000000000030 .LVL2
     /tmp/cc6O7FTK.s:102    .text:00000000000000b0 .LVL7
     /tmp/cc6O7FTK.s:132    .text:00000000000000dc .LVL11
     /tmp/cc6O7FTK.s:135    .text:00000000000000e0 .LVL12
     /tmp/cc6O7FTK.s:138    .text:00000000000000e4 .LVL13
     /tmp/cc6O7FTK.s:37     .text:000000000000002c .LVL1
     /tmp/cc6O7FTK.s:50     .text:000000000000003c .LVL4
     /tmp/cc6O7FTK.s:129    .text:00000000000000d8 .LVL10
     /tmp/cc6O7FTK.s:361    .debug_info:0000000000000000 .Ldebug_info0
     /tmp/cc6O7FTK.s:146    .gcc_except_table:0000000000000000 .LLSDA63

UNDEFINED SYMBOLS
_ZN15MemoryAllocator9mem_allocEm
_ZN9Scheduler3putEP3TCB
_ZN15MemoryAllocator8mem_freeEPv
_Unwind_Resume
__gxx_personality_v0
_Z15thread_dispatchv
_ZN5Riscv10popSppSpieEv
_ZN9Scheduler3getEv
_ZN3TCB13contextSwitchEPNS_7ContextES1_
