GAS LISTING /tmp/ccDZFsdu.s 			page 1


   1              		.file	"wait_list.cpp"
   2              		.option pic
   3              		.option norelax
   4              		.text
   5              	.Ltext0:
   6              		.align	2
   7              		.globl	_ZN8WaitList3addEP3TCB
   9              	_ZN8WaitList3addEP3TCB:
  10              	.LFB53:
  11              		.file 1 "src/wait_list.cpp"
   1:src/wait_list.cpp **** #include "../h/wait_list.hpp"
   2:src/wait_list.cpp **** 
   3:src/wait_list.cpp **** WaitList::Node* WaitList::head = 0;
   4:src/wait_list.cpp **** 
   5:src/wait_list.cpp **** void WaitList::add(thread_t tcb) {
  12              		.loc 1 5 34
  13              		.cfi_startproc
  14              	.LVL0:
  15 0000 130101FE 		addi	sp,sp,-32
  16              		.cfi_def_cfa_offset 32
  17 0004 233C1100 		sd	ra,24(sp)
  18 0008 23388100 		sd	s0,16(sp)
  19 000c 23349100 		sd	s1,8(sp)
  20 0010 23302101 		sd	s2,0(sp)
  21              		.cfi_offset 1, -8
  22              		.cfi_offset 8, -16
  23              		.cfi_offset 9, -24
  24              		.cfi_offset 18, -32
  25 0014 13040102 		addi	s0,sp,32
  26              		.cfi_def_cfa 8, 0
  27 0018 93040500 		mv	s1,a0
   6:src/wait_list.cpp ****     Node* new_node = new Node(tcb, tcb->getSleepingTime());
  28              		.loc 1 6 5
  29              	.LVL1:
  30              	.LBB12:
  31              	.LBB13:
  32              		.file 2 "src/../h/../h/tcb.hpp"
   1:src/../h/../h/tcb.hpp **** #ifndef TCP_HPP
   2:src/../h/../h/tcb.hpp **** #define TCP_HPP
   3:src/../h/../h/tcb.hpp **** 
   4:src/../h/../h/tcb.hpp **** #include "../lib/hw.h"
   5:src/../h/../h/tcb.hpp **** #include "../h/scheduler.hpp"
   6:src/../h/../h/tcb.hpp **** #include "../h/riscv.hpp"
   7:src/../h/../h/tcb.hpp **** #include "../h/memory_allocator.hpp"
   8:src/../h/../h/tcb.hpp **** 
   9:src/../h/../h/tcb.hpp **** // Thread Control Block
  10:src/../h/../h/tcb.hpp **** class TCB
  11:src/../h/../h/tcb.hpp **** {
  12:src/../h/../h/tcb.hpp **** private:
  13:src/../h/../h/tcb.hpp ****     using Body = void (*)(void*);
  14:src/../h/../h/tcb.hpp ****     Body body;
  15:src/../h/../h/tcb.hpp ****     uint64* stack;
  16:src/../h/../h/tcb.hpp **** 
  17:src/../h/../h/tcb.hpp ****     // Thread context struct
  18:src/../h/../h/tcb.hpp ****     struct Context {
  19:src/../h/../h/tcb.hpp ****         uint64 ra; // Return address
  20:src/../h/../h/tcb.hpp ****         uint64 sp; // Stack pointer
GAS LISTING /tmp/ccDZFsdu.s 			page 2


  21:src/../h/../h/tcb.hpp ****     };
  22:src/../h/../h/tcb.hpp **** 
  23:src/../h/../h/tcb.hpp ****     // Thread context
  24:src/../h/../h/tcb.hpp ****     Context context;
  25:src/../h/../h/tcb.hpp ****     bool finished;
  26:src/../h/../h/tcb.hpp ****     bool blocked;
  27:src/../h/../h/tcb.hpp ****     uint64 timeSlice;
  28:src/../h/../h/tcb.hpp ****     time_t sleepingTime;
  29:src/../h/../h/tcb.hpp ****     bool sleep;
  30:src/../h/../h/tcb.hpp ****     void* arg;
  31:src/../h/../h/tcb.hpp **** 
  32:src/../h/../h/tcb.hpp ****     static void contextSwitch(Context* oldContext, Context* newContext);
  33:src/../h/../h/tcb.hpp **** 
  34:src/../h/../h/tcb.hpp ****     TCB(Body body, void* arg, uint64 timeSlice) :
  35:src/../h/../h/tcb.hpp ****             body(body),
  36:src/../h/../h/tcb.hpp ****             stack(body ? (uint64*)MemoryAllocator::mem_alloc(sizeof(uint64) * DEFAULT_STACK_SIZE) :
  37:src/../h/../h/tcb.hpp ****             context({(uint64)&threadWrapper, stack ? (uint64)&stack[DEFAULT_STACK_SIZE] : 0}),
  38:src/../h/../h/tcb.hpp ****             finished(false),
  39:src/../h/../h/tcb.hpp ****             blocked(false),
  40:src/../h/../h/tcb.hpp ****             timeSlice(timeSlice),
  41:src/../h/../h/tcb.hpp ****             sleepingTime(0),
  42:src/../h/../h/tcb.hpp ****             sleep(false),
  43:src/../h/../h/tcb.hpp ****             arg(arg)
  44:src/../h/../h/tcb.hpp ****     { if (body) Scheduler::put(this); }
  45:src/../h/../h/tcb.hpp **** 
  46:src/../h/../h/tcb.hpp **** public:
  47:src/../h/../h/tcb.hpp **** 
  48:src/../h/../h/tcb.hpp ****     void* operator new(size_t size) {
  49:src/../h/../h/tcb.hpp ****         return MemoryAllocator::mem_alloc(size);
  50:src/../h/../h/tcb.hpp ****     }
  51:src/../h/../h/tcb.hpp **** 
  52:src/../h/../h/tcb.hpp ****     void* operator new[] (size_t size) {
  53:src/../h/../h/tcb.hpp ****         return MemoryAllocator::mem_alloc(size);
  54:src/../h/../h/tcb.hpp ****     }
  55:src/../h/../h/tcb.hpp **** 
  56:src/../h/../h/tcb.hpp ****     void operator delete(void* ptr) noexcept {
  57:src/../h/../h/tcb.hpp ****         MemoryAllocator::mem_free(ptr);
  58:src/../h/../h/tcb.hpp ****     }
  59:src/../h/../h/tcb.hpp **** 
  60:src/../h/../h/tcb.hpp ****     void operator delete[] (void* ptr) noexcept {
  61:src/../h/../h/tcb.hpp ****         MemoryAllocator::mem_free(ptr);
  62:src/../h/../h/tcb.hpp ****     }
  63:src/../h/../h/tcb.hpp **** 
  64:src/../h/../h/tcb.hpp ****     static TCB* createThread(Body body, void* arg, uint64 timeSlice);
  65:src/../h/../h/tcb.hpp **** 
  66:src/../h/../h/tcb.hpp ****     // Getter and setter for finished
  67:src/../h/../h/tcb.hpp ****     bool isFinished() const { return this->finished; }
  68:src/../h/../h/tcb.hpp ****     void setFinished(bool value) { this->finished = value; }
  69:src/../h/../h/tcb.hpp **** 
  70:src/../h/../h/tcb.hpp ****     // Getter and setter for blocked
  71:src/../h/../h/tcb.hpp ****     bool isBlocked() const { return this->blocked; }
  72:src/../h/../h/tcb.hpp ****     void setBlocked(bool value) { this->blocked = value; }
  73:src/../h/../h/tcb.hpp **** 
  74:src/../h/../h/tcb.hpp ****     // Getter for time slice
  75:src/../h/../h/tcb.hpp ****     uint64 getTimeSlice() const { return this->timeSlice; }
  76:src/../h/../h/tcb.hpp ****     static uint64 timeSliceCounter;
  77:src/../h/../h/tcb.hpp **** 
GAS LISTING /tmp/ccDZFsdu.s 			page 3


  78:src/../h/../h/tcb.hpp ****     // Sleeping getters and setters
  79:src/../h/../h/tcb.hpp ****     void setSleepingTime(time_t time) { this->sleepingTime = time; }
  80:src/../h/../h/tcb.hpp ****     time_t getSleepingTime() const { return this->sleepingTime; }
  33              		.loc 2 80 38
  34              		.loc 2 80 51 is_stmt 0
  35 001c 03390503 		ld	s2,48(a0)
  36              	.LVL2:
  37              	.LBE13:
  38              	.LBE12:
  39              		.loc 1 6 58
  40 0020 13058001 		li	a0,24
  41              	.LVL3:
  42 0024 97000000 		call	_Znwm@plt
  42      E7800000 
  43              	.LVL4:
  44              	.LBB14:
  45              	.LBB15:
  46              		.file 3 "src/../h/wait_list.hpp"
   1:src/../h/wait_list.hpp **** #ifndef WAIT_LIST_HPP
   2:src/../h/wait_list.hpp **** #define WAIT_LIST_HPP
   3:src/../h/wait_list.hpp **** 
   4:src/../h/wait_list.hpp **** #include "../h/tcb.hpp"
   5:src/../h/wait_list.hpp **** #include "../lib/hw.h"
   6:src/../h/wait_list.hpp **** 
   7:src/../h/wait_list.hpp **** using thread_t = TCB*;
   8:src/../h/wait_list.hpp **** 
   9:src/../h/wait_list.hpp **** class WaitList
  10:src/../h/wait_list.hpp **** {
  11:src/../h/wait_list.hpp **** private:
  12:src/../h/wait_list.hpp ****     struct Node {
  13:src/../h/wait_list.hpp ****         thread_t tcb;
  14:src/../h/wait_list.hpp ****         time_t time;
  15:src/../h/wait_list.hpp ****         Node* next;
  16:src/../h/wait_list.hpp **** 
  17:src/../h/wait_list.hpp ****         Node(thread_t tcb, time_t time) : tcb(tcb), time(time), next(0) {}
  47              		.loc 3 17 71
  48 002c 23309500 		sd	s1,0(a0)
  49 0030 23342501 		sd	s2,8(a0)
  50 0034 23380500 		sd	zero,16(a0)
  51              	.LVL5:
  52              	.LBE15:
  53              	.LBE14:
   7:src/wait_list.cpp ****     Node* current = head;
  54              		.loc 1 7 5 is_stmt 1
  55              		.loc 1 7 11 is_stmt 0
  56 0038 97050000 		ld	a1,.LANCHOR0
  56      83B50500 
  57              	.LVL6:
   8:src/wait_list.cpp ****     Node* previous = nullptr;
  58              		.loc 1 8 5 is_stmt 1
   7:src/wait_list.cpp ****     Node* current = head;
  59              		.loc 1 7 11 is_stmt 0
  60 0040 93870500 		mv	a5,a1
  61              		.loc 1 8 11
  62 0044 13060000 		li	a2,0
  63              	.LVL7:
  64              	.L3:
GAS LISTING /tmp/ccDZFsdu.s 			page 4


   9:src/wait_list.cpp **** 
  10:src/wait_list.cpp ****     while (current) {
  65              		.loc 1 10 5 is_stmt 1
  66              		.loc 1 10 12
  67 0048 63820702 		beqz	a5,.L2
  11:src/wait_list.cpp ****         if (current->time >= new_node->time)
  68              		.loc 1 11 9
  69              		.loc 1 11 22 is_stmt 0
  70 004c 83B68700 		ld	a3,8(a5)
  71              		.loc 1 11 40
  72 0050 03378500 		ld	a4,8(a0)
  73              		.loc 1 11 9
  74 0054 63FCE600 		bgeu	a3,a4,.L2
  12:src/wait_list.cpp ****             break;
  13:src/wait_list.cpp ****         new_node->time -= current->time;
  75              		.loc 1 13 9 is_stmt 1
  76              		.loc 1 13 24 is_stmt 0
  77 0058 3307D740 		sub	a4,a4,a3
  78 005c 2334E500 		sd	a4,8(a0)
  14:src/wait_list.cpp **** 
  15:src/wait_list.cpp ****         previous = current;
  79              		.loc 1 15 9 is_stmt 1
  80              	.LVL8:
  16:src/wait_list.cpp ****         current = current->next;
  81              		.loc 1 16 9
  15:src/wait_list.cpp ****         current = current->next;
  82              		.loc 1 15 18 is_stmt 0
  83 0060 13860700 		mv	a2,a5
  84              		.loc 1 16 17
  85 0064 83B70701 		ld	a5,16(a5)
  86              	.LVL9:
  10:src/wait_list.cpp ****         if (current->time >= new_node->time)
  87              		.loc 1 10 5
  88 0068 6FF01FFE 		j	.L3
  89              	.L2:
  17:src/wait_list.cpp ****     }
  18:src/wait_list.cpp **** 
  19:src/wait_list.cpp ****     if (head == current)
  90              		.loc 1 19 5 is_stmt 1
  91 006c 638EB702 		beq	a5,a1,.L8
  92              	.L4:
  20:src/wait_list.cpp ****         head = new_node;
  21:src/wait_list.cpp ****     if (previous)
  93              		.loc 1 21 5
  94 0070 63040600 		beqz	a2,.L5
  22:src/wait_list.cpp ****         previous->next = new_node;
  95              		.loc 1 22 9
  96              		.loc 1 22 24 is_stmt 0
  97 0074 2338A600 		sd	a0,16(a2)
  98              	.L5:
  23:src/wait_list.cpp **** 
  24:src/wait_list.cpp ****     new_node->next = current;
  99              		.loc 1 24 5 is_stmt 1
 100              		.loc 1 24 20 is_stmt 0
 101 0078 2338F500 		sd	a5,16(a0)
  25:src/wait_list.cpp ****     if (new_node->next)
 102              		.loc 1 25 5 is_stmt 1
GAS LISTING /tmp/ccDZFsdu.s 			page 5


 103 007c 638A0700 		beqz	a5,.L1
  26:src/wait_list.cpp ****         new_node->next->time -= new_node->time;
 104              		.loc 1 26 9
 105              		.loc 1 26 43 is_stmt 0
 106 0080 83368500 		ld	a3,8(a0)
 107              		.loc 1 26 30
 108 0084 03B78700 		ld	a4,8(a5)
 109 0088 3307D740 		sub	a4,a4,a3
 110 008c 23B4E700 		sd	a4,8(a5)
 111              	.L1:
  27:src/wait_list.cpp **** }
 112              		.loc 1 27 1
 113 0090 83308101 		ld	ra,24(sp)
 114              		.cfi_remember_state
 115              		.cfi_restore 1
 116 0094 03340101 		ld	s0,16(sp)
 117              		.cfi_restore 8
 118              		.cfi_def_cfa 2, 32
 119 0098 83348100 		ld	s1,8(sp)
 120              		.cfi_restore 9
 121              	.LVL10:
 122 009c 03390100 		ld	s2,0(sp)
 123              		.cfi_restore 18
 124 00a0 13010102 		addi	sp,sp,32
 125              		.cfi_def_cfa_offset 0
 126 00a4 67800000 		jr	ra
 127              	.LVL11:
 128              	.L8:
 129              		.cfi_restore_state
  20:src/wait_list.cpp ****     if (previous)
 130              		.loc 1 20 9 is_stmt 1
  20:src/wait_list.cpp ****     if (previous)
 131              		.loc 1 20 14 is_stmt 0
 132 00a8 17070000 		sd	a0,.LANCHOR0,a4
 132      2330A700 
 133 00b0 6FF01FFC 		j	.L4
 134              		.cfi_endproc
 135              	.LFE53:
 137              		.align	2
 138              		.globl	_ZN8WaitList6removeEv
 140              	_ZN8WaitList6removeEv:
 141              	.LFB54:
  28:src/wait_list.cpp **** 
  29:src/wait_list.cpp **** thread_t WaitList::remove() {
 142              		.loc 1 29 29 is_stmt 1
 143              		.cfi_startproc
 144 00b4 130101FE 		addi	sp,sp,-32
 145              		.cfi_def_cfa_offset 32
 146 00b8 233C1100 		sd	ra,24(sp)
 147 00bc 23388100 		sd	s0,16(sp)
 148 00c0 23349100 		sd	s1,8(sp)
 149              		.cfi_offset 1, -8
 150              		.cfi_offset 8, -16
 151              		.cfi_offset 9, -24
 152 00c4 13040102 		addi	s0,sp,32
 153              		.cfi_def_cfa 8, 0
  30:src/wait_list.cpp ****     Node* oldHead = head;
GAS LISTING /tmp/ccDZFsdu.s 			page 6


 154              		.loc 1 30 5
 155              		.loc 1 30 11 is_stmt 0
 156 00c8 97070000 		lla	a5,.LANCHOR0
 156      93870700 
 157 00d0 03B50700 		ld	a0,0(a5)
 158              	.LVL12:
  31:src/wait_list.cpp ****     thread_t ret = oldHead->tcb;
 159              		.loc 1 31 5 is_stmt 1
 160              		.loc 1 31 14 is_stmt 0
 161 00d4 83340500 		ld	s1,0(a0)
 162              	.LVL13:
  32:src/wait_list.cpp ****     head = head->next;
 163              		.loc 1 32 5 is_stmt 1
 164              		.loc 1 32 18 is_stmt 0
 165 00d8 03370501 		ld	a4,16(a0)
 166              		.loc 1 32 10
 167 00dc 23B0E700 		sd	a4,0(a5)
  33:src/wait_list.cpp ****     delete oldHead;
 168              		.loc 1 33 5 is_stmt 1
 169              		.loc 1 33 19 is_stmt 0
 170 00e0 63060500 		beqz	a0,.L9
 171              		.loc 1 33 12 discriminator 1
 172 00e4 97000000 		call	_ZdlPv@plt
 172      E7800000 
 173              	.LVL14:
  34:src/wait_list.cpp ****     return ret;
 174              		.loc 1 34 5 is_stmt 1 discriminator 1
 175              	.L9:
  35:src/wait_list.cpp **** }
 176              		.loc 1 35 1 is_stmt 0
 177 00ec 13850400 		mv	a0,s1
 178 00f0 83308101 		ld	ra,24(sp)
 179              		.cfi_restore 1
 180 00f4 03340101 		ld	s0,16(sp)
 181              		.cfi_restore 8
 182              		.cfi_def_cfa 2, 32
 183 00f8 83348100 		ld	s1,8(sp)
 184              		.cfi_restore 9
 185              	.LVL15:
 186 00fc 13010102 		addi	sp,sp,32
 187              		.cfi_def_cfa_offset 0
 188 0100 67800000 		jr	ra
 189              		.cfi_endproc
 190              	.LFE54:
 192              		.align	2
 193              		.globl	_ZN8WaitList4wakeEv
 195              	_ZN8WaitList4wakeEv:
 196              	.LFB55:
  36:src/wait_list.cpp **** 
  37:src/wait_list.cpp **** void WaitList::wake() {
 197              		.loc 1 37 23 is_stmt 1
 198              		.cfi_startproc
  38:src/wait_list.cpp ****     if (head)
 199              		.loc 1 38 5
 200              		.loc 1 38 13 is_stmt 0
 201 0104 97070000 		ld	a5,.LANCHOR0
 201      83B70700 
GAS LISTING /tmp/ccDZFsdu.s 			page 7


 202              		.loc 1 38 5
 203 010c 63880700 		beqz	a5,.L18
  39:src/wait_list.cpp ****         head->time--;
 204              		.loc 1 39 9 is_stmt 1
 205              		.loc 1 39 15 is_stmt 0
 206 0110 03B78700 		ld	a4,8(a5)
 207              		.loc 1 39 19
 208 0114 1307F7FF 		addi	a4,a4,-1
 209 0118 23B4E700 		sd	a4,8(a5)
 210              	.L18:
  40:src/wait_list.cpp **** 
  41:src/wait_list.cpp ****     while (head && head->time <= 0) {
 211              		.loc 1 41 5 is_stmt 1
 212              		.loc 1 41 17
 213              		.loc 1 41 34 is_stmt 0
 214 011c 97070000 		ld	a5,.LANCHOR0
 214      83B70700 
 215              		.loc 1 41 17
 216 0124 63840706 		beqz	a5,.L19
 217              		.loc 1 41 26
 218 0128 83B78700 		ld	a5,8(a5)
 219              		.loc 1 41 17
 220 012c 63900706 		bnez	a5,.L19
  37:src/wait_list.cpp ****     if (head)
 221              		.loc 1 37 23
 222 0130 130101FF 		addi	sp,sp,-16
 223              		.cfi_def_cfa_offset 16
 224 0134 23341100 		sd	ra,8(sp)
 225 0138 23308100 		sd	s0,0(sp)
 226              		.cfi_offset 1, -8
 227              		.cfi_offset 8, -16
 228 013c 13040101 		addi	s0,sp,16
 229              		.cfi_def_cfa 8, 0
 230 0140 6F004002 		j	.L21
 231              	.LVL16:
 232              	.L23:
 233              	.LBB16:
  42:src/wait_list.cpp ****         thread_t current = WaitList::remove();
  43:src/wait_list.cpp ****         if (current && current->isSleeping()) {
  44:src/wait_list.cpp ****             current->setSleep(false);
 234              		.loc 1 44 13 is_stmt 1
 235              	.LBB17:
 236              	.LBB18:
  81:src/../h/../h/tcb.hpp **** 
  82:src/../h/../h/tcb.hpp ****     void setSleep(bool val) { this->sleep = val; }
 237              		.loc 2 82 31
 238              		.loc 2 82 43 is_stmt 0
 239 0144 230C0502 		sb	zero,56(a0)
 240              	.LVL17:
 241              	.LBE18:
 242              	.LBE17:
  45:src/wait_list.cpp ****             Scheduler::put(current);
 243              		.loc 1 45 13 is_stmt 1
 244              		.loc 1 45 27 is_stmt 0
 245 0148 97000000 		call	_ZN9Scheduler3putEP3TCB@plt
 245      E7800000 
 246              	.LVL18:
GAS LISTING /tmp/ccDZFsdu.s 			page 8


 247              	.L14:
 248              	.LBE16:
  41:src/wait_list.cpp ****         thread_t current = WaitList::remove();
 249              		.loc 1 41 5 is_stmt 1
  41:src/wait_list.cpp ****         thread_t current = WaitList::remove();
 250              		.loc 1 41 17
  41:src/wait_list.cpp ****         thread_t current = WaitList::remove();
 251              		.loc 1 41 34 is_stmt 0
 252 0150 97070000 		ld	a5,.LANCHOR0
 252      83B70700 
  41:src/wait_list.cpp ****         thread_t current = WaitList::remove();
 253              		.loc 1 41 17
 254 0158 63820702 		beqz	a5,.L12
  41:src/wait_list.cpp ****         thread_t current = WaitList::remove();
 255              		.loc 1 41 26 discriminator 1
 256 015c 83B78700 		ld	a5,8(a5)
  41:src/wait_list.cpp ****         thread_t current = WaitList::remove();
 257              		.loc 1 41 17 discriminator 1
 258 0160 639E0700 		bnez	a5,.L12
 259              	.L21:
 260              	.LBB21:
  42:src/wait_list.cpp ****         if (current && current->isSleeping()) {
 261              		.loc 1 42 9 is_stmt 1
  42:src/wait_list.cpp ****         if (current && current->isSleeping()) {
 262              		.loc 1 42 44 is_stmt 0
 263 0164 97000000 		call	_ZN8WaitList6removeEv
 263      E7800000 
 264              	.LVL19:
  43:src/wait_list.cpp ****             current->setSleep(false);
 265              		.loc 1 43 9 is_stmt 1
  43:src/wait_list.cpp ****             current->setSleep(false);
 266              		.loc 1 43 21 is_stmt 0
 267 016c E30205FE 		beqz	a0,.L14
 268              	.LVL20:
 269              	.LBB19:
 270              	.LBB20:
  83:src/../h/../h/tcb.hpp ****     bool isSleeping() const { return this->sleep; }
 271              		.loc 2 83 31 is_stmt 1
 272              		.loc 2 83 44 is_stmt 0
 273 0170 83478503 		lbu	a5,56(a0)
 274              	.LVL21:
 275              	.LBE20:
 276              	.LBE19:
  43:src/wait_list.cpp ****             current->setSleep(false);
 277              		.loc 1 43 21
 278 0174 E38E07FC 		beqz	a5,.L14
 279 0178 6FF0DFFC 		j	.L23
 280              	.LVL22:
 281              	.L12:
 282              	.LBE21:
  46:src/wait_list.cpp ****         }
  47:src/wait_list.cpp ****     }
  48:src/wait_list.cpp **** }
 283              		.loc 1 48 1
 284 017c 83308100 		ld	ra,8(sp)
 285              		.cfi_restore 1
 286 0180 03340100 		ld	s0,0(sp)
GAS LISTING /tmp/ccDZFsdu.s 			page 9


 287              		.cfi_restore 8
 288              		.cfi_def_cfa 2, 16
 289 0184 13010101 		addi	sp,sp,16
 290              		.cfi_def_cfa_offset 0
 291 0188 67800000 		jr	ra
 292              	.L19:
 293 018c 67800000 		ret
 294              		.cfi_endproc
 295              	.LFE55:
 297              		.globl	_ZN8WaitList4headE
 298              		.bss
 299              		.align	3
 300              		.set	.LANCHOR0,. + 0
 303              	_ZN8WaitList4headE:
 304 0000 00000000 		.zero	8
 304      00000000 
 305              		.text
 306              	.Letext0:
 307              		.file 4 "src/../h/../h/../lib/hw.h"
 308              		.file 5 "src/../h/../h/../h/scheduler.hpp"
GAS LISTING /tmp/ccDZFsdu.s 			page 10

