GAS LISTING /tmp/ccBU7z6H.s 			page 1


   1              		.file	"buffer.cpp"
   2              		.option pic
   3              		.option norelax
   4              		.text
   5              	.Ltext0:
   6              		.align	2
   7              		.globl	_ZN6BufferC2Ei
   9              	_ZN6BufferC2Ei:
  10              	.LFB65:
  11              		.file 1 "test/buffer.cpp"
   1:test/buffer.cpp **** #include "buffer.hpp"
   2:test/buffer.cpp **** #include "../h/bounded_buffer.hpp"
   3:test/buffer.cpp **** 
   4:test/buffer.cpp **** Buffer* Buffer::pera = nullptr;
   5:test/buffer.cpp **** 
   6:test/buffer.cpp **** Buffer::Buffer(int _cap) : cap(_cap + 1), head(0), tail(0) {
  12              		.loc 1 6 1
  13              		.cfi_startproc
  14              	.LVL0:
  15 0000 130101FE 		addi	sp,sp,-32
  16              		.cfi_def_cfa_offset 32
  17 0004 233C1100 		sd	ra,24(sp)
  18 0008 23388100 		sd	s0,16(sp)
  19 000c 23349100 		sd	s1,8(sp)
  20 0010 23302101 		sd	s2,0(sp)
  21              		.cfi_offset 1, -8
  22              		.cfi_offset 8, -16
  23              		.cfi_offset 9, -24
  24              		.cfi_offset 18, -32
  25 0014 13040102 		addi	s0,sp,32
  26              		.cfi_def_cfa 8, 0
  27 0018 93040500 		mv	s1,a0
  28 001c 13890500 		mv	s2,a1
  29              	.LBB2:
  30              		.loc 1 6 37 is_stmt 0
  31 0020 9B871500 		addiw	a5,a1,1
  32 0024 1B850700 		sext.w	a0,a5
  33              	.LVL1:
  34              		.loc 1 6 58
  35 0028 23A0F400 		sw	a5,0(s1)
  36 002c 23A80400 		sw	zero,16(s1)
  37 0030 23AA0400 		sw	zero,20(s1)
   7:test/buffer.cpp ****     buffer = (int *)mem_alloc(sizeof(int) * cap);
  38              		.loc 1 7 5 is_stmt 1
  39              		.loc 1 7 30 is_stmt 0
  40 0034 13152500 		slli	a0,a0,2
  41 0038 97000000 		call	_Z9mem_allocm@plt
  41      E7800000 
  42              	.LVL2:
  43              		.loc 1 7 12
  44 0040 23B4A400 		sd	a0,8(s1)
   8:test/buffer.cpp ****     sem_open(&itemAvailable, 0);
  45              		.loc 1 8 5 is_stmt 1
  46              		.loc 1 8 13 is_stmt 0
  47 0044 93050000 		li	a1,0
  48 0048 13850402 		addi	a0,s1,32
  49 004c 97000000 		call	_Z8sem_openPP10_Semaphorej@plt
GAS LISTING /tmp/ccBU7z6H.s 			page 2


  49      E7800000 
  50              	.LVL3:
   9:test/buffer.cpp ****     sem_open(&spaceAvailable, _cap);
  51              		.loc 1 9 5 is_stmt 1
  52              		.loc 1 9 13 is_stmt 0
  53 0054 93050900 		mv	a1,s2
  54 0058 13858401 		addi	a0,s1,24
  55 005c 97000000 		call	_Z8sem_openPP10_Semaphorej@plt
  55      E7800000 
  56              	.LVL4:
  10:test/buffer.cpp ****     sem_open(&mutexHead, 1);
  57              		.loc 1 10 5 is_stmt 1
  58              		.loc 1 10 13 is_stmt 0
  59 0064 93051000 		li	a1,1
  60 0068 13858402 		addi	a0,s1,40
  61 006c 97000000 		call	_Z8sem_openPP10_Semaphorej@plt
  61      E7800000 
  62              	.LVL5:
  11:test/buffer.cpp ****     sem_open(&mutexTail, 1);
  63              		.loc 1 11 5 is_stmt 1
  64              		.loc 1 11 13 is_stmt 0
  65 0074 93051000 		li	a1,1
  66 0078 13850403 		addi	a0,s1,48
  67 007c 97000000 		call	_Z8sem_openPP10_Semaphorej@plt
  67      E7800000 
  68              	.LVL6:
  69              	.LBE2:
  12:test/buffer.cpp **** }
  70              		.loc 1 12 1
  71 0084 83308101 		ld	ra,24(sp)
  72              		.cfi_restore 1
  73 0088 03340101 		ld	s0,16(sp)
  74              		.cfi_restore 8
  75              		.cfi_def_cfa 2, 32
  76 008c 83348100 		ld	s1,8(sp)
  77              		.cfi_restore 9
  78              	.LVL7:
  79 0090 03390100 		ld	s2,0(sp)
  80              		.cfi_restore 18
  81 0094 13010102 		addi	sp,sp,32
  82              		.cfi_def_cfa_offset 0
  83 0098 67800000 		jr	ra
  84              		.cfi_endproc
  85              	.LFE65:
  87              		.globl	_ZN6BufferC1Ei
  88              		.set	_ZN6BufferC1Ei,_ZN6BufferC2Ei
  89              		.align	2
  90              		.globl	_ZN6Buffer3putEi
  92              	_ZN6Buffer3putEi:
  93              	.LFB70:
  13:test/buffer.cpp **** 
  14:test/buffer.cpp **** Buffer::~Buffer() {
  15:test/buffer.cpp ****     putc('\n');
  16:test/buffer.cpp ****     printString("Buffer deleted!\n");
  17:test/buffer.cpp ****     while (getCnt() > 0) {
  18:test/buffer.cpp ****         char ch = buffer[head];
  19:test/buffer.cpp ****         putc(ch);
GAS LISTING /tmp/ccBU7z6H.s 			page 3


  20:test/buffer.cpp ****         head = (head + 1) % cap;
  21:test/buffer.cpp ****     }
  22:test/buffer.cpp ****     putc('!');
  23:test/buffer.cpp ****     putc('\n');
  24:test/buffer.cpp **** 
  25:test/buffer.cpp ****     mem_free(buffer);
  26:test/buffer.cpp ****     sem_close(itemAvailable);
  27:test/buffer.cpp ****     sem_close(spaceAvailable);
  28:test/buffer.cpp ****     sem_close(mutexTail);
  29:test/buffer.cpp ****     sem_close(mutexHead);
  30:test/buffer.cpp **** }
  31:test/buffer.cpp **** 
  32:test/buffer.cpp **** void Buffer::put(int val) {
  94              		.loc 1 32 27 is_stmt 1
  95              		.cfi_startproc
  96              	.LVL8:
  97 009c 130101FE 		addi	sp,sp,-32
  98              		.cfi_def_cfa_offset 32
  99 00a0 233C1100 		sd	ra,24(sp)
 100 00a4 23388100 		sd	s0,16(sp)
 101 00a8 23349100 		sd	s1,8(sp)
 102 00ac 23302101 		sd	s2,0(sp)
 103              		.cfi_offset 1, -8
 104              		.cfi_offset 8, -16
 105              		.cfi_offset 9, -24
 106              		.cfi_offset 18, -32
 107 00b0 13040102 		addi	s0,sp,32
 108              		.cfi_def_cfa 8, 0
 109 00b4 93040500 		mv	s1,a0
 110 00b8 13890500 		mv	s2,a1
  33:test/buffer.cpp ****     sem_wait(spaceAvailable);
 111              		.loc 1 33 5
 112              		.loc 1 33 13 is_stmt 0
 113 00bc 03358501 		ld	a0,24(a0)
 114              	.LVL9:
 115 00c0 97000000 		call	_Z8sem_waitP10_Semaphore@plt
 115      E7800000 
 116              	.LVL10:
  34:test/buffer.cpp **** 
  35:test/buffer.cpp ****     sem_wait(mutexTail);
 117              		.loc 1 35 5 is_stmt 1
 118              		.loc 1 35 13 is_stmt 0
 119 00c8 03B50403 		ld	a0,48(s1)
 120 00cc 97000000 		call	_Z8sem_waitP10_Semaphore@plt
 120      E7800000 
 121              	.LVL11:
  36:test/buffer.cpp ****     buffer[tail] = val;
 122              		.loc 1 36 5 is_stmt 1
 123 00d4 83B78400 		ld	a5,8(s1)
 124              		.loc 1 36 12 is_stmt 0
 125 00d8 03A74401 		lw	a4,20(s1)
 126              		.loc 1 36 16
 127 00dc 13172700 		slli	a4,a4,2
 128 00e0 B387E700 		add	a5,a5,a4
 129              		.loc 1 36 18
 130 00e4 23A02701 		sw	s2,0(a5)
  37:test/buffer.cpp ****     tail = (tail + 1) % cap;
GAS LISTING /tmp/ccBU7z6H.s 			page 4


 131              		.loc 1 37 5 is_stmt 1
 132              		.loc 1 37 13 is_stmt 0
 133 00e8 83A74401 		lw	a5,20(s1)
 134              		.loc 1 37 18
 135 00ec 9B871700 		addiw	a5,a5,1
 136              		.loc 1 37 25
 137 00f0 03A70400 		lw	a4,0(s1)
 138              		.loc 1 37 23
 139 00f4 BBE7E702 		remw	a5,a5,a4
 140              		.loc 1 37 10
 141 00f8 23AAF400 		sw	a5,20(s1)
  38:test/buffer.cpp ****     sem_signal(mutexTail);
 142              		.loc 1 38 5 is_stmt 1
 143              		.loc 1 38 15 is_stmt 0
 144 00fc 03B50403 		ld	a0,48(s1)
 145 0100 97000000 		call	_Z10sem_signalP10_Semaphore@plt
 145      E7800000 
 146              	.LVL12:
  39:test/buffer.cpp **** 
  40:test/buffer.cpp ****     sem_signal(itemAvailable);
 147              		.loc 1 40 5 is_stmt 1
 148              		.loc 1 40 15 is_stmt 0
 149 0108 03B50402 		ld	a0,32(s1)
 150 010c 97000000 		call	_Z10sem_signalP10_Semaphore@plt
 150      E7800000 
 151              	.LVL13:
  41:test/buffer.cpp **** 
  42:test/buffer.cpp **** }
 152              		.loc 1 42 1
 153 0114 83308101 		ld	ra,24(sp)
 154              		.cfi_restore 1
 155 0118 03340101 		ld	s0,16(sp)
 156              		.cfi_restore 8
 157              		.cfi_def_cfa 2, 32
 158 011c 83348100 		ld	s1,8(sp)
 159              		.cfi_restore 9
 160              	.LVL14:
 161 0120 03390100 		ld	s2,0(sp)
 162              		.cfi_restore 18
 163 0124 13010102 		addi	sp,sp,32
 164              		.cfi_def_cfa_offset 0
 165 0128 67800000 		jr	ra
 166              		.cfi_endproc
 167              	.LFE70:
 169              		.align	2
 170              		.globl	_ZN6Buffer3getEv
 172              	_ZN6Buffer3getEv:
 173              	.LFB71:
  43:test/buffer.cpp **** 
  44:test/buffer.cpp **** int Buffer::get() {
 174              		.loc 1 44 19 is_stmt 1
 175              		.cfi_startproc
 176              	.LVL15:
 177 012c 130101FE 		addi	sp,sp,-32
 178              		.cfi_def_cfa_offset 32
 179 0130 233C1100 		sd	ra,24(sp)
 180 0134 23388100 		sd	s0,16(sp)
GAS LISTING /tmp/ccBU7z6H.s 			page 5


 181 0138 23349100 		sd	s1,8(sp)
 182 013c 23302101 		sd	s2,0(sp)
 183              		.cfi_offset 1, -8
 184              		.cfi_offset 8, -16
 185              		.cfi_offset 9, -24
 186              		.cfi_offset 18, -32
 187 0140 13040102 		addi	s0,sp,32
 188              		.cfi_def_cfa 8, 0
 189 0144 93040500 		mv	s1,a0
  45:test/buffer.cpp ****     sem_wait(itemAvailable);
 190              		.loc 1 45 5
 191              		.loc 1 45 13 is_stmt 0
 192 0148 03350502 		ld	a0,32(a0)
 193              	.LVL16:
 194 014c 97000000 		call	_Z8sem_waitP10_Semaphore@plt
 194      E7800000 
 195              	.LVL17:
  46:test/buffer.cpp **** 
  47:test/buffer.cpp ****     mutexHead->wait();
 196              		.loc 1 47 5 is_stmt 1
 197              		.loc 1 47 20 is_stmt 0
 198 0154 03B58402 		ld	a0,40(s1)
 199 0158 97000000 		call	_ZN10_Semaphore4waitEv@plt
 199      E7800000 
 200              	.LVL18:
  48:test/buffer.cpp **** 
  49:test/buffer.cpp ****     int ret = buffer[head];
 201              		.loc 1 49 5 is_stmt 1
 202              		.loc 1 49 15 is_stmt 0
 203 0160 03B78400 		ld	a4,8(s1)
 204              		.loc 1 49 22
 205 0164 83A70401 		lw	a5,16(s1)
 206              		.loc 1 49 26
 207 0168 93962700 		slli	a3,a5,2
 208 016c 3307D700 		add	a4,a4,a3
 209              		.loc 1 49 9
 210 0170 03290700 		lw	s2,0(a4)
 211              	.LVL19:
  50:test/buffer.cpp ****     head = (head + 1) % cap;
 212              		.loc 1 50 5 is_stmt 1
 213              		.loc 1 50 18 is_stmt 0
 214 0174 9B871700 		addiw	a5,a5,1
 215              		.loc 1 50 25
 216 0178 03A70400 		lw	a4,0(s1)
 217              		.loc 1 50 23
 218 017c BBE7E702 		remw	a5,a5,a4
 219              		.loc 1 50 10
 220 0180 23A8F400 		sw	a5,16(s1)
  51:test/buffer.cpp ****     mutexHead->signal();
 221              		.loc 1 51 5 is_stmt 1
 222              		.loc 1 51 22 is_stmt 0
 223 0184 03B58402 		ld	a0,40(s1)
 224 0188 97000000 		call	_ZN10_Semaphore6signalEv@plt
 224      E7800000 
 225              	.LVL20:
  52:test/buffer.cpp **** 
  53:test/buffer.cpp ****     sem_signal(spaceAvailable);
GAS LISTING /tmp/ccBU7z6H.s 			page 6


 226              		.loc 1 53 5 is_stmt 1
 227              		.loc 1 53 15 is_stmt 0
 228 0190 03B58401 		ld	a0,24(s1)
 229 0194 97000000 		call	_Z10sem_signalP10_Semaphore@plt
 229      E7800000 
 230              	.LVL21:
  54:test/buffer.cpp **** 
  55:test/buffer.cpp ****     return ret;
 231              		.loc 1 55 5 is_stmt 1
  56:test/buffer.cpp **** }
 232              		.loc 1 56 1 is_stmt 0
 233 019c 13050900 		mv	a0,s2
 234 01a0 83308101 		ld	ra,24(sp)
 235              		.cfi_restore 1
 236 01a4 03340101 		ld	s0,16(sp)
 237              		.cfi_restore 8
 238              		.cfi_def_cfa 2, 32
 239 01a8 83348100 		ld	s1,8(sp)
 240              		.cfi_restore 9
 241              	.LVL22:
 242 01ac 03390100 		ld	s2,0(sp)
 243              		.cfi_restore 18
 244              	.LVL23:
 245 01b0 13010102 		addi	sp,sp,32
 246              		.cfi_def_cfa_offset 0
 247 01b4 67800000 		jr	ra
 248              		.cfi_endproc
 249              	.LFE71:
 251              		.align	2
 252              		.globl	_ZN6Buffer6getCntEv
 254              	_ZN6Buffer6getCntEv:
 255              	.LFB72:
  57:test/buffer.cpp **** 
  58:test/buffer.cpp **** int Buffer::getCnt() {
 256              		.loc 1 58 22 is_stmt 1
 257              		.cfi_startproc
 258              	.LVL24:
 259 01b8 130101FE 		addi	sp,sp,-32
 260              		.cfi_def_cfa_offset 32
 261 01bc 233C1100 		sd	ra,24(sp)
 262 01c0 23388100 		sd	s0,16(sp)
 263 01c4 23349100 		sd	s1,8(sp)
 264 01c8 23302101 		sd	s2,0(sp)
 265              		.cfi_offset 1, -8
 266              		.cfi_offset 8, -16
 267              		.cfi_offset 9, -24
 268              		.cfi_offset 18, -32
 269 01cc 13040102 		addi	s0,sp,32
 270              		.cfi_def_cfa 8, 0
 271 01d0 93040500 		mv	s1,a0
  59:test/buffer.cpp ****     int ret;
 272              		.loc 1 59 5
  60:test/buffer.cpp **** 
  61:test/buffer.cpp ****     sem_wait(mutexHead);
 273              		.loc 1 61 5
 274              		.loc 1 61 13 is_stmt 0
 275 01d4 03358502 		ld	a0,40(a0)
GAS LISTING /tmp/ccBU7z6H.s 			page 7


 276              	.LVL25:
 277 01d8 97000000 		call	_Z8sem_waitP10_Semaphore@plt
 277      E7800000 
 278              	.LVL26:
  62:test/buffer.cpp ****     sem_wait(mutexTail);
 279              		.loc 1 62 5 is_stmt 1
 280              		.loc 1 62 13 is_stmt 0
 281 01e0 03B50403 		ld	a0,48(s1)
 282 01e4 97000000 		call	_Z8sem_waitP10_Semaphore@plt
 282      E7800000 
 283              	.LVL27:
  63:test/buffer.cpp **** 
  64:test/buffer.cpp ****     if (tail >= head) {
 284              		.loc 1 64 5 is_stmt 1
 285              		.loc 1 64 9 is_stmt 0
 286 01ec 83A74401 		lw	a5,20(s1)
 287              		.loc 1 64 17
 288 01f0 03A90401 		lw	s2,16(s1)
 289              		.loc 1 64 5
 290 01f4 63CE2703 		blt	a5,s2,.L8
  65:test/buffer.cpp ****         ret = tail - head;
 291              		.loc 1 65 9 is_stmt 1
 292              		.loc 1 65 13 is_stmt 0
 293 01f8 3B892741 		subw	s2,a5,s2
 294              	.LVL28:
 295              	.L9:
  66:test/buffer.cpp ****     } else {
  67:test/buffer.cpp ****         ret = cap - head + tail;
  68:test/buffer.cpp ****     }
  69:test/buffer.cpp **** 
  70:test/buffer.cpp ****     sem_signal(mutexTail);
 296              		.loc 1 70 5 is_stmt 1
 297              		.loc 1 70 15 is_stmt 0
 298 01fc 03B50403 		ld	a0,48(s1)
 299 0200 97000000 		call	_Z10sem_signalP10_Semaphore@plt
 299      E7800000 
 300              	.LVL29:
  71:test/buffer.cpp ****     sem_signal(mutexHead);
 301              		.loc 1 71 5 is_stmt 1
 302              		.loc 1 71 15 is_stmt 0
 303 0208 03B58402 		ld	a0,40(s1)
 304 020c 97000000 		call	_Z10sem_signalP10_Semaphore@plt
 304      E7800000 
 305              	.LVL30:
  72:test/buffer.cpp **** 
  73:test/buffer.cpp ****     return ret;
 306              		.loc 1 73 5 is_stmt 1
  74:test/buffer.cpp **** }...
 307              		.loc 1 74 1 is_stmt 0
 308 0214 13050900 		mv	a0,s2
 309 0218 83308101 		ld	ra,24(sp)
 310              		.cfi_remember_state
 311              		.cfi_restore 1
 312 021c 03340101 		ld	s0,16(sp)
 313              		.cfi_restore 8
 314              		.cfi_def_cfa 2, 32
 315 0220 83348100 		ld	s1,8(sp)
GAS LISTING /tmp/ccBU7z6H.s 			page 8


 316              		.cfi_restore 9
 317              	.LVL31:
 318 0224 03390100 		ld	s2,0(sp)
 319              		.cfi_restore 18
 320              	.LVL32:
 321 0228 13010102 		addi	sp,sp,32
 322              		.cfi_def_cfa_offset 0
 323 022c 67800000 		jr	ra
 324              	.LVL33:
 325              	.L8:
 326              		.cfi_restore_state
  67:test/buffer.cpp ****         ret = cap - head + tail;
 327              		.loc 1 67 9 is_stmt 1
  67:test/buffer.cpp ****         ret = cap - head + tail;
 328              		.loc 1 67 15 is_stmt 0
 329 0230 03A70400 		lw	a4,0(s1)
  67:test/buffer.cpp ****         ret = cap - head + tail;
 330              		.loc 1 67 19
 331 0234 3B092741 		subw	s2,a4,s2
  67:test/buffer.cpp ****         ret = cap - head + tail;
 332              		.loc 1 67 13
 333 0238 3B09F900 		addw	s2,s2,a5
 334 023c 6FF01FFC 		j	.L9
 335              		.cfi_endproc
 336              	.LFE72:
 338              		.section	.rodata.str1.8,"aMS",@progbits,1
 339              		.align	3
 340              	.LC0:
 341 0000 42756666 		.string	"Buffer deleted!\n"
 341      65722064 
 341      656C6574 
 341      6564210A 
 341      00
 342              		.text
 343              		.align	2
 344              		.globl	_ZN6BufferD2Ev
 346              	_ZN6BufferD2Ev:
 347              	.LFB68:
  14:test/buffer.cpp **** Buffer::~Buffer() {
 348              		.loc 1 14 1 is_stmt 1
 349              		.cfi_startproc
 350              		.cfi_personality 0x9b,DW.ref.__gxx_personality_v0
 351              		.cfi_lsda 0x1b,.LLSDA68
 352              	.LVL34:
 353 0240 130101FE 		addi	sp,sp,-32
 354              		.cfi_def_cfa_offset 32
 355 0244 233C1100 		sd	ra,24(sp)
 356 0248 23388100 		sd	s0,16(sp)
 357 024c 23349100 		sd	s1,8(sp)
 358              		.cfi_offset 1, -8
 359              		.cfi_offset 8, -16
 360              		.cfi_offset 9, -24
 361 0250 13040102 		addi	s0,sp,32
 362              		.cfi_def_cfa 8, 0
 363 0254 93040500 		mv	s1,a0
 364              	.LBB3:
  15:test/buffer.cpp ****     putc('\n');
GAS LISTING /tmp/ccBU7z6H.s 			page 9


 365              		.loc 1 15 5
  15:test/buffer.cpp ****     putc('\n');
 366              		.loc 1 15 9 is_stmt 0
 367 0258 1305A000 		li	a0,10
 368              	.LVL35:
 369 025c 97000000 		call	_Z4putcc@plt
 369      E7800000 
 370              	.LVL36:
  16:test/buffer.cpp ****     printString("Buffer deleted!\n");
 371              		.loc 1 16 5 is_stmt 1
  16:test/buffer.cpp ****     printString("Buffer deleted!\n");
 372              		.loc 1 16 16 is_stmt 0
 373 0264 17050000 		lla	a0,.LC0
 373      13050500 
 374 026c 97000000 		call	_Z11printStringPKc@plt
 374      E7800000 
 375              	.LVL37:
 376              	.L13:
  17:test/buffer.cpp ****     while (getCnt() > 0) {
 377              		.loc 1 17 5 is_stmt 1
  17:test/buffer.cpp ****     while (getCnt() > 0) {
 378              		.loc 1 17 21
  17:test/buffer.cpp ****     while (getCnt() > 0) {
 379              		.loc 1 17 18 is_stmt 0
 380 0274 13850400 		mv	a0,s1
 381 0278 97000000 		call	_ZN6Buffer6getCntEv
 381      E7800000 
 382              	.LVL38:
  17:test/buffer.cpp ****     while (getCnt() > 0) {
 383              		.loc 1 17 21
 384 0280 635CA002 		blez	a0,.L12
 385              	.LBB4:
  18:test/buffer.cpp ****         char ch = buffer[head];
 386              		.loc 1 18 9 is_stmt 1
  18:test/buffer.cpp ****         char ch = buffer[head];
 387              		.loc 1 18 19 is_stmt 0
 388 0284 83B78400 		ld	a5,8(s1)
  18:test/buffer.cpp ****         char ch = buffer[head];
 389              		.loc 1 18 26
 390 0288 03A70401 		lw	a4,16(s1)
  18:test/buffer.cpp ****         char ch = buffer[head];
 391              		.loc 1 18 30
 392 028c 13172700 		slli	a4,a4,2
 393 0290 B387E700 		add	a5,a5,a4
 394              	.LVL39:
  19:test/buffer.cpp ****         putc(ch);
 395              		.loc 1 19 9 is_stmt 1
  19:test/buffer.cpp ****         putc(ch);
 396              		.loc 1 19 13 is_stmt 0
 397 0294 03C50700 		lbu	a0,0(a5)
 398 0298 97000000 		call	_Z4putcc@plt
 398      E7800000 
 399              	.LVL40:
  20:test/buffer.cpp ****         head = (head + 1) % cap;
 400              		.loc 1 20 9 is_stmt 1
  20:test/buffer.cpp ****         head = (head + 1) % cap;
 401              		.loc 1 20 17 is_stmt 0
GAS LISTING /tmp/ccBU7z6H.s 			page 10


 402 02a0 83A70401 		lw	a5,16(s1)
  20:test/buffer.cpp ****         head = (head + 1) % cap;
 403              		.loc 1 20 22
 404 02a4 9B871700 		addiw	a5,a5,1
  20:test/buffer.cpp ****         head = (head + 1) % cap;
 405              		.loc 1 20 29
 406 02a8 03A70400 		lw	a4,0(s1)
  20:test/buffer.cpp ****         head = (head + 1) % cap;
 407              		.loc 1 20 27
 408 02ac BBE7E702 		remw	a5,a5,a4
  20:test/buffer.cpp ****         head = (head + 1) % cap;
 409              		.loc 1 20 14
 410 02b0 23A8F400 		sw	a5,16(s1)
 411              	.LBE4:
  17:test/buffer.cpp ****     while (getCnt() > 0) {
 412              		.loc 1 17 5
 413 02b4 6FF01FFC 		j	.L13
 414              	.L12:
  22:test/buffer.cpp ****     putc('!');
 415              		.loc 1 22 5 is_stmt 1
  22:test/buffer.cpp ****     putc('!');
 416              		.loc 1 22 9 is_stmt 0
 417 02b8 13051002 		li	a0,33
 418 02bc 97000000 		call	_Z4putcc@plt
 418      E7800000 
 419              	.LVL41:
  23:test/buffer.cpp ****     putc('\n');
 420              		.loc 1 23 5 is_stmt 1
  23:test/buffer.cpp ****     putc('\n');
 421              		.loc 1 23 9 is_stmt 0
 422 02c4 1305A000 		li	a0,10
 423 02c8 97000000 		call	_Z4putcc@plt
 423      E7800000 
 424              	.LVL42:
  25:test/buffer.cpp ****     mem_free(buffer);
 425              		.loc 1 25 5 is_stmt 1
  25:test/buffer.cpp ****     mem_free(buffer);
 426              		.loc 1 25 13 is_stmt 0
 427 02d0 03B58400 		ld	a0,8(s1)
 428 02d4 97000000 		call	_Z8mem_freePv@plt
 428      E7800000 
 429              	.LVL43:
  26:test/buffer.cpp ****     sem_close(itemAvailable);
 430              		.loc 1 26 5 is_stmt 1
  26:test/buffer.cpp ****     sem_close(itemAvailable);
 431              		.loc 1 26 14 is_stmt 0
 432 02dc 03B50402 		ld	a0,32(s1)
 433 02e0 97000000 		call	_Z9sem_closeP10_Semaphore@plt
 433      E7800000 
 434              	.LVL44:
  27:test/buffer.cpp ****     sem_close(spaceAvailable);
 435              		.loc 1 27 5 is_stmt 1
  27:test/buffer.cpp ****     sem_close(spaceAvailable);
 436              		.loc 1 27 14 is_stmt 0
 437 02e8 03B58401 		ld	a0,24(s1)
 438 02ec 97000000 		call	_Z9sem_closeP10_Semaphore@plt
 438      E7800000 
GAS LISTING /tmp/ccBU7z6H.s 			page 11


 439              	.LVL45:
  28:test/buffer.cpp ****     sem_close(mutexTail);
 440              		.loc 1 28 5 is_stmt 1
  28:test/buffer.cpp ****     sem_close(mutexTail);
 441              		.loc 1 28 14 is_stmt 0
 442 02f4 03B50403 		ld	a0,48(s1)
 443 02f8 97000000 		call	_Z9sem_closeP10_Semaphore@plt
 443      E7800000 
 444              	.LVL46:
  29:test/buffer.cpp ****     sem_close(mutexHead);
 445              		.loc 1 29 5 is_stmt 1
  29:test/buffer.cpp ****     sem_close(mutexHead);
 446              		.loc 1 29 14 is_stmt 0
 447 0300 03B58402 		ld	a0,40(s1)
 448 0304 97000000 		call	_Z9sem_closeP10_Semaphore@plt
 448      E7800000 
 449              	.LVL47:
 450              	.LBE3:
  30:test/buffer.cpp **** }
 451              		.loc 1 30 1
 452 030c 83308101 		ld	ra,24(sp)
 453              		.cfi_restore 1
 454 0310 03340101 		ld	s0,16(sp)
 455              		.cfi_restore 8
 456              		.cfi_def_cfa 2, 32
 457 0314 83348100 		ld	s1,8(sp)
 458              		.cfi_restore 9
 459              	.LVL48:
 460 0318 13010102 		addi	sp,sp,32
 461              		.cfi_def_cfa_offset 0
 462 031c 67800000 		jr	ra
 463              		.cfi_endproc
 464              	.LFE68:
 465              		.globl	__gxx_personality_v0
 466              		.section	.gcc_except_table,"a",@progbits
 467              	.LLSDA68:
 468 0000 FF       		.byte	0xff
 469 0001 FF       		.byte	0xff
 470 0002 03       		.byte	0x3
 471 0003 00       		.byte	0
 472              		.text
 474              		.globl	_ZN6BufferD1Ev
 475              		.set	_ZN6BufferD1Ev,_ZN6BufferD2Ev
 476              		.globl	_ZN6Buffer4peraE
 477              		.bss
 478              		.align	3
 481              	_ZN6Buffer4peraE:
 482 0000 00000000 		.zero	8
 482      00000000 
 483              		.text
 484              	.Letext0:
 485              		.file 2 "test/../h/../lib/hw.h"
 486              		.file 3 "test/../h/../h/../h/list.hpp"
 487              		.file 4 "test/../h/../h/tcb.hpp"
 488              		.file 5 "test/../h/../h/semaphore.hpp"
 489              		.file 6 "test/../h/syscall_c.hpp"
 490              		.file 7 "test/buffer.hpp"
GAS LISTING /tmp/ccBU7z6H.s 			page 12


 491              		.file 8 "test/printing.hpp"
 3340              		.align	3
 3343              	DW.ref.__gxx_personality_v0:
 3344 0000 00000000 		.dword	__gxx_personality_v0
 3344      00000000 
 3345              		.ident	"GCC: (Ubuntu 9.4.0-1ubuntu1~20.04) 9.4.0"
 3346              		.section	.note.GNU-stack,"",@progbits
GAS LISTING /tmp/ccBU7z6H.s 			page 13


DEFINED SYMBOLS
                            *ABS*:0000000000000000 buffer.cpp
     /tmp/ccBU7z6H.s:9      .text:0000000000000000 _ZN6BufferC2Ei
     /tmp/ccBU7z6H.s:13     .text:0000000000000000 .L0 
     /tmp/ccBU7z6H.s:15     .text:0000000000000000 .L0 
     /tmp/ccBU7z6H.s:16     .text:0000000000000004 .L0 
     /tmp/ccBU7z6H.s:21     .text:0000000000000014 .L0 
     /tmp/ccBU7z6H.s:22     .text:0000000000000014 .L0 
     /tmp/ccBU7z6H.s:23     .text:0000000000000014 .L0 
     /tmp/ccBU7z6H.s:24     .text:0000000000000014 .L0 
     /tmp/ccBU7z6H.s:26     .text:0000000000000018 .L0 
     /tmp/ccBU7z6H.s:31     .text:0000000000000020 .L0 
     /tmp/ccBU7z6H.s:35     .text:0000000000000028 .L0 
     /tmp/ccBU7z6H.s:39     .text:0000000000000034 .L0 
     /tmp/ccBU7z6H.s:40     .text:0000000000000034 .L0 
     /tmp/ccBU7z6H.s:44     .text:0000000000000040 .L0 
     /tmp/ccBU7z6H.s:46     .text:0000000000000044 .L0 
     /tmp/ccBU7z6H.s:47     .text:0000000000000044 .L0 
     /tmp/ccBU7z6H.s:52     .text:0000000000000054 .L0 
     /tmp/ccBU7z6H.s:53     .text:0000000000000054 .L0 
     /tmp/ccBU7z6H.s:58     .text:0000000000000064 .L0 
     /tmp/ccBU7z6H.s:59     .text:0000000000000064 .L0 
     /tmp/ccBU7z6H.s:64     .text:0000000000000074 .L0 
     /tmp/ccBU7z6H.s:65     .text:0000000000000074 .L0 
     /tmp/ccBU7z6H.s:71     .text:0000000000000084 .L0 
     /tmp/ccBU7z6H.s:72     .text:0000000000000088 .L0 
     /tmp/ccBU7z6H.s:74     .text:000000000000008c .L0 
     /tmp/ccBU7z6H.s:75     .text:000000000000008c .L0 
     /tmp/ccBU7z6H.s:77     .text:0000000000000090 .L0 
     /tmp/ccBU7z6H.s:80     .text:0000000000000094 .L0 
     /tmp/ccBU7z6H.s:82     .text:0000000000000098 .L0 
     /tmp/ccBU7z6H.s:84     .text:000000000000009c .L0 
     /tmp/ccBU7z6H.s:9      .text:0000000000000000 _ZN6BufferC1Ei
     /tmp/ccBU7z6H.s:92     .text:000000000000009c _ZN6Buffer3putEi
     /tmp/ccBU7z6H.s:95     .text:000000000000009c .L0 
     /tmp/ccBU7z6H.s:97     .text:000000000000009c .L0 
     /tmp/ccBU7z6H.s:98     .text:00000000000000a0 .L0 
     /tmp/ccBU7z6H.s:103    .text:00000000000000b0 .L0 
     /tmp/ccBU7z6H.s:104    .text:00000000000000b0 .L0 
     /tmp/ccBU7z6H.s:105    .text:00000000000000b0 .L0 
     /tmp/ccBU7z6H.s:106    .text:00000000000000b0 .L0 
     /tmp/ccBU7z6H.s:108    .text:00000000000000b4 .L0 
     /tmp/ccBU7z6H.s:112    .text:00000000000000bc .L0 
     /tmp/ccBU7z6H.s:113    .text:00000000000000bc .L0 
     /tmp/ccBU7z6H.s:118    .text:00000000000000c8 .L0 
     /tmp/ccBU7z6H.s:119    .text:00000000000000c8 .L0 
     /tmp/ccBU7z6H.s:123    .text:00000000000000d4 .L0 
     /tmp/ccBU7z6H.s:125    .text:00000000000000d8 .L0 
     /tmp/ccBU7z6H.s:127    .text:00000000000000dc .L0 
     /tmp/ccBU7z6H.s:130    .text:00000000000000e4 .L0 
     /tmp/ccBU7z6H.s:132    .text:00000000000000e8 .L0 
     /tmp/ccBU7z6H.s:133    .text:00000000000000e8 .L0 
     /tmp/ccBU7z6H.s:135    .text:00000000000000ec .L0 
     /tmp/ccBU7z6H.s:137    .text:00000000000000f0 .L0 
     /tmp/ccBU7z6H.s:139    .text:00000000000000f4 .L0 
     /tmp/ccBU7z6H.s:141    .text:00000000000000f8 .L0 
     /tmp/ccBU7z6H.s:143    .text:00000000000000fc .L0 
GAS LISTING /tmp/ccBU7z6H.s 			page 14


     /tmp/ccBU7z6H.s:144    .text:00000000000000fc .L0 
     /tmp/ccBU7z6H.s:148    .text:0000000000000108 .L0 
     /tmp/ccBU7z6H.s:149    .text:0000000000000108 .L0 
     /tmp/ccBU7z6H.s:153    .text:0000000000000114 .L0 
     /tmp/ccBU7z6H.s:154    .text:0000000000000118 .L0 
     /tmp/ccBU7z6H.s:156    .text:000000000000011c .L0 
     /tmp/ccBU7z6H.s:157    .text:000000000000011c .L0 
     /tmp/ccBU7z6H.s:159    .text:0000000000000120 .L0 
     /tmp/ccBU7z6H.s:162    .text:0000000000000124 .L0 
     /tmp/ccBU7z6H.s:164    .text:0000000000000128 .L0 
     /tmp/ccBU7z6H.s:166    .text:000000000000012c .L0 
     /tmp/ccBU7z6H.s:172    .text:000000000000012c _ZN6Buffer3getEv
     /tmp/ccBU7z6H.s:175    .text:000000000000012c .L0 
     /tmp/ccBU7z6H.s:177    .text:000000000000012c .L0 
     /tmp/ccBU7z6H.s:178    .text:0000000000000130 .L0 
     /tmp/ccBU7z6H.s:183    .text:0000000000000140 .L0 
     /tmp/ccBU7z6H.s:184    .text:0000000000000140 .L0 
     /tmp/ccBU7z6H.s:185    .text:0000000000000140 .L0 
     /tmp/ccBU7z6H.s:186    .text:0000000000000140 .L0 
     /tmp/ccBU7z6H.s:188    .text:0000000000000144 .L0 
     /tmp/ccBU7z6H.s:191    .text:0000000000000148 .L0 
     /tmp/ccBU7z6H.s:192    .text:0000000000000148 .L0 
     /tmp/ccBU7z6H.s:197    .text:0000000000000154 .L0 
     /tmp/ccBU7z6H.s:198    .text:0000000000000154 .L0 
     /tmp/ccBU7z6H.s:202    .text:0000000000000160 .L0 
     /tmp/ccBU7z6H.s:203    .text:0000000000000160 .L0 
     /tmp/ccBU7z6H.s:205    .text:0000000000000164 .L0 
     /tmp/ccBU7z6H.s:207    .text:0000000000000168 .L0 
     /tmp/ccBU7z6H.s:210    .text:0000000000000170 .L0 
     /tmp/ccBU7z6H.s:213    .text:0000000000000174 .L0 
     /tmp/ccBU7z6H.s:214    .text:0000000000000174 .L0 
     /tmp/ccBU7z6H.s:216    .text:0000000000000178 .L0 
     /tmp/ccBU7z6H.s:218    .text:000000000000017c .L0 
     /tmp/ccBU7z6H.s:220    .text:0000000000000180 .L0 
     /tmp/ccBU7z6H.s:222    .text:0000000000000184 .L0 
     /tmp/ccBU7z6H.s:223    .text:0000000000000184 .L0 
     /tmp/ccBU7z6H.s:227    .text:0000000000000190 .L0 
     /tmp/ccBU7z6H.s:228    .text:0000000000000190 .L0 
     /tmp/ccBU7z6H.s:232    .text:000000000000019c .L0 
     /tmp/ccBU7z6H.s:233    .text:000000000000019c .L0 
     /tmp/ccBU7z6H.s:235    .text:00000000000001a4 .L0 
     /tmp/ccBU7z6H.s:237    .text:00000000000001a8 .L0 
     /tmp/ccBU7z6H.s:238    .text:00000000000001a8 .L0 
     /tmp/ccBU7z6H.s:240    .text:00000000000001ac .L0 
     /tmp/ccBU7z6H.s:243    .text:00000000000001b0 .L0 
     /tmp/ccBU7z6H.s:246    .text:00000000000001b4 .L0 
     /tmp/ccBU7z6H.s:248    .text:00000000000001b8 .L0 
     /tmp/ccBU7z6H.s:254    .text:00000000000001b8 _ZN6Buffer6getCntEv
     /tmp/ccBU7z6H.s:257    .text:00000000000001b8 .L0 
     /tmp/ccBU7z6H.s:259    .text:00000000000001b8 .L0 
     /tmp/ccBU7z6H.s:260    .text:00000000000001bc .L0 
     /tmp/ccBU7z6H.s:265    .text:00000000000001cc .L0 
     /tmp/ccBU7z6H.s:266    .text:00000000000001cc .L0 
     /tmp/ccBU7z6H.s:267    .text:00000000000001cc .L0 
     /tmp/ccBU7z6H.s:268    .text:00000000000001cc .L0 
     /tmp/ccBU7z6H.s:270    .text:00000000000001d0 .L0 
     /tmp/ccBU7z6H.s:273    .text:00000000000001d4 .L0 
GAS LISTING /tmp/ccBU7z6H.s 			page 15


     /tmp/ccBU7z6H.s:274    .text:00000000000001d4 .L0 
     /tmp/ccBU7z6H.s:275    .text:00000000000001d4 .L0 
     /tmp/ccBU7z6H.s:280    .text:00000000000001e0 .L0 
     /tmp/ccBU7z6H.s:281    .text:00000000000001e0 .L0 
     /tmp/ccBU7z6H.s:285    .text:00000000000001ec .L0 
     /tmp/ccBU7z6H.s:286    .text:00000000000001ec .L0 
     /tmp/ccBU7z6H.s:288    .text:00000000000001f0 .L0 
     /tmp/ccBU7z6H.s:290    .text:00000000000001f4 .L0 
     /tmp/ccBU7z6H.s:292    .text:00000000000001f8 .L0 
     /tmp/ccBU7z6H.s:293    .text:00000000000001f8 .L0 
     /tmp/ccBU7z6H.s:297    .text:00000000000001fc .L0 
     /tmp/ccBU7z6H.s:298    .text:00000000000001fc .L0 
     /tmp/ccBU7z6H.s:302    .text:0000000000000208 .L0 
     /tmp/ccBU7z6H.s:303    .text:0000000000000208 .L0 
     /tmp/ccBU7z6H.s:307    .text:0000000000000214 .L0 
     /tmp/ccBU7z6H.s:308    .text:0000000000000214 .L0 
     /tmp/ccBU7z6H.s:310    .text:000000000000021c .L0 
     /tmp/ccBU7z6H.s:311    .text:000000000000021c .L0 
     /tmp/ccBU7z6H.s:313    .text:0000000000000220 .L0 
     /tmp/ccBU7z6H.s:314    .text:0000000000000220 .L0 
     /tmp/ccBU7z6H.s:316    .text:0000000000000224 .L0 
     /tmp/ccBU7z6H.s:319    .text:0000000000000228 .L0 
     /tmp/ccBU7z6H.s:322    .text:000000000000022c .L0 
     /tmp/ccBU7z6H.s:326    .text:0000000000000230 .L0 
     /tmp/ccBU7z6H.s:328    .text:0000000000000230 .L0 
     /tmp/ccBU7z6H.s:329    .text:0000000000000230 .L0 
     /tmp/ccBU7z6H.s:331    .text:0000000000000234 .L0 
     /tmp/ccBU7z6H.s:333    .text:0000000000000238 .L0 
     /tmp/ccBU7z6H.s:335    .text:0000000000000240 .L0 
     /tmp/ccBU7z6H.s:346    .text:0000000000000240 _ZN6BufferD2Ev
     /tmp/ccBU7z6H.s:349    .text:0000000000000240 .L0 
     /tmp/ccBU7z6H.s:3343   .data.rel.local.DW.ref.__gxx_personality_v0:0000000000000000 DW.ref.__gxx_personality_v0
     /tmp/ccBU7z6H.s:353    .text:0000000000000240 .L0 
     /tmp/ccBU7z6H.s:354    .text:0000000000000244 .L0 
     /tmp/ccBU7z6H.s:358    .text:0000000000000250 .L0 
     /tmp/ccBU7z6H.s:359    .text:0000000000000250 .L0 
     /tmp/ccBU7z6H.s:360    .text:0000000000000250 .L0 
     /tmp/ccBU7z6H.s:362    .text:0000000000000254 .L0 
     /tmp/ccBU7z6H.s:366    .text:0000000000000258 .L0 
     /tmp/ccBU7z6H.s:367    .text:0000000000000258 .L0 
     /tmp/ccBU7z6H.s:372    .text:0000000000000264 .L0 
     /tmp/ccBU7z6H.s:373    .text:0000000000000264 .L0 
     /tmp/ccBU7z6H.s:378    .text:0000000000000274 .L0 
     /tmp/ccBU7z6H.s:379    .text:0000000000000274 .L0 
     /tmp/ccBU7z6H.s:380    .text:0000000000000274 .L0 
     /tmp/ccBU7z6H.s:384    .text:0000000000000280 .L0 
     /tmp/ccBU7z6H.s:387    .text:0000000000000284 .L0 
     /tmp/ccBU7z6H.s:388    .text:0000000000000284 .L0 
     /tmp/ccBU7z6H.s:390    .text:0000000000000288 .L0 
     /tmp/ccBU7z6H.s:392    .text:000000000000028c .L0 
     /tmp/ccBU7z6H.s:396    .text:0000000000000294 .L0 
     /tmp/ccBU7z6H.s:397    .text:0000000000000294 .L0 
     /tmp/ccBU7z6H.s:401    .text:00000000000002a0 .L0 
     /tmp/ccBU7z6H.s:402    .text:00000000000002a0 .L0 
     /tmp/ccBU7z6H.s:404    .text:00000000000002a4 .L0 
     /tmp/ccBU7z6H.s:406    .text:00000000000002a8 .L0 
     /tmp/ccBU7z6H.s:408    .text:00000000000002ac .L0 
GAS LISTING /tmp/ccBU7z6H.s 			page 16


     /tmp/ccBU7z6H.s:410    .text:00000000000002b0 .L0 
     /tmp/ccBU7z6H.s:413    .text:00000000000002b4 .L0 
     /tmp/ccBU7z6H.s:416    .text:00000000000002b8 .L0 
     /tmp/ccBU7z6H.s:417    .text:00000000000002b8 .L0 
     /tmp/ccBU7z6H.s:421    .text:00000000000002c4 .L0 
     /tmp/ccBU7z6H.s:422    .text:00000000000002c4 .L0 
     /tmp/ccBU7z6H.s:426    .text:00000000000002d0 .L0 
     /tmp/ccBU7z6H.s:427    .text:00000000000002d0 .L0 
     /tmp/ccBU7z6H.s:431    .text:00000000000002dc .L0 
     /tmp/ccBU7z6H.s:432    .text:00000000000002dc .L0 
     /tmp/ccBU7z6H.s:436    .text:00000000000002e8 .L0 
     /tmp/ccBU7z6H.s:437    .text:00000000000002e8 .L0 
     /tmp/ccBU7z6H.s:441    .text:00000000000002f4 .L0 
     /tmp/ccBU7z6H.s:442    .text:00000000000002f4 .L0 
     /tmp/ccBU7z6H.s:446    .text:0000000000000300 .L0 
     /tmp/ccBU7z6H.s:447    .text:0000000000000300 .L0 
     /tmp/ccBU7z6H.s:452    .text:000000000000030c .L0 
     /tmp/ccBU7z6H.s:453    .text:0000000000000310 .L0 
     /tmp/ccBU7z6H.s:455    .text:0000000000000314 .L0 
     /tmp/ccBU7z6H.s:456    .text:0000000000000314 .L0 
     /tmp/ccBU7z6H.s:458    .text:0000000000000318 .L0 
     /tmp/ccBU7z6H.s:461    .text:000000000000031c .L0 
     /tmp/ccBU7z6H.s:463    .text:0000000000000320 .L0 
     /tmp/ccBU7z6H.s:346    .text:0000000000000240 _ZN6BufferD1Ev
     /tmp/ccBU7z6H.s:481    .bss:0000000000000000 _ZN6Buffer4peraE
     /tmp/ccBU7z6H.s:492    .text:0000000000000320 .L0 
     /tmp/ccBU7z6H.s:340    .rodata.str1.8:0000000000000000 .LC0
     /tmp/ccBU7z6H.s:373    .text:0000000000000264 .L0 
     /tmp/ccBU7z6H.s:325    .text:0000000000000230 .L8
     /tmp/ccBU7z6H.s:295    .text:00000000000001fc .L9
     /tmp/ccBU7z6H.s:414    .text:00000000000002b8 .L12
     /tmp/ccBU7z6H.s:376    .text:0000000000000274 .L13
     /tmp/ccBU7z6H.s:1938   .debug_abbrev:0000000000000000 .Ldebug_abbrev0
     /tmp/ccBU7z6H.s:3275   .debug_str:0000000000000739 .LASF142
     /tmp/ccBU7z6H.s:3293   .debug_str:000000000000087e .LASF143
     /tmp/ccBU7z6H.s:3117   .debug_str:00000000000002fa .LASF144
     /tmp/ccBU7z6H.s:5      .text:0000000000000000 .Ltext0
     /tmp/ccBU7z6H.s:484    .text:0000000000000320 .Letext0
     /tmp/ccBU7z6H.s:3023   .debug_line:0000000000000000 .Ldebug_line0
     /tmp/ccBU7z6H.s:3141   .debug_str:00000000000003c7 .LASF0
     /tmp/ccBU7z6H.s:3155   .debug_str:0000000000000444 .LASF1
     /tmp/ccBU7z6H.s:3221   .debug_str:0000000000000601 .LASF2
     /tmp/ccBU7z6H.s:3229   .debug_str:000000000000063b .LASF4
     /tmp/ccBU7z6H.s:3145   .debug_str:00000000000003ec .LASF3
     /tmp/ccBU7z6H.s:3041   .debug_str:0000000000000096 .LASF5
     /tmp/ccBU7z6H.s:3203   .debug_str:000000000000057c .LASF6
     /tmp/ccBU7z6H.s:3199   .debug_str:0000000000000559 .LASF7
     /tmp/ccBU7z6H.s:3151   .debug_str:0000000000000428 .LASF8
     /tmp/ccBU7z6H.s:3119   .debug_str:0000000000000313 .LASF9
     /tmp/ccBU7z6H.s:3125   .debug_str:000000000000033d .LASF10
     /tmp/ccBU7z6H.s:3065   .debug_str:0000000000000138 .LASF11
     /tmp/ccBU7z6H.s:3109   .debug_str:00000000000002d3 .LASF12
     /tmp/ccBU7z6H.s:3077   .debug_str:00000000000001b2 .LASF13
     /tmp/ccBU7z6H.s:3063   .debug_str:0000000000000128 .LASF14
     /tmp/ccBU7z6H.s:3255   .debug_str:00000000000006ce .LASF15
     /tmp/ccBU7z6H.s:3101   .debug_str:0000000000000271 .LASF16
     /tmp/ccBU7z6H.s:3247   .debug_str:0000000000000693 .LASF17
GAS LISTING /tmp/ccBU7z6H.s 			page 17


     /tmp/ccBU7z6H.s:3305   .debug_str:00000000000008ce .LASF35
     /tmp/ccBU7z6H.s:3297   .debug_str:0000000000000895 .LASF145
     /tmp/ccBU7z6H.s:3251   .debug_str:00000000000006bc .LASF18
     /tmp/ccBU7z6H.s:3187   .debug_str:0000000000000520 .LASF19
     /tmp/ccBU7z6H.s:3181   .debug_str:00000000000004f9 .LASF20
     /tmp/ccBU7z6H.s:3249   .debug_str:00000000000006a9 .LASF22
     /tmp/ccBU7z6H.s:3107   .debug_str:00000000000002bc .LASF27
     /tmp/ccBU7z6H.s:3225   .debug_str:000000000000061c .LASF146
     /tmp/ccBU7z6H.s:3217   .debug_str:00000000000005da .LASF147
     /tmp/ccBU7z6H.s:3153   .debug_str:000000000000043b .LASF21
     /tmp/ccBU7z6H.s:3055   .debug_str:00000000000000e7 .LASF23
     /tmp/ccBU7z6H.s:3167   .debug_str:000000000000049e .LASF24
     /tmp/ccBU7z6H.s:3103   .debug_str:0000000000000287 .LASF25
     /tmp/ccBU7z6H.s:3197   .debug_str:000000000000054d .LASF26
     /tmp/ccBU7z6H.s:3307   .debug_str:00000000000008d8 .LASF28
     /tmp/ccBU7z6H.s:3333   .debug_str:00000000000009ab .LASF29
     /tmp/ccBU7z6H.s:3323   .debug_str:0000000000000944 .LASF30
     /tmp/ccBU7z6H.s:3239   .debug_str:0000000000000670 .LASF31
     /tmp/ccBU7z6H.s:3149   .debug_str:000000000000040b .LASF32
     /tmp/ccBU7z6H.s:3211   .debug_str:00000000000005be .LASF33
     /tmp/ccBU7z6H.s:3033   .debug_str:000000000000003e .LASF34
     /tmp/ccBU7z6H.s:3265   .debug_str:000000000000070e .LASF148
     /tmp/ccBU7z6H.s:3191   .debug_str:000000000000052d .LASF36
     /tmp/ccBU7z6H.s:3029   .debug_str:0000000000000029 .LASF37
     /tmp/ccBU7z6H.s:3243   .debug_str:0000000000000684 .LASF38
     /tmp/ccBU7z6H.s:3285   .debug_str:0000000000000847 .LASF39
     /tmp/ccBU7z6H.s:3245   .debug_str:000000000000068a .LASF40
     /tmp/ccBU7z6H.s:3189   .debug_str:0000000000000525 .LASF41
     /tmp/ccBU7z6H.s:3281   .debug_str:000000000000081c .LASF42
     /tmp/ccBU7z6H.s:3147   .debug_str:00000000000003fe .LASF43
     /tmp/ccBU7z6H.s:3159   .debug_str:0000000000000461 .LASF44
     /tmp/ccBU7z6H.s:3083   .debug_str:00000000000001ff .LASF149
     /tmp/ccBU7z6H.s:3035   .debug_str:0000000000000058 .LASF150
     /tmp/ccBU7z6H.s:3207   .debug_str:000000000000059f .LASF151
     /tmp/ccBU7z6H.s:3329   .debug_str:000000000000098e .LASF45
     /tmp/ccBU7z6H.s:3121   .debug_str:0000000000000323 .LASF46
     /tmp/ccBU7z6H.s:3171   .debug_str:00000000000004b3 .LASF47
     /tmp/ccBU7z6H.s:3115   .debug_str:00000000000002ee .LASF48
     /tmp/ccBU7z6H.s:3031   .debug_str:000000000000002e .LASF49
     /tmp/ccBU7z6H.s:3169   .debug_str:00000000000004a6 .LASF51
     /tmp/ccBU7z6H.s:3325   .debug_str:000000000000095f .LASF50
     /tmp/ccBU7z6H.s:3223   .debug_str:000000000000060f .LASF52
     /tmp/ccBU7z6H.s:3253   .debug_str:00000000000006c1 .LASF53
     /tmp/ccBU7z6H.s:3283   .debug_str:0000000000000826 .LASF54
     /tmp/ccBU7z6H.s:3267   .debug_str:0000000000000716 .LASF55
     /tmp/ccBU7z6H.s:3185   .debug_str:0000000000000509 .LASF56
     /tmp/ccBU7z6H.s:3049   .debug_str:00000000000000c2 .LASF57
     /tmp/ccBU7z6H.s:3289   .debug_str:000000000000085e .LASF58
     /tmp/ccBU7z6H.s:3313   .debug_str:0000000000000914 .LASF59
     /tmp/ccBU7z6H.s:3059   .debug_str:000000000000010a .LASF60
     /tmp/ccBU7z6H.s:3269   .debug_str:0000000000000721 .LASF61
     /tmp/ccBU7z6H.s:3071   .debug_str:0000000000000175 .LASF62
     /tmp/ccBU7z6H.s:3163   .debug_str:0000000000000478 .LASF63
     /tmp/ccBU7z6H.s:3299   .debug_str:000000000000089a .LASF64
     /tmp/ccBU7z6H.s:3235   .debug_str:0000000000000658 .LASF77
     /tmp/ccBU7z6H.s:3201   .debug_str:000000000000056c .LASF65
     /tmp/ccBU7z6H.s:3137   .debug_str:00000000000003a3 .LASF66
GAS LISTING /tmp/ccBU7z6H.s 			page 18


     /tmp/ccBU7z6H.s:3331   .debug_str:000000000000099b .LASF67
     /tmp/ccBU7z6H.s:3327   .debug_str:0000000000000972 .LASF68
     /tmp/ccBU7z6H.s:3097   .debug_str:0000000000000259 .LASF69
     /tmp/ccBU7z6H.s:3303   .debug_str:00000000000008bb .LASF70
     /tmp/ccBU7z6H.s:3183   .debug_str:00000000000004fe .LASF71
     /tmp/ccBU7z6H.s:3089   .debug_str:000000000000022b .LASF72
     /tmp/ccBU7z6H.s:3091   .debug_str:0000000000000242 .LASF73
     /tmp/ccBU7z6H.s:3067   .debug_str:0000000000000147 .LASF75
     /tmp/ccBU7z6H.s:3053   .debug_str:00000000000000d9 .LASF74
     /tmp/ccBU7z6H.s:3165   .debug_str:0000000000000485 .LASF76
     /tmp/ccBU7z6H.s:3273   .debug_str:0000000000000731 .LASF78
     /tmp/ccBU7z6H.s:3057   .debug_str:0000000000000104 .LASF79
     /tmp/ccBU7z6H.s:3277   .debug_str:00000000000007fd .LASF80
     /tmp/ccBU7z6H.s:3231   .debug_str:0000000000000642 .LASF81
     /tmp/ccBU7z6H.s:3037   .debug_str:0000000000000080 .LASF82
     /tmp/ccBU7z6H.s:3213   .debug_str:00000000000005c7 .LASF83
     /tmp/ccBU7z6H.s:3051   .debug_str:00000000000000ce .LASF84
     /tmp/ccBU7z6H.s:3135   .debug_str:000000000000039d .LASF85
     /tmp/ccBU7z6H.s:3309   .debug_str:00000000000008f6 .LASF86
     /tmp/ccBU7z6H.s:3085   .debug_str:000000000000020d .LASF87
     /tmp/ccBU7z6H.s:3075   .debug_str:000000000000019e .LASF88
     /tmp/ccBU7z6H.s:3025   .debug_str:0000000000000000 .LASF89
     /tmp/ccBU7z6H.s:3227   .debug_str:0000000000000626 .LASF90
     /tmp/ccBU7z6H.s:3027   .debug_str:0000000000000015 .LASF91
     /tmp/ccBU7z6H.s:3219   .debug_str:00000000000005f1 .LASF92
     /tmp/ccBU7z6H.s:3081   .debug_str:00000000000001dc .LASF93
     /tmp/ccBU7z6H.s:3061   .debug_str:000000000000011f .LASF94
     /tmp/ccBU7z6H.s:3127   .debug_str:000000000000034b .LASF95
     /tmp/ccBU7z6H.s:3093   .debug_str:000000000000024b .LASF96
     /tmp/ccBU7z6H.s:3311   .debug_str:00000000000008fd .LASF97
     /tmp/ccBU7z6H.s:3259   .debug_str:00000000000006e3 .LASF98
     /tmp/ccBU7z6H.s:3105   .debug_str:00000000000002a3 .LASF99
     /tmp/ccBU7z6H.s:3043   .debug_str:000000000000009d .LASF100
     /tmp/ccBU7z6H.s:3143   .debug_str:00000000000003d4 .LASF101
     /tmp/ccBU7z6H.s:3195   .debug_str:0000000000000543 .LASF102
     /tmp/ccBU7z6H.s:3205   .debug_str:0000000000000583 .LASF103
     /tmp/ccBU7z6H.s:3263   .debug_str:0000000000000706 .LASF104
     /tmp/ccBU7z6H.s:3045   .debug_str:00000000000000a3 .LASF105
     /tmp/ccBU7z6H.s:3095   .debug_str:0000000000000250 .LASF106
     /tmp/ccBU7z6H.s:3129   .debug_str:0000000000000367 .LASF107
     /tmp/ccBU7z6H.s:3317   .debug_str:000000000000092d .LASF108
     /tmp/ccBU7z6H.s:3237   .debug_str:0000000000000669 .LASF109
     /tmp/ccBU7z6H.s:3111   .debug_str:00000000000002e2 .LASF110
     /tmp/ccBU7z6H.s:3287   .debug_str:000000000000084f .LASF111
     /tmp/ccBU7z6H.s:3175   .debug_str:00000000000004c8 .LASF112
     /tmp/ccBU7z6H.s:3157   .debug_str:0000000000000457 .LASF113
     /tmp/ccBU7z6H.s:3087   .debug_str:0000000000000221 .LASF114
     /tmp/ccBU7z6H.s:3047   .debug_str:00000000000000bd .LASF115
     /tmp/ccBU7z6H.s:3315   .debug_str:000000000000091e .LASF116
     /tmp/ccBU7z6H.s:3301   .debug_str:00000000000008b3 .LASF117
     /tmp/ccBU7z6H.s:3133   .debug_str:000000000000038e .LASF118
     /tmp/ccBU7z6H.s:3193   .debug_str:0000000000000532 .LASF152
     /tmp/ccBU7z6H.s:3233   .debug_str:0000000000000647 .LASF153
     /tmp/ccBU7z6H.s:3295   .debug_str:000000000000088e .LASF119
     /tmp/ccBU7z6H.s:3335   .debug_str:00000000000009b5 .LASF120
     /tmp/ccBU7z6H.s:3271   .debug_str:000000000000072c .LASF121
     /tmp/ccBU7z6H.s:3161   .debug_str:0000000000000467 .LASF154
GAS LISTING /tmp/ccBU7z6H.s 			page 19


     /tmp/ccBU7z6H.s:255    .text:00000000000001b8 .LFB72
     /tmp/ccBU7z6H.s:336    .text:0000000000000240 .LFE72
     /tmp/ccBU7z6H.s:3113   .debug_str:00000000000002e9 .LASF122
     /tmp/ccBU7z6H.s:2862   .debug_loc:0000000000000000 .LLST6
     /tmp/ccBU7z6H.s:2884   .debug_loc:000000000000005f .LLST7
     /tmp/ccBU7z6H.s:278    .text:00000000000001e0 .LVL26
     /tmp/ccBU7z6H.s:283    .text:00000000000001ec .LVL27
     /tmp/ccBU7z6H.s:300    .text:0000000000000208 .LVL29
     /tmp/ccBU7z6H.s:305    .text:0000000000000214 .LVL30
     /tmp/ccBU7z6H.s:173    .text:000000000000012c .LFB71
     /tmp/ccBU7z6H.s:249    .text:00000000000001b8 .LFE71
     /tmp/ccBU7z6H.s:2891   .debug_loc:0000000000000082 .LLST4
     /tmp/ccBU7z6H.s:2909   .debug_loc:00000000000000ce .LLST5
     /tmp/ccBU7z6H.s:195    .text:0000000000000154 .LVL17
     /tmp/ccBU7z6H.s:200    .text:0000000000000160 .LVL18
     /tmp/ccBU7z6H.s:225    .text:0000000000000190 .LVL20
     /tmp/ccBU7z6H.s:230    .text:000000000000019c .LVL21
     /tmp/ccBU7z6H.s:93     .text:000000000000009c .LFB70
     /tmp/ccBU7z6H.s:167    .text:000000000000012c .LFE70
     /tmp/ccBU7z6H.s:2920   .debug_loc:0000000000000104 .LLST2
     /tmp/ccBU7z6H.s:2938   .debug_loc:0000000000000150 .LLST3
     /tmp/ccBU7z6H.s:116    .text:00000000000000c8 .LVL10
     /tmp/ccBU7z6H.s:121    .text:00000000000000d4 .LVL11
     /tmp/ccBU7z6H.s:146    .text:0000000000000108 .LVL12
     /tmp/ccBU7z6H.s:151    .text:0000000000000114 .LVL13
     /tmp/ccBU7z6H.s:3039   .debug_str:000000000000008c .LASF123
     /tmp/ccBU7z6H.s:3099   .debug_str:0000000000000262 .LASF124
     /tmp/ccBU7z6H.s:347    .text:0000000000000240 .LFB68
     /tmp/ccBU7z6H.s:464    .text:0000000000000320 .LFE68
     /tmp/ccBU7z6H.s:2952   .debug_loc:0000000000000189 .LLST8
     /tmp/ccBU7z6H.s:399    .text:00000000000002a0 .LVL40
     /tmp/ccBU7z6H.s:385    .text:0000000000000284 .LBB4
     /tmp/ccBU7z6H.s:411    .text:00000000000002b4 .LBE4
     /tmp/ccBU7z6H.s:2970   .debug_loc:00000000000001d5 .LLST9
     /tmp/ccBU7z6H.s:370    .text:0000000000000264 .LVL36
     /tmp/ccBU7z6H.s:375    .text:0000000000000274 .LVL37
     /tmp/ccBU7z6H.s:382    .text:0000000000000280 .LVL38
     /tmp/ccBU7z6H.s:419    .text:00000000000002c4 .LVL41
     /tmp/ccBU7z6H.s:424    .text:00000000000002d0 .LVL42
     /tmp/ccBU7z6H.s:429    .text:00000000000002dc .LVL43
     /tmp/ccBU7z6H.s:434    .text:00000000000002e8 .LVL44
     /tmp/ccBU7z6H.s:439    .text:00000000000002f4 .LVL45
     /tmp/ccBU7z6H.s:444    .text:0000000000000300 .LVL46
     /tmp/ccBU7z6H.s:449    .text:000000000000030c .LVL47
     /tmp/ccBU7z6H.s:3319   .debug_str:0000000000000933 .LASF155
     /tmp/ccBU7z6H.s:3279   .debug_str:000000000000080d .LASF125
     /tmp/ccBU7z6H.s:10     .text:0000000000000000 .LFB65
     /tmp/ccBU7z6H.s:85     .text:000000000000009c .LFE65
     /tmp/ccBU7z6H.s:2978   .debug_loc:00000000000001f9 .LLST0
     /tmp/ccBU7z6H.s:2996   .debug_loc:0000000000000245 .LLST1
     /tmp/ccBU7z6H.s:42     .text:0000000000000040 .LVL2
     /tmp/ccBU7z6H.s:50     .text:0000000000000054 .LVL3
     /tmp/ccBU7z6H.s:56     .text:0000000000000064 .LVL4
     /tmp/ccBU7z6H.s:62     .text:0000000000000074 .LVL5
     /tmp/ccBU7z6H.s:68     .text:0000000000000084 .LVL6
     /tmp/ccBU7z6H.s:3179   .debug_str:00000000000004e0 .LASF126
     /tmp/ccBU7z6H.s:3241   .debug_str:000000000000067b .LASF128
GAS LISTING /tmp/ccBU7z6H.s 			page 20


     /tmp/ccBU7z6H.s:3261   .debug_str:00000000000006ea .LASF127
     /tmp/ccBU7z6H.s:3131   .debug_str:0000000000000383 .LASF129
     /tmp/ccBU7z6H.s:3257   .debug_str:00000000000006da .LASF130
     /tmp/ccBU7z6H.s:3173   .debug_str:00000000000004c3 .LASF131
     /tmp/ccBU7z6H.s:3073   .debug_str:000000000000018b .LASF132
     /tmp/ccBU7z6H.s:3321   .debug_str:0000000000000938 .LASF133
     /tmp/ccBU7z6H.s:3215   .debug_str:00000000000005cc .LASF134
     /tmp/ccBU7z6H.s:3139   .debug_str:00000000000003be .LASF135
     /tmp/ccBU7z6H.s:3079   .debug_str:00000000000001c2 .LASF136
     /tmp/ccBU7z6H.s:3209   .debug_str:00000000000005b4 .LASF137
     /tmp/ccBU7z6H.s:3123   .debug_str:000000000000032f .LASF138
     /tmp/ccBU7z6H.s:3177   .debug_str:00000000000004d6 .LASF139
     /tmp/ccBU7z6H.s:3069   .debug_str:000000000000015a .LASF140
     /tmp/ccBU7z6H.s:3291   .debug_str:0000000000000875 .LASF141
     /tmp/ccBU7z6H.s:258    .text:00000000000001b8 .LVL24
     /tmp/ccBU7z6H.s:276    .text:00000000000001d8 .LVL25
     /tmp/ccBU7z6H.s:317    .text:0000000000000224 .LVL31
     /tmp/ccBU7z6H.s:324    .text:0000000000000230 .LVL33
     /tmp/ccBU7z6H.s:294    .text:00000000000001fc .LVL28
     /tmp/ccBU7z6H.s:320    .text:0000000000000228 .LVL32
     /tmp/ccBU7z6H.s:176    .text:000000000000012c .LVL15
     /tmp/ccBU7z6H.s:193    .text:000000000000014c .LVL16
     /tmp/ccBU7z6H.s:241    .text:00000000000001ac .LVL22
     /tmp/ccBU7z6H.s:211    .text:0000000000000174 .LVL19
     /tmp/ccBU7z6H.s:244    .text:00000000000001b0 .LVL23
     /tmp/ccBU7z6H.s:96     .text:000000000000009c .LVL8
     /tmp/ccBU7z6H.s:114    .text:00000000000000c0 .LVL9
     /tmp/ccBU7z6H.s:160    .text:0000000000000120 .LVL14
     /tmp/ccBU7z6H.s:352    .text:0000000000000240 .LVL34
     /tmp/ccBU7z6H.s:368    .text:000000000000025c .LVL35
     /tmp/ccBU7z6H.s:459    .text:0000000000000318 .LVL48
     /tmp/ccBU7z6H.s:394    .text:0000000000000294 .LVL39
     /tmp/ccBU7z6H.s:14     .text:0000000000000000 .LVL0
     /tmp/ccBU7z6H.s:33     .text:0000000000000028 .LVL1
     /tmp/ccBU7z6H.s:78     .text:0000000000000090 .LVL7
     /tmp/ccBU7z6H.s:493    .debug_info:0000000000000000 .Ldebug_info0
     /tmp/ccBU7z6H.s:467    .gcc_except_table:0000000000000000 .LLSDA68

UNDEFINED SYMBOLS
_Z9mem_allocm
_Z8sem_openPP10_Semaphorej
_Z8sem_waitP10_Semaphore
_Z10sem_signalP10_Semaphore
_ZN10_Semaphore4waitEv
_ZN10_Semaphore6signalEv
_Z4putcc
_Z11printStringPKc
_Z8mem_freePv
_Z9sem_closeP10_Semaphore
__gxx_personality_v0
