GAS LISTING /tmp/cc9Vwif8.s 			page 1


   1              		.file	"ConsumerProducer_C_API_test.cpp"
   2              		.option pic
   3              		.option norelax
   4              		.text
   5              	.Ltext0:
   6              		.section	.rodata.str1.8,"aMS",@progbits,1
   7              		.align	3
   8              	.LC0:
   9 0000 70726F64 		.string	"producerKeyboard: "
   9      75636572 
   9      4B657962 
   9      6F617264 
   9      3A2000
  10 0013 00000000 		.align	3
  10      00
  11              	.LC1:
  12 0018 0A00     		.string	"\n"
  13              		.text
  14              		.align	2
  16              	_ZL16producerKeyboardPv:
  17              	.LFB63:
  18              		.file 1 "test/ConsumerProducer_C_API_test.cpp"
   1:test/ConsumerProducer_C_API_test.cpp **** 
   2:test/ConsumerProducer_C_API_test.cpp **** #include "../h/syscall_c.hpp"
   3:test/ConsumerProducer_C_API_test.cpp **** 
   4:test/ConsumerProducer_C_API_test.cpp **** #include "buffer.hpp"
   5:test/ConsumerProducer_C_API_test.cpp **** 
   6:test/ConsumerProducer_C_API_test.cpp **** static sem_t waitForAll;
   7:test/ConsumerProducer_C_API_test.cpp **** 
   8:test/ConsumerProducer_C_API_test.cpp **** struct thread_data {
   9:test/ConsumerProducer_C_API_test.cpp ****     int id;
  10:test/ConsumerProducer_C_API_test.cpp ****     Buffer *buffer;
  11:test/ConsumerProducer_C_API_test.cpp ****     sem_t wait;
  12:test/ConsumerProducer_C_API_test.cpp **** };
  13:test/ConsumerProducer_C_API_test.cpp **** 
  14:test/ConsumerProducer_C_API_test.cpp **** static volatile int threadEnd = 0;
  15:test/ConsumerProducer_C_API_test.cpp **** 
  16:test/ConsumerProducer_C_API_test.cpp **** static void producerKeyboard(void *arg) {
  19              		.loc 1 16 41
  20              		.cfi_startproc
  21              	.LVL0:
  22 0000 130101FE 		addi	sp,sp,-32
  23              		.cfi_def_cfa_offset 32
  24 0004 233C1100 		sd	ra,24(sp)
  25 0008 23388100 		sd	s0,16(sp)
  26 000c 23349100 		sd	s1,8(sp)
  27 0010 23302101 		sd	s2,0(sp)
  28              		.cfi_offset 1, -8
  29              		.cfi_offset 8, -16
  30              		.cfi_offset 9, -24
  31              		.cfi_offset 18, -32
  32 0014 13040102 		addi	s0,sp,32
  33              		.cfi_def_cfa 8, 0
  34 0018 93040500 		mv	s1,a0
  17:test/ConsumerProducer_C_API_test.cpp ****     struct thread_data *data = (struct thread_data *) arg;
  35              		.loc 1 17 5
  36              	.LVL1:
GAS LISTING /tmp/cc9Vwif8.s 			page 2


  18:test/ConsumerProducer_C_API_test.cpp **** 
  19:test/ConsumerProducer_C_API_test.cpp ****     printString("producerKeyboard: ");
  37              		.loc 1 19 5
  38              		.loc 1 19 16 is_stmt 0
  39 001c 17050000 		lla	a0,.LC0
  39      13050500 
  40              	.LVL2:
  41 0024 97000000 		call	_Z11printStringPKc@plt
  41      E7800000 
  42              	.LVL3:
  20:test/ConsumerProducer_C_API_test.cpp ****     print_char_pointer_value((char*)TCB::running);
  43              		.loc 1 20 5 is_stmt 1
  44              		.loc 1 20 29 is_stmt 0
  45 002c 97070000 		la	a5,_ZN3TCB7runningE
  45      83B70700 
  46 0034 03B50700 		ld	a0,0(a5)
  47 0038 97000000 		call	_Z24print_char_pointer_valuePKc@plt
  47      E7800000 
  48              	.LVL4:
  21:test/ConsumerProducer_C_API_test.cpp ****     printString("\n");
  49              		.loc 1 21 5 is_stmt 1
  50              		.loc 1 21 16 is_stmt 0
  51 0040 17050000 		lla	a0,.LC1
  51      13050500 
  52 0048 97000000 		call	_Z11printStringPKc@plt
  52      E7800000 
  53              	.LVL5:
  22:test/ConsumerProducer_C_API_test.cpp **** 
  23:test/ConsumerProducer_C_API_test.cpp ****     int key;
  54              		.loc 1 23 5 is_stmt 1
  24:test/ConsumerProducer_C_API_test.cpp ****     int i = 0;
  55              		.loc 1 24 5
  56              		.loc 1 24 9 is_stmt 0
  57 0050 13090000 		li	s2,0
  58 0054 6F00C000 		j	.L2
  59              	.LVL6:
  60              	.L6:
  25:test/ConsumerProducer_C_API_test.cpp ****     while ((key = getc()) != 0x1b) {
  26:test/ConsumerProducer_C_API_test.cpp ****         data->buffer->put(key);
  27:test/ConsumerProducer_C_API_test.cpp ****         i++;
  28:test/ConsumerProducer_C_API_test.cpp **** 
  29:test/ConsumerProducer_C_API_test.cpp ****         if (i % (10 * data->id) == 0) {
  30:test/ConsumerProducer_C_API_test.cpp ****             thread_dispatch();
  61              		.loc 1 30 13 is_stmt 1
  62              		.loc 1 30 28 is_stmt 0
  63 0058 97000000 		call	_Z15thread_dispatchv@plt
  63      E7800000 
  64              	.LVL7:
  65              	.L2:
  25:test/ConsumerProducer_C_API_test.cpp ****     while ((key = getc()) != 0x1b) {
  66              		.loc 1 25 5 is_stmt 1
  25:test/ConsumerProducer_C_API_test.cpp ****     while ((key = getc()) != 0x1b) {
  67              		.loc 1 25 27
  25:test/ConsumerProducer_C_API_test.cpp ****     while ((key = getc()) != 0x1b) {
  68              		.loc 1 25 23 is_stmt 0
  69 0060 97000000 		call	_Z4getcv@plt
  69      E7800000 
GAS LISTING /tmp/cc9Vwif8.s 			page 3


  70              	.LVL8:
  25:test/ConsumerProducer_C_API_test.cpp ****     while ((key = getc()) != 0x1b) {
  71              		.loc 1 25 17
  72 0068 9B050500 		sext.w	a1,a0
  73              	.LVL9:
  25:test/ConsumerProducer_C_API_test.cpp ****     while ((key = getc()) != 0x1b) {
  74              		.loc 1 25 27
  75 006c 9307B001 		li	a5,27
  76 0070 638AF502 		beq	a1,a5,.L3
  26:test/ConsumerProducer_C_API_test.cpp ****         i++;
  77              		.loc 1 26 9 is_stmt 1
  26:test/ConsumerProducer_C_API_test.cpp ****         i++;
  78              		.loc 1 26 26 is_stmt 0
  79 0074 03B58400 		ld	a0,8(s1)
  80 0078 97000000 		call	_ZN6Buffer3putEi@plt
  80      E7800000 
  81              	.LVL10:
  27:test/ConsumerProducer_C_API_test.cpp **** 
  82              		.loc 1 27 9 is_stmt 1
  27:test/ConsumerProducer_C_API_test.cpp **** 
  83              		.loc 1 27 10 is_stmt 0
  84 0080 1B071900 		addiw	a4,s2,1
  85 0084 1B090700 		sext.w	s2,a4
  86              	.LVL11:
  29:test/ConsumerProducer_C_API_test.cpp ****             thread_dispatch();
  87              		.loc 1 29 9 is_stmt 1
  29:test/ConsumerProducer_C_API_test.cpp ****             thread_dispatch();
  88              		.loc 1 29 29 is_stmt 0
  89 0088 83A60400 		lw	a3,0(s1)
  29:test/ConsumerProducer_C_API_test.cpp ****             thread_dispatch();
  90              		.loc 1 29 21
  91 008c 9B972600 		slliw	a5,a3,2
  92 0090 BB87D700 		addw	a5,a5,a3
  93 0094 9B971700 		slliw	a5,a5,1
  29:test/ConsumerProducer_C_API_test.cpp ****             thread_dispatch();
  94              		.loc 1 29 15
  95 0098 BB67F702 		remw	a5,a4,a5
  29:test/ConsumerProducer_C_API_test.cpp ****             thread_dispatch();
  96              		.loc 1 29 9
  97 009c E39207FC 		bnez	a5,.L2
  98 00a0 6FF09FFB 		j	.L6
  99              	.LVL12:
 100              	.L3:
  31:test/ConsumerProducer_C_API_test.cpp ****         }
  32:test/ConsumerProducer_C_API_test.cpp ****     }
  33:test/ConsumerProducer_C_API_test.cpp **** 
  34:test/ConsumerProducer_C_API_test.cpp ****     threadEnd = 1;
 101              		.loc 1 34 5 is_stmt 1
 102              		.loc 1 34 15 is_stmt 0
 103 00a4 93071000 		li	a5,1
 104 00a8 17070000 		sw	a5,.LANCHOR0,a4
 104      2320F700 
  35:test/ConsumerProducer_C_API_test.cpp ****     data->buffer->put('!');
 105              		.loc 1 35 5 is_stmt 1
 106              		.loc 1 35 22 is_stmt 0
 107 00b0 93051002 		li	a1,33
 108              	.LVL13:
GAS LISTING /tmp/cc9Vwif8.s 			page 4


 109 00b4 03B58400 		ld	a0,8(s1)
 110              	.LVL14:
 111 00b8 97000000 		call	_ZN6Buffer3putEi@plt
 111      E7800000 
 112              	.LVL15:
  36:test/ConsumerProducer_C_API_test.cpp **** 
  37:test/ConsumerProducer_C_API_test.cpp ****     sem_signal(data->wait);
 113              		.loc 1 37 5 is_stmt 1
 114              		.loc 1 37 15 is_stmt 0
 115 00c0 03B50401 		ld	a0,16(s1)
 116 00c4 97000000 		call	_Z10sem_signalP10_Semaphore@plt
 116      E7800000 
 117              	.LVL16:
  38:test/ConsumerProducer_C_API_test.cpp **** }
 118              		.loc 1 38 1
 119 00cc 83308101 		ld	ra,24(sp)
 120              		.cfi_restore 1
 121 00d0 03340101 		ld	s0,16(sp)
 122              		.cfi_restore 8
 123              		.cfi_def_cfa 2, 32
 124 00d4 83348100 		ld	s1,8(sp)
 125              		.cfi_restore 9
 126              	.LVL17:
 127 00d8 03390100 		ld	s2,0(sp)
 128              		.cfi_restore 18
 129              	.LVL18:
 130 00dc 13010102 		addi	sp,sp,32
 131              		.cfi_def_cfa_offset 0
 132 00e0 67800000 		jr	ra
 133              		.cfi_endproc
 134              	.LFE63:
 136              		.section	.rodata.str1.8
 137 001a 00000000 		.align	3
 137      0000
 138              	.LC2:
 139 0020 50726F64 		.string	"Producer: "
 139      75636572 
 139      3A2000
 140              		.text
 141              		.align	2
 143              	_ZL8producerPv:
 144              	.LFB64:
  39:test/ConsumerProducer_C_API_test.cpp **** 
  40:test/ConsumerProducer_C_API_test.cpp **** static void producer(void *arg) {
 145              		.loc 1 40 33 is_stmt 1
 146              		.cfi_startproc
 147              	.LVL19:
 148 00e4 130101FE 		addi	sp,sp,-32
 149              		.cfi_def_cfa_offset 32
 150 00e8 233C1100 		sd	ra,24(sp)
 151 00ec 23388100 		sd	s0,16(sp)
 152 00f0 23349100 		sd	s1,8(sp)
 153 00f4 23302101 		sd	s2,0(sp)
 154              		.cfi_offset 1, -8
 155              		.cfi_offset 8, -16
 156              		.cfi_offset 9, -24
 157              		.cfi_offset 18, -32
GAS LISTING /tmp/cc9Vwif8.s 			page 5


 158 00f8 13040102 		addi	s0,sp,32
 159              		.cfi_def_cfa 8, 0
 160 00fc 93040500 		mv	s1,a0
  41:test/ConsumerProducer_C_API_test.cpp ****     struct thread_data *data = (struct thread_data *) arg;
 161              		.loc 1 41 5
 162              	.LVL20:
  42:test/ConsumerProducer_C_API_test.cpp **** 
  43:test/ConsumerProducer_C_API_test.cpp ****     printString("Producer: ");
 163              		.loc 1 43 5
 164              		.loc 1 43 16 is_stmt 0
 165 0100 17050000 		lla	a0,.LC2
 165      13050500 
 166              	.LVL21:
 167 0108 97000000 		call	_Z11printStringPKc@plt
 167      E7800000 
 168              	.LVL22:
  44:test/ConsumerProducer_C_API_test.cpp ****     print_char_pointer_value((char*)TCB::running);
 169              		.loc 1 44 5 is_stmt 1
 170              		.loc 1 44 29 is_stmt 0
 171 0110 97070000 		la	a5,_ZN3TCB7runningE
 171      83B70700 
 172 0118 03B50700 		ld	a0,0(a5)
 173 011c 97000000 		call	_Z24print_char_pointer_valuePKc@plt
 173      E7800000 
 174              	.LVL23:
  45:test/ConsumerProducer_C_API_test.cpp ****     printString("\n");
 175              		.loc 1 45 5 is_stmt 1
 176              		.loc 1 45 16 is_stmt 0
 177 0124 17050000 		lla	a0,.LC1
 177      13050500 
 178 012c 97000000 		call	_Z11printStringPKc@plt
 178      E7800000 
 179              	.LVL24:
  46:test/ConsumerProducer_C_API_test.cpp **** 
  47:test/ConsumerProducer_C_API_test.cpp ****     int i = 0;
 180              		.loc 1 47 5 is_stmt 1
 181              		.loc 1 47 9 is_stmt 0
 182 0134 13090000 		li	s2,0
 183 0138 6F00C000 		j	.L8
 184              	.LVL25:
 185              	.L12:
  48:test/ConsumerProducer_C_API_test.cpp ****     while (!threadEnd) {
  49:test/ConsumerProducer_C_API_test.cpp ****         data->buffer->put(data->id + '0');
  50:test/ConsumerProducer_C_API_test.cpp ****         i++;
  51:test/ConsumerProducer_C_API_test.cpp **** 
  52:test/ConsumerProducer_C_API_test.cpp ****         if (i % (10 * data->id) == 0) {
  53:test/ConsumerProducer_C_API_test.cpp ****             thread_dispatch();
 186              		.loc 1 53 13 is_stmt 1
 187              		.loc 1 53 28 is_stmt 0
 188 013c 97000000 		call	_Z15thread_dispatchv@plt
 188      E7800000 
 189              	.LVL26:
 190              	.L8:
  48:test/ConsumerProducer_C_API_test.cpp ****     while (!threadEnd) {
 191              		.loc 1 48 5 is_stmt 1
  48:test/ConsumerProducer_C_API_test.cpp ****     while (!threadEnd) {
 192              		.loc 1 48 12
GAS LISTING /tmp/cc9Vwif8.s 			page 6


 193 0144 97070000 		lw	a5,.LANCHOR0
 193      83A70700 
 194 014c 639E0702 		bnez	a5,.L9
  49:test/ConsumerProducer_C_API_test.cpp ****         i++;
 195              		.loc 1 49 9
  49:test/ConsumerProducer_C_API_test.cpp ****         i++;
 196              		.loc 1 49 33 is_stmt 0
 197 0150 83A50400 		lw	a1,0(s1)
  49:test/ConsumerProducer_C_API_test.cpp ****         i++;
 198              		.loc 1 49 26
 199 0154 9B850503 		addiw	a1,a1,48
 200 0158 03B58400 		ld	a0,8(s1)
 201 015c 97000000 		call	_ZN6Buffer3putEi@plt
 201      E7800000 
 202              	.LVL27:
  50:test/ConsumerProducer_C_API_test.cpp **** 
 203              		.loc 1 50 9 is_stmt 1
  50:test/ConsumerProducer_C_API_test.cpp **** 
 204              		.loc 1 50 10 is_stmt 0
 205 0164 1B071900 		addiw	a4,s2,1
 206 0168 1B090700 		sext.w	s2,a4
 207              	.LVL28:
  52:test/ConsumerProducer_C_API_test.cpp ****             thread_dispatch();
 208              		.loc 1 52 9 is_stmt 1
  52:test/ConsumerProducer_C_API_test.cpp ****             thread_dispatch();
 209              		.loc 1 52 29 is_stmt 0
 210 016c 83A60400 		lw	a3,0(s1)
  52:test/ConsumerProducer_C_API_test.cpp ****             thread_dispatch();
 211              		.loc 1 52 21
 212 0170 9B972600 		slliw	a5,a3,2
 213 0174 BB87D700 		addw	a5,a5,a3
 214 0178 9B971700 		slliw	a5,a5,1
  52:test/ConsumerProducer_C_API_test.cpp ****             thread_dispatch();
 215              		.loc 1 52 15
 216 017c BB67F702 		remw	a5,a4,a5
  52:test/ConsumerProducer_C_API_test.cpp ****             thread_dispatch();
 217              		.loc 1 52 9
 218 0180 E39207FC 		bnez	a5,.L8
 219 0184 6FF09FFB 		j	.L12
 220              	.LVL29:
 221              	.L9:
  54:test/ConsumerProducer_C_API_test.cpp ****         }
  55:test/ConsumerProducer_C_API_test.cpp ****     }
  56:test/ConsumerProducer_C_API_test.cpp **** 
  57:test/ConsumerProducer_C_API_test.cpp ****     sem_signal(data->wait);
 222              		.loc 1 57 5 is_stmt 1
 223              		.loc 1 57 15 is_stmt 0
 224 0188 03B50401 		ld	a0,16(s1)
 225 018c 97000000 		call	_Z10sem_signalP10_Semaphore@plt
 225      E7800000 
 226              	.LVL30:
  58:test/ConsumerProducer_C_API_test.cpp **** }
 227              		.loc 1 58 1
 228 0194 83308101 		ld	ra,24(sp)
 229              		.cfi_restore 1
 230 0198 03340101 		ld	s0,16(sp)
 231              		.cfi_restore 8
GAS LISTING /tmp/cc9Vwif8.s 			page 7


 232              		.cfi_def_cfa 2, 32
 233 019c 83348100 		ld	s1,8(sp)
 234              		.cfi_restore 9
 235              	.LVL31:
 236 01a0 03390100 		ld	s2,0(sp)
 237              		.cfi_restore 18
 238              	.LVL32:
 239 01a4 13010102 		addi	sp,sp,32
 240              		.cfi_def_cfa_offset 0
 241 01a8 67800000 		jr	ra
 242              		.cfi_endproc
 243              	.LFE64:
 245              		.section	.rodata.str1.8
 246 002b 00000000 		.align	3
 246      00
 247              	.LC3:
 248 0030 436F6E73 		.string	"Consumer: "
 248      756D6572 
 248      3A2000
 249              		.text
 250              		.align	2
 252              	_ZL8consumerPv:
 253              	.LFB65:
  59:test/ConsumerProducer_C_API_test.cpp **** 
  60:test/ConsumerProducer_C_API_test.cpp **** static void consumer(void *arg) {
 254              		.loc 1 60 33 is_stmt 1
 255              		.cfi_startproc
 256              	.LVL33:
 257 01ac 130101FD 		addi	sp,sp,-48
 258              		.cfi_def_cfa_offset 48
 259 01b0 23341102 		sd	ra,40(sp)
 260 01b4 23308102 		sd	s0,32(sp)
 261 01b8 233C9100 		sd	s1,24(sp)
 262 01bc 23382101 		sd	s2,16(sp)
 263 01c0 23343101 		sd	s3,8(sp)
 264              		.cfi_offset 1, -8
 265              		.cfi_offset 8, -16
 266              		.cfi_offset 9, -24
 267              		.cfi_offset 18, -32
 268              		.cfi_offset 19, -40
 269 01c4 13040103 		addi	s0,sp,48
 270              		.cfi_def_cfa 8, 0
 271 01c8 13090500 		mv	s2,a0
  61:test/ConsumerProducer_C_API_test.cpp ****     struct thread_data *data = (struct thread_data *) arg;
 272              		.loc 1 61 5
 273              	.LVL34:
  62:test/ConsumerProducer_C_API_test.cpp **** 
  63:test/ConsumerProducer_C_API_test.cpp ****     printString("Consumer: ");
 274              		.loc 1 63 5
 275              		.loc 1 63 16 is_stmt 0
 276 01cc 17050000 		lla	a0,.LC3
 276      13050500 
 277              	.LVL35:
 278 01d4 97000000 		call	_Z11printStringPKc@plt
 278      E7800000 
 279              	.LVL36:
  64:test/ConsumerProducer_C_API_test.cpp ****     print_char_pointer_value((char*)TCB::running);
GAS LISTING /tmp/cc9Vwif8.s 			page 8


 280              		.loc 1 64 5 is_stmt 1
 281              		.loc 1 64 29 is_stmt 0
 282 01dc 97070000 		la	a5,_ZN3TCB7runningE
 282      83B70700 
 283 01e4 03B50700 		ld	a0,0(a5)
 284 01e8 97000000 		call	_Z24print_char_pointer_valuePKc@plt
 284      E7800000 
 285              	.LVL37:
  65:test/ConsumerProducer_C_API_test.cpp ****     printString("\n");
 286              		.loc 1 65 5 is_stmt 1
 287              		.loc 1 65 16 is_stmt 0
 288 01f0 17050000 		lla	a0,.LC1
 288      13050500 
 289 01f8 97000000 		call	_Z11printStringPKc@plt
 289      E7800000 
 290              	.LVL38:
  66:test/ConsumerProducer_C_API_test.cpp **** 
  67:test/ConsumerProducer_C_API_test.cpp ****     int i = 0;
 291              		.loc 1 67 5 is_stmt 1
 292              		.loc 1 67 9 is_stmt 0
 293 0200 93090000 		li	s3,0
 294 0204 6F00C001 		j	.L14
 295              	.LVL39:
 296              	.L20:
 297              	.LBB2:
  68:test/ConsumerProducer_C_API_test.cpp ****     while (!threadEnd) {
  69:test/ConsumerProducer_C_API_test.cpp ****         int key = data->buffer->get();
  70:test/ConsumerProducer_C_API_test.cpp ****         key = key;
  71:test/ConsumerProducer_C_API_test.cpp ****         i++;
  72:test/ConsumerProducer_C_API_test.cpp **** 
  73:test/ConsumerProducer_C_API_test.cpp ****         putc(key);
  74:test/ConsumerProducer_C_API_test.cpp **** 
  75:test/ConsumerProducer_C_API_test.cpp ****         if (i % (5 * data->id) == 0) {
  76:test/ConsumerProducer_C_API_test.cpp ****             thread_dispatch();
 298              		.loc 1 76 13 is_stmt 1
 299              		.loc 1 76 28 is_stmt 0
 300 0208 97000000 		call	_Z15thread_dispatchv@plt
 300      E7800000 
 301              	.LVL40:
 302 0210 6F000005 		j	.L16
 303              	.LVL41:
 304              	.L21:
  77:test/ConsumerProducer_C_API_test.cpp ****         }
  78:test/ConsumerProducer_C_API_test.cpp **** 
  79:test/ConsumerProducer_C_API_test.cpp ****         if (i % 80 == 0) {
  80:test/ConsumerProducer_C_API_test.cpp ****             putc('\n');
 305              		.loc 1 80 13 is_stmt 1
 306              		.loc 1 80 17 is_stmt 0
 307 0214 1305A000 		li	a0,10
 308 0218 97000000 		call	_Z4putcc@plt
 308      E7800000 
 309              	.LVL42:
 310              	.L14:
 311              	.LBE2:
  68:test/ConsumerProducer_C_API_test.cpp ****     while (!threadEnd) {
 312              		.loc 1 68 5 is_stmt 1
  68:test/ConsumerProducer_C_API_test.cpp ****     while (!threadEnd) {
GAS LISTING /tmp/cc9Vwif8.s 			page 9


 313              		.loc 1 68 12
 314 0220 97070000 		lw	a5,.LANCHOR0
 314      83A70700 
 315 0228 63900706 		bnez	a5,.L15
 316              	.LBB3:
  69:test/ConsumerProducer_C_API_test.cpp ****         key = key;
 317              		.loc 1 69 9
  69:test/ConsumerProducer_C_API_test.cpp ****         key = key;
 318              		.loc 1 69 36 is_stmt 0
 319 022c 03358900 		ld	a0,8(s2)
 320 0230 97000000 		call	_ZN6Buffer3getEv@plt
 320      E7800000 
 321              	.LVL43:
  70:test/ConsumerProducer_C_API_test.cpp ****         i++;
 322              		.loc 1 70 9 is_stmt 1
  71:test/ConsumerProducer_C_API_test.cpp **** 
 323              		.loc 1 71 9
  71:test/ConsumerProducer_C_API_test.cpp **** 
 324              		.loc 1 71 10 is_stmt 0
 325 0238 9B841900 		addiw	s1,s3,1
 326 023c 9B890400 		sext.w	s3,s1
 327              	.LVL44:
  73:test/ConsumerProducer_C_API_test.cpp **** 
 328              		.loc 1 73 9 is_stmt 1
  73:test/ConsumerProducer_C_API_test.cpp **** 
 329              		.loc 1 73 13 is_stmt 0
 330 0240 1375F50F 		andi	a0,a0,0xff
 331              	.LVL45:
 332 0244 97000000 		call	_Z4putcc@plt
 332      E7800000 
 333              	.LVL46:
  75:test/ConsumerProducer_C_API_test.cpp ****             thread_dispatch();
 334              		.loc 1 75 9 is_stmt 1
  75:test/ConsumerProducer_C_API_test.cpp ****             thread_dispatch();
 335              		.loc 1 75 28 is_stmt 0
 336 024c 03270900 		lw	a4,0(s2)
  75:test/ConsumerProducer_C_API_test.cpp ****             thread_dispatch();
 337              		.loc 1 75 20
 338 0250 9B172700 		slliw	a5,a4,2
 339 0254 BB87E700 		addw	a5,a5,a4
  75:test/ConsumerProducer_C_API_test.cpp ****             thread_dispatch();
 340              		.loc 1 75 15
 341 0258 BBE7F402 		remw	a5,s1,a5
  75:test/ConsumerProducer_C_API_test.cpp ****             thread_dispatch();
 342              		.loc 1 75 9
 343 025c E38607FA 		beqz	a5,.L20
 344              	.L16:
  79:test/ConsumerProducer_C_API_test.cpp ****             putc('\n');
 345              		.loc 1 79 9 is_stmt 1
  79:test/ConsumerProducer_C_API_test.cpp ****             putc('\n');
 346              		.loc 1 79 15 is_stmt 0
 347 0260 93070005 		li	a5,80
 348 0264 BBE4F402 		remw	s1,s1,a5
 349              	.LVL47:
  79:test/ConsumerProducer_C_API_test.cpp ****             putc('\n');
 350              		.loc 1 79 9
 351 0268 E39C04FA 		bnez	s1,.L14
GAS LISTING /tmp/cc9Vwif8.s 			page 10


 352 026c 6FF09FFA 		j	.L21
 353              	.L22:
 354              	.LBE3:
 355              	.LBB4:
  81:test/ConsumerProducer_C_API_test.cpp ****         }
  82:test/ConsumerProducer_C_API_test.cpp ****     }
  83:test/ConsumerProducer_C_API_test.cpp **** 
  84:test/ConsumerProducer_C_API_test.cpp ****     while (data->buffer->getCnt() > 0) {
  85:test/ConsumerProducer_C_API_test.cpp ****         int key = data->buffer->get();
 356              		.loc 1 85 9 is_stmt 1
 357              		.loc 1 85 36 is_stmt 0
 358 0270 03358900 		ld	a0,8(s2)
 359 0274 97000000 		call	_ZN6Buffer3getEv@plt
 359      E7800000 
 360              	.LVL48:
  86:test/ConsumerProducer_C_API_test.cpp ****         key = key;
 361              		.loc 1 86 9 is_stmt 1
  87:test/ConsumerProducer_C_API_test.cpp ****         putc(key);
 362              		.loc 1 87 9
 363              		.loc 1 87 13 is_stmt 0
 364 027c 1375F50F 		andi	a0,a0,0xff
 365              	.LVL49:
 366 0280 97000000 		call	_Z4putcc@plt
 366      E7800000 
 367              	.LVL50:
 368              	.L15:
 369              	.LBE4:
  84:test/ConsumerProducer_C_API_test.cpp ****         int key = data->buffer->get();
 370              		.loc 1 84 5 is_stmt 1
  84:test/ConsumerProducer_C_API_test.cpp ****         int key = data->buffer->get();
 371              		.loc 1 84 35
  84:test/ConsumerProducer_C_API_test.cpp ****         int key = data->buffer->get();
 372              		.loc 1 84 32 is_stmt 0
 373 0288 03358900 		ld	a0,8(s2)
 374 028c 97000000 		call	_ZN6Buffer6getCntEv@plt
 374      E7800000 
 375              	.LVL51:
  84:test/ConsumerProducer_C_API_test.cpp ****         int key = data->buffer->get();
 376              		.loc 1 84 35
 377 0294 E34EA0FC 		bgtz	a0,.L22
  88:test/ConsumerProducer_C_API_test.cpp ****     }
  89:test/ConsumerProducer_C_API_test.cpp **** 
  90:test/ConsumerProducer_C_API_test.cpp ****     sem_signal(data->wait);
 378              		.loc 1 90 5 is_stmt 1
 379              		.loc 1 90 15 is_stmt 0
 380 0298 03350901 		ld	a0,16(s2)
 381 029c 97000000 		call	_Z10sem_signalP10_Semaphore@plt
 381      E7800000 
 382              	.LVL52:
  91:test/ConsumerProducer_C_API_test.cpp **** }
 383              		.loc 1 91 1
 384 02a4 83308102 		ld	ra,40(sp)
 385              		.cfi_restore 1
 386 02a8 03340102 		ld	s0,32(sp)
 387              		.cfi_restore 8
 388              		.cfi_def_cfa 2, 48
 389 02ac 83348101 		ld	s1,24(sp)
GAS LISTING /tmp/cc9Vwif8.s 			page 11


 390              		.cfi_restore 9
 391 02b0 03390101 		ld	s2,16(sp)
 392              		.cfi_restore 18
 393              	.LVL53:
 394 02b4 83398100 		ld	s3,8(sp)
 395              		.cfi_restore 19
 396              	.LVL54:
 397 02b8 13010103 		addi	sp,sp,48
 398              		.cfi_def_cfa_offset 0
 399 02bc 67800000 		jr	ra
 400              		.cfi_endproc
 401              	.LFE65:
 403              		.section	.rodata.str1.8
 404 003b 00000000 		.align	3
 404      00
 405              	.LC4:
 406 0040 556E6573 		.string	"Unesite broj proizvodjaca?\n"
 406      69746520 
 406      62726F6A 
 406      2070726F 
 406      697A766F 
 407 005c 00000000 		.align	3
 408              	.LC5:
 409 0060 556E6573 		.string	"Unesite velicinu bafera?\n"
 409      69746520 
 409      76656C69 
 409      63696E75 
 409      20626166 
 410 007a 00000000 		.align	3
 410      0000
 411              	.LC6:
 412 0080 42726F6A 		.string	"Broj proizvodjaca "
 412      2070726F 
 412      697A766F 
 412      646A6163 
 412      612000
 413 0093 00000000 		.align	3
 413      00
 414              	.LC7:
 415 0098 20692076 		.string	" i velicina bafera "
 415      656C6963 
 415      696E6120 
 415      62616665 
 415      72612000 
 416 00ac 00000000 		.align	3
 417              	.LC8:
 418 00b0 2E0A00   		.string	".\n"
 419 00b3 00000000 		.align	3
 419      00
 420              	.LC9:
 421 00b8 42726F6A 		.string	"Broj proizvodjaca ne sme biti manji od velicine bafera!\n"
 421      2070726F 
 421      697A766F 
 421      646A6163 
 421      61206E65 
 422 00f1 00000000 		.align	3
 422      000000
GAS LISTING /tmp/cc9Vwif8.s 			page 12


 423              	.LC10:
 424 00f8 42726F6A 		.string	"Broj proizvodjaca mora biti veci od nula!\n"
 424      2070726F 
 424      697A766F 
 424      646A6163 
 424      61206D6F 
 425              		.text
 426              		.align	2
 427              		.globl	_Z22producerConsumer_C_APIv
 429              	_Z22producerConsumer_C_APIv:
 430              	.LFB66:
  92:test/ConsumerProducer_C_API_test.cpp **** 
  93:test/ConsumerProducer_C_API_test.cpp **** void producerConsumer_C_API() {
 431              		.loc 1 93 31 is_stmt 1
 432              		.cfi_startproc
 433              		.cfi_personality 0x9b,DW.ref.__gxx_personality_v0
 434              		.cfi_lsda 0x1b,.LLSDA66
 435 02c0 130101F9 		addi	sp,sp,-112
 436              		.cfi_def_cfa_offset 112
 437 02c4 23341106 		sd	ra,104(sp)
 438 02c8 23308106 		sd	s0,96(sp)
 439 02cc 233C9104 		sd	s1,88(sp)
 440 02d0 23382105 		sd	s2,80(sp)
 441 02d4 23343105 		sd	s3,72(sp)
 442 02d8 23304105 		sd	s4,64(sp)
 443 02dc 233C5103 		sd	s5,56(sp)
 444 02e0 23386103 		sd	s6,48(sp)
 445              		.cfi_offset 1, -8
 446              		.cfi_offset 8, -16
 447              		.cfi_offset 9, -24
 448              		.cfi_offset 18, -32
 449              		.cfi_offset 19, -40
 450              		.cfi_offset 20, -48
 451              		.cfi_offset 21, -56
 452              		.cfi_offset 22, -64
 453 02e4 13040107 		addi	s0,sp,112
 454              		.cfi_def_cfa 8, 0
  94:test/ConsumerProducer_C_API_test.cpp ****     char input[30];
  95:test/ConsumerProducer_C_API_test.cpp ****     int n, threadNum;
  96:test/ConsumerProducer_C_API_test.cpp **** 
  97:test/ConsumerProducer_C_API_test.cpp ****     printString("Unesite broj proizvodjaca?\n");
  98:test/ConsumerProducer_C_API_test.cpp ****     getString(input, 30);
  99:test/ConsumerProducer_C_API_test.cpp ****     threadNum = stringToInt(input);
 100:test/ConsumerProducer_C_API_test.cpp **** 
 101:test/ConsumerProducer_C_API_test.cpp ****     printString("Unesite velicinu bafera?\n");
 102:test/ConsumerProducer_C_API_test.cpp ****     getString(input, 30);
 103:test/ConsumerProducer_C_API_test.cpp ****     n = stringToInt(input);
 104:test/ConsumerProducer_C_API_test.cpp **** 
 105:test/ConsumerProducer_C_API_test.cpp ****     printString("Broj proizvodjaca "); printInt(threadNum);
 106:test/ConsumerProducer_C_API_test.cpp ****     printString(" i velicina bafera "); printInt(n);
 107:test/ConsumerProducer_C_API_test.cpp ****     printString(".\n");
 108:test/ConsumerProducer_C_API_test.cpp **** 
 109:test/ConsumerProducer_C_API_test.cpp ****     if(threadNum > n) {
 110:test/ConsumerProducer_C_API_test.cpp ****         printString("Broj proizvodjaca ne sme biti manji od velicine bafera!\n");
 111:test/ConsumerProducer_C_API_test.cpp ****         return;
 112:test/ConsumerProducer_C_API_test.cpp ****     } else if (threadNum < 1) {
 113:test/ConsumerProducer_C_API_test.cpp ****         printString("Broj proizvodjaca mora biti veci od nula!\n");
GAS LISTING /tmp/cc9Vwif8.s 			page 13


 114:test/ConsumerProducer_C_API_test.cpp ****         return;
 115:test/ConsumerProducer_C_API_test.cpp ****     }
 116:test/ConsumerProducer_C_API_test.cpp **** 
 117:test/ConsumerProducer_C_API_test.cpp ****     Buffer *buffer = new Buffer(n);
 118:test/ConsumerProducer_C_API_test.cpp ****     Buffer::pera = buffer;
 119:test/ConsumerProducer_C_API_test.cpp **** 
 120:test/ConsumerProducer_C_API_test.cpp ****     sem_open(&waitForAll, 0);
 121:test/ConsumerProducer_C_API_test.cpp **** 
 122:test/ConsumerProducer_C_API_test.cpp ****     thread_t threads[threadNum];
 123:test/ConsumerProducer_C_API_test.cpp ****     thread_t consumerThread;
 124:test/ConsumerProducer_C_API_test.cpp **** 
 125:test/ConsumerProducer_C_API_test.cpp ****     struct thread_data data[threadNum + 1];
 126:test/ConsumerProducer_C_API_test.cpp **** 
 127:test/ConsumerProducer_C_API_test.cpp ****     data[threadNum].id = threadNum;
 128:test/ConsumerProducer_C_API_test.cpp ****     data[threadNum].buffer = buffer;
 129:test/ConsumerProducer_C_API_test.cpp ****     data[threadNum].wait = waitForAll;
 130:test/ConsumerProducer_C_API_test.cpp ****     thread_create(&consumerThread, consumer, data + threadNum);
 131:test/ConsumerProducer_C_API_test.cpp **** 
 132:test/ConsumerProducer_C_API_test.cpp ****     for (int i = 0; i < threadNum; i++) {
 133:test/ConsumerProducer_C_API_test.cpp ****         data[i].id = i;
 134:test/ConsumerProducer_C_API_test.cpp ****         data[i].buffer = buffer;
 135:test/ConsumerProducer_C_API_test.cpp ****         data[i].wait = waitForAll;
 136:test/ConsumerProducer_C_API_test.cpp **** 
 137:test/ConsumerProducer_C_API_test.cpp ****         thread_create(threads + i,
 138:test/ConsumerProducer_C_API_test.cpp ****                       i > 0 ? producer : producerKeyboard,
 139:test/ConsumerProducer_C_API_test.cpp ****                       data + i);
 140:test/ConsumerProducer_C_API_test.cpp ****     }
 141:test/ConsumerProducer_C_API_test.cpp **** 
 142:test/ConsumerProducer_C_API_test.cpp ****     thread_dispatch();
 143:test/ConsumerProducer_C_API_test.cpp **** 
 144:test/ConsumerProducer_C_API_test.cpp ****     for (int i = 0; i <= threadNum; i++) {
 145:test/ConsumerProducer_C_API_test.cpp ****         sem_wait(waitForAll);
 146:test/ConsumerProducer_C_API_test.cpp ****     }
 147:test/ConsumerProducer_C_API_test.cpp **** 
 148:test/ConsumerProducer_C_API_test.cpp ****     sem_close(waitForAll);
 149:test/ConsumerProducer_C_API_test.cpp **** 
 150:test/ConsumerProducer_C_API_test.cpp ****     delete buffer;
 455              		.loc 1 150 18 is_stmt 0
 456 02e8 130B0100 		mv	s6,sp
  94:test/ConsumerProducer_C_API_test.cpp ****     char input[30];
 457              		.loc 1 94 5 is_stmt 1
  95:test/ConsumerProducer_C_API_test.cpp **** 
 458              		.loc 1 95 5
  97:test/ConsumerProducer_C_API_test.cpp ****     getString(input, 30);
 459              		.loc 1 97 5
  97:test/ConsumerProducer_C_API_test.cpp ****     getString(input, 30);
 460              		.loc 1 97 16 is_stmt 0
 461 02ec 17050000 		lla	a0,.LC4
 461      13050500 
 462              	.LEHB0:
 463 02f4 97000000 		call	_Z11printStringPKc@plt
 463      E7800000 
 464              	.LVL55:
  98:test/ConsumerProducer_C_API_test.cpp ****     threadNum = stringToInt(input);
 465              		.loc 1 98 5 is_stmt 1
  98:test/ConsumerProducer_C_API_test.cpp ****     threadNum = stringToInt(input);
 466              		.loc 1 98 14 is_stmt 0
GAS LISTING /tmp/cc9Vwif8.s 			page 14


 467 02fc 9305E001 		li	a1,30
 468 0300 930404FA 		addi	s1,s0,-96
 469 0304 13850400 		mv	a0,s1
 470 0308 97000000 		call	_Z9getStringPci@plt
 470      E7800000 
 471              	.LVL56:
  99:test/ConsumerProducer_C_API_test.cpp **** 
 472              		.loc 1 99 5 is_stmt 1
  99:test/ConsumerProducer_C_API_test.cpp **** 
 473              		.loc 1 99 28 is_stmt 0
 474 0310 13850400 		mv	a0,s1
 475 0314 97000000 		call	_Z11stringToIntPKc@plt
 475      E7800000 
 476              	.LVL57:
 477 031c 13090500 		mv	s2,a0
 478              	.LVL58:
 101:test/ConsumerProducer_C_API_test.cpp ****     getString(input, 30);
 479              		.loc 1 101 5 is_stmt 1
 101:test/ConsumerProducer_C_API_test.cpp ****     getString(input, 30);
 480              		.loc 1 101 16 is_stmt 0
 481 0320 17050000 		lla	a0,.LC5
 481      13050500 
 482 0328 97000000 		call	_Z11printStringPKc@plt
 482      E7800000 
 483              	.LVL59:
 102:test/ConsumerProducer_C_API_test.cpp ****     n = stringToInt(input);
 484              		.loc 1 102 5 is_stmt 1
 102:test/ConsumerProducer_C_API_test.cpp ****     n = stringToInt(input);
 485              		.loc 1 102 14 is_stmt 0
 486 0330 9305E001 		li	a1,30
 487 0334 13850400 		mv	a0,s1
 488 0338 97000000 		call	_Z9getStringPci@plt
 488      E7800000 
 489              	.LVL60:
 103:test/ConsumerProducer_C_API_test.cpp **** 
 490              		.loc 1 103 5 is_stmt 1
 103:test/ConsumerProducer_C_API_test.cpp **** 
 491              		.loc 1 103 20 is_stmt 0
 492 0340 13850400 		mv	a0,s1
 493 0344 97000000 		call	_Z11stringToIntPKc@plt
 493      E7800000 
 494              	.LVL61:
 495 034c 93040500 		mv	s1,a0
 496              	.LVL62:
 105:test/ConsumerProducer_C_API_test.cpp ****     printString(" i velicina bafera "); printInt(n);
 497              		.loc 1 105 5 is_stmt 1
 105:test/ConsumerProducer_C_API_test.cpp ****     printString(" i velicina bafera "); printInt(n);
 498              		.loc 1 105 16 is_stmt 0
 499 0350 17050000 		lla	a0,.LC6
 499      13050500 
 500 0358 97000000 		call	_Z11printStringPKc@plt
 500      E7800000 
 501              	.LVL63:
 105:test/ConsumerProducer_C_API_test.cpp ****     printString(" i velicina bafera "); printInt(n);
 502              		.loc 1 105 40 is_stmt 1
 105:test/ConsumerProducer_C_API_test.cpp ****     printString(" i velicina bafera "); printInt(n);
 503              		.loc 1 105 48 is_stmt 0
GAS LISTING /tmp/cc9Vwif8.s 			page 15


 504 0360 13060000 		li	a2,0
 505 0364 9305A000 		li	a1,10
 506 0368 13050900 		mv	a0,s2
 507 036c 97000000 		call	_Z8printIntiii@plt
 507      E7800000 
 508              	.LVL64:
 106:test/ConsumerProducer_C_API_test.cpp ****     printString(".\n");
 509              		.loc 1 106 5 is_stmt 1
 106:test/ConsumerProducer_C_API_test.cpp ****     printString(".\n");
 510              		.loc 1 106 16 is_stmt 0
 511 0374 17050000 		lla	a0,.LC7
 511      13050500 
 512 037c 97000000 		call	_Z11printStringPKc@plt
 512      E7800000 
 513              	.LVL65:
 106:test/ConsumerProducer_C_API_test.cpp ****     printString(".\n");
 514              		.loc 1 106 41 is_stmt 1
 106:test/ConsumerProducer_C_API_test.cpp ****     printString(".\n");
 515              		.loc 1 106 49 is_stmt 0
 516 0384 13060000 		li	a2,0
 517 0388 9305A000 		li	a1,10
 518 038c 13850400 		mv	a0,s1
 519 0390 97000000 		call	_Z8printIntiii@plt
 519      E7800000 
 520              	.LVL66:
 107:test/ConsumerProducer_C_API_test.cpp **** 
 521              		.loc 1 107 5 is_stmt 1
 107:test/ConsumerProducer_C_API_test.cpp **** 
 522              		.loc 1 107 16 is_stmt 0
 523 0398 17050000 		lla	a0,.LC8
 523      13050500 
 524 03a0 97000000 		call	_Z11printStringPKc@plt
 524      E7800000 
 525              	.LVL67:
 109:test/ConsumerProducer_C_API_test.cpp ****         printString("Broj proizvodjaca ne sme biti manji od velicine bafera!\n");
 526              		.loc 1 109 5 is_stmt 1
 527 03a8 63C42403 		bgt	s2,s1,.L38
 112:test/ConsumerProducer_C_API_test.cpp ****         printString("Broj proizvodjaca mora biti veci od nula!\n");
 528              		.loc 1 112 12
 529 03ac 635C2003 		blez	s2,.L39
 117:test/ConsumerProducer_C_API_test.cpp ****     Buffer::pera = buffer;
 530              		.loc 1 117 5
 117:test/ConsumerProducer_C_API_test.cpp ****     Buffer::pera = buffer;
 531              		.loc 1 117 34 is_stmt 0
 532 03b0 13058003 		li	a0,56
 533 03b4 97000000 		call	_Znwm@plt
 533      E7800000 
 534              	.LVL68:
 535              	.LEHE0:
 536 03bc 130A0500 		mv	s4,a0
 537 03c0 93850400 		mv	a1,s1
 538              	.LEHB1:
 539 03c4 97000000 		call	_ZN6BufferC1Ei@plt
 539      E7800000 
 540              	.LVL69:
 541              	.LEHE1:
 542 03cc 6F000003 		j	.L40
GAS LISTING /tmp/cc9Vwif8.s 			page 16


 543              	.L38:
 110:test/ConsumerProducer_C_API_test.cpp ****         return;
 544              		.loc 1 110 9 is_stmt 1
 110:test/ConsumerProducer_C_API_test.cpp ****         return;
 545              		.loc 1 110 20 is_stmt 0
 546 03d0 17050000 		lla	a0,.LC9
 546      13050500 
 547              	.LEHB2:
 548 03d8 97000000 		call	_Z11printStringPKc@plt
 548      E7800000 
 549              	.LVL70:
 111:test/ConsumerProducer_C_API_test.cpp ****     } else if (threadNum < 1) {
 550              		.loc 1 111 9 is_stmt 1
 551 03e0 6F004001 		j	.L25
 552              	.L39:
 113:test/ConsumerProducer_C_API_test.cpp ****         return;
 553              		.loc 1 113 9
 113:test/ConsumerProducer_C_API_test.cpp ****         return;
 554              		.loc 1 113 20 is_stmt 0
 555 03e4 17050000 		lla	a0,.LC10
 555      13050500 
 556 03ec 97000000 		call	_Z11printStringPKc@plt
 556      E7800000 
 557              	.LVL71:
 114:test/ConsumerProducer_C_API_test.cpp ****     }
 558              		.loc 1 114 9 is_stmt 1
 559              	.L25:
 560 03f4 13010B00 		mv	sp,s6
 561 03f8 6F00C015 		j	.L23
 562              	.L40:
 563              	.LVL72:
 118:test/ConsumerProducer_C_API_test.cpp **** 
 564              		.loc 1 118 5 discriminator 3
 118:test/ConsumerProducer_C_API_test.cpp **** 
 565              		.loc 1 118 18 is_stmt 0 discriminator 3
 566 03fc 97070000 		la	a5,_ZN6Buffer4peraE
 566      83B70700 
 567 0404 23B04701 		sd	s4,0(a5)
 120:test/ConsumerProducer_C_API_test.cpp **** 
 568              		.loc 1 120 5 is_stmt 1 discriminator 3
 120:test/ConsumerProducer_C_API_test.cpp **** 
 569              		.loc 1 120 13 is_stmt 0 discriminator 3
 570 0408 93050000 		li	a1,0
 571 040c 17050000 		lla	a0,.LANCHOR0+8
 571      13050500 
 572 0414 97000000 		call	_Z8sem_openPP10_Semaphorej@plt
 572      E7800000 
 573              	.LVL73:
 122:test/ConsumerProducer_C_API_test.cpp ****     thread_t consumerThread;
 574              		.loc 1 122 5 is_stmt 1 discriminator 3
 122:test/ConsumerProducer_C_API_test.cpp ****     thread_t consumerThread;
 575              		.loc 1 122 14 is_stmt 0 discriminator 3
 576 041c 93173900 		slli	a5,s2,3
 577 0420 9387F700 		addi	a5,a5,15
 578 0424 93F707FF 		andi	a5,a5,-16
 579 0428 3301F140 		sub	sp,sp,a5
 580 042c 930A0100 		mv	s5,sp
GAS LISTING /tmp/cc9Vwif8.s 			page 17


 581              	.LVL74:
 123:test/ConsumerProducer_C_API_test.cpp **** 
 582              		.loc 1 123 5 is_stmt 1 discriminator 3
 125:test/ConsumerProducer_C_API_test.cpp **** 
 583              		.loc 1 125 5 discriminator 3
 125:test/ConsumerProducer_C_API_test.cpp **** 
 584              		.loc 1 125 39 is_stmt 0 discriminator 3
 585 0430 1B071900 		addiw	a4,s2,1
 586              	.LVL75:
 125:test/ConsumerProducer_C_API_test.cpp **** 
 587              		.loc 1 125 24 discriminator 3
 588 0434 93171700 		slli	a5,a4,1
 589 0438 B387E700 		add	a5,a5,a4
 590 043c 93973700 		slli	a5,a5,3
 591 0440 9387F700 		addi	a5,a5,15
 592 0444 93F707FF 		andi	a5,a5,-16
 593 0448 3301F140 		sub	sp,sp,a5
 594              	.LVL76:
 595 044c 93090100 		mv	s3,sp
 596              	.LVL77:
 127:test/ConsumerProducer_C_API_test.cpp ****     data[threadNum].buffer = buffer;
 597              		.loc 1 127 5 is_stmt 1 discriminator 3
 127:test/ConsumerProducer_C_API_test.cpp ****     data[threadNum].buffer = buffer;
 598              		.loc 1 127 24 is_stmt 0 discriminator 3
 599 0450 13161900 		slli	a2,s2,1
 600 0454 B3072601 		add	a5,a2,s2
 601 0458 93973700 		slli	a5,a5,3
 602 045c B387F900 		add	a5,s3,a5
 603 0460 23A02701 		sw	s2,0(a5)
 128:test/ConsumerProducer_C_API_test.cpp ****     data[threadNum].wait = waitForAll;
 604              		.loc 1 128 5 is_stmt 1 discriminator 3
 128:test/ConsumerProducer_C_API_test.cpp ****     data[threadNum].wait = waitForAll;
 605              		.loc 1 128 28 is_stmt 0 discriminator 3
 606 0464 23B44701 		sd	s4,8(a5)
 129:test/ConsumerProducer_C_API_test.cpp ****     thread_create(&consumerThread, consumer, data + threadNum);
 607              		.loc 1 129 5 is_stmt 1 discriminator 3
 129:test/ConsumerProducer_C_API_test.cpp ****     thread_create(&consumerThread, consumer, data + threadNum);
 608              		.loc 1 129 26 is_stmt 0 discriminator 3
 609 0468 17070000 		ld	a4,.LANCHOR0+8
 609      03370700 
 610 0470 23B8E700 		sd	a4,16(a5)
 130:test/ConsumerProducer_C_API_test.cpp **** 
 611              		.loc 1 130 5 is_stmt 1 discriminator 3
 130:test/ConsumerProducer_C_API_test.cpp **** 
 612              		.loc 1 130 18 is_stmt 0 discriminator 3
 613 0474 13860700 		mv	a2,a5
 614 0478 97050000 		lla	a1,_ZL8consumerPv
 614      93850500 
 615 0480 130584F9 		addi	a0,s0,-104
 616 0484 97000000 		call	_Z13thread_createPP3TCBPFvPvES2_@plt
 616      E7800000 
 617              	.LVL78:
 618              	.LBB5:
 132:test/ConsumerProducer_C_API_test.cpp ****         data[i].id = i;
 619              		.loc 1 132 14 discriminator 3
 620 048c 93040000 		li	s1,0
 621              	.LVL79:
GAS LISTING /tmp/cc9Vwif8.s 			page 18


 622 0490 6F008002 		j	.L29
 623              	.LVL80:
 624              	.L35:
 137:test/ConsumerProducer_C_API_test.cpp ****                       i > 0 ? producer : producerKeyboard,
 625              		.loc 1 137 22
 626 0494 97050000 		lla	a1,_ZL16producerKeyboardPv
 626      93850500 
 627              	.L28:
 139:test/ConsumerProducer_C_API_test.cpp ****     }
 628              		.loc 1 139 28 discriminator 4
 629 049c 13961700 		slli	a2,a5,1
 630 04a0 3306F600 		add	a2,a2,a5
 631 04a4 13163600 		slli	a2,a2,3
 137:test/ConsumerProducer_C_API_test.cpp ****                       i > 0 ? producer : producerKeyboard,
 632              		.loc 1 137 22 discriminator 4
 633 04a8 3386C900 		add	a2,s3,a2
 634 04ac 97000000 		call	_Z13thread_createPP3TCBPFvPvES2_@plt
 634      E7800000 
 635              	.LVL81:
 132:test/ConsumerProducer_C_API_test.cpp ****         data[i].id = i;
 636              		.loc 1 132 5 is_stmt 1 discriminator 4
 637 04b4 9B841400 		addiw	s1,s1,1
 638              	.LVL82:
 639              	.L29:
 132:test/ConsumerProducer_C_API_test.cpp ****         data[i].id = i;
 640              		.loc 1 132 23 discriminator 1
 641 04b8 63D22405 		bge	s1,s2,.L27
 133:test/ConsumerProducer_C_API_test.cpp ****         data[i].buffer = buffer;
 642              		.loc 1 133 9
 133:test/ConsumerProducer_C_API_test.cpp ****         data[i].buffer = buffer;
 643              		.loc 1 133 20 is_stmt 0
 644 04bc 93971400 		slli	a5,s1,1
 645 04c0 B3879700 		add	a5,a5,s1
 646 04c4 93973700 		slli	a5,a5,3
 647 04c8 B387F900 		add	a5,s3,a5
 648 04cc 23A09700 		sw	s1,0(a5)
 134:test/ConsumerProducer_C_API_test.cpp ****         data[i].wait = waitForAll;
 649              		.loc 1 134 9 is_stmt 1
 134:test/ConsumerProducer_C_API_test.cpp ****         data[i].wait = waitForAll;
 650              		.loc 1 134 24 is_stmt 0
 651 04d0 23B44701 		sd	s4,8(a5)
 135:test/ConsumerProducer_C_API_test.cpp **** 
 652              		.loc 1 135 9 is_stmt 1
 135:test/ConsumerProducer_C_API_test.cpp **** 
 653              		.loc 1 135 22 is_stmt 0
 654 04d4 17070000 		ld	a4,.LANCHOR0+8
 654      03370700 
 655 04dc 23B8E700 		sd	a4,16(a5)
 137:test/ConsumerProducer_C_API_test.cpp ****                       i > 0 ? producer : producerKeyboard,
 656              		.loc 1 137 9 is_stmt 1
 137:test/ConsumerProducer_C_API_test.cpp ****                       i > 0 ? producer : producerKeyboard,
 657              		.loc 1 137 33 is_stmt 0
 658 04e0 93870400 		mv	a5,s1
 137:test/ConsumerProducer_C_API_test.cpp ****                       i > 0 ? producer : producerKeyboard,
 659              		.loc 1 137 31
 660 04e4 13953400 		slli	a0,s1,3
 137:test/ConsumerProducer_C_API_test.cpp ****                       i > 0 ? producer : producerKeyboard,
GAS LISTING /tmp/cc9Vwif8.s 			page 19


 661              		.loc 1 137 22
 662 04e8 3385AA00 		add	a0,s5,a0
 663 04ec E35490FA 		blez	s1,.L35
 664 04f0 97050000 		lla	a1,_ZL8producerPv
 664      93850500 
 665 04f8 6FF05FFA 		j	.L28
 666              	.L27:
 667              	.LBE5:
 142:test/ConsumerProducer_C_API_test.cpp **** 
 668              		.loc 1 142 5 is_stmt 1
 142:test/ConsumerProducer_C_API_test.cpp **** 
 669              		.loc 1 142 20 is_stmt 0
 670 04fc 97000000 		call	_Z15thread_dispatchv@plt
 670      E7800000 
 671              	.LVL83:
 672              	.LBB6:
 144:test/ConsumerProducer_C_API_test.cpp ****         sem_wait(waitForAll);
 673              		.loc 1 144 14
 674 0504 93040000 		li	s1,0
 675              	.LVL84:
 676              	.L31:
 144:test/ConsumerProducer_C_API_test.cpp ****         sem_wait(waitForAll);
 677              		.loc 1 144 23 is_stmt 1 discriminator 1
 678 0508 634E9900 		bgt	s1,s2,.L30
 145:test/ConsumerProducer_C_API_test.cpp ****     }
 679              		.loc 1 145 9
 145:test/ConsumerProducer_C_API_test.cpp ****     }
 680              		.loc 1 145 17 is_stmt 0
 681 050c 17050000 		ld	a0,.LANCHOR0+8
 681      03350500 
 682 0514 97000000 		call	_Z8sem_waitP10_Semaphore@plt
 682      E7800000 
 683              	.LVL85:
 144:test/ConsumerProducer_C_API_test.cpp ****         sem_wait(waitForAll);
 684              		.loc 1 144 5 is_stmt 1
 685 051c 9B841400 		addiw	s1,s1,1
 686              	.LVL86:
 687 0520 6FF09FFE 		j	.L31
 688              	.LVL87:
 689              	.L30:
 690              	.LBE6:
 148:test/ConsumerProducer_C_API_test.cpp **** 
 691              		.loc 1 148 5
 148:test/ConsumerProducer_C_API_test.cpp **** 
 692              		.loc 1 148 14 is_stmt 0
 693 0524 17050000 		ld	a0,.LANCHOR0+8
 693      03350500 
 694 052c 97000000 		call	_Z9sem_closeP10_Semaphore@plt
 694      E7800000 
 695              	.LVL88:
 696              		.loc 1 150 5 is_stmt 1
 697              		.loc 1 150 18 is_stmt 0
 698 0534 630E0A00 		beqz	s4,.L32
 699              		.loc 1 150 12 discriminator 1
 700 0538 13050A00 		mv	a0,s4
 701 053c 97000000 		call	_ZN6BufferD1Ev@plt
 701      E7800000 
GAS LISTING /tmp/cc9Vwif8.s 			page 20


 702              	.LVL89:
 703 0544 13050A00 		mv	a0,s4
 704 0548 97000000 		call	_ZdlPv@plt
 704      E7800000 
 705              	.LVL90:
 706              	.L32:
 707 0550 13010B00 		mv	sp,s6
 708              	.LVL91:
 709              	.L23:
 151:test/ConsumerProducer_C_API_test.cpp **** 
 152:test/ConsumerProducer_C_API_test.cpp **** }
 710              		.loc 1 152 1
 711 0554 130104F9 		addi	sp,s0,-112
 712              		.cfi_remember_state
 713              		.cfi_def_cfa 2, 112
 714 0558 83308106 		ld	ra,104(sp)
 715              		.cfi_restore 1
 716 055c 03340106 		ld	s0,96(sp)
 717              		.cfi_restore 8
 718 0560 83348105 		ld	s1,88(sp)
 719              		.cfi_restore 9
 720 0564 03390105 		ld	s2,80(sp)
 721              		.cfi_restore 18
 722              	.LVL92:
 723 0568 83398104 		ld	s3,72(sp)
 724              		.cfi_restore 19
 725 056c 033A0104 		ld	s4,64(sp)
 726              		.cfi_restore 20
 727 0570 833A8103 		ld	s5,56(sp)
 728              		.cfi_restore 21
 729 0574 033B0103 		ld	s6,48(sp)
 730              		.cfi_restore 22
 731 0578 13010107 		addi	sp,sp,112
 732              		.cfi_def_cfa_offset 0
 733 057c 67800000 		jr	ra
 734              	.LVL93:
 735              	.L36:
 736              		.cfi_restore_state
 737 0580 93040500 		mv	s1,a0
 738              	.LVL94:
 117:test/ConsumerProducer_C_API_test.cpp ****     Buffer::pera = buffer;
 739              		.loc 1 117 34
 740 0584 13050A00 		mv	a0,s4
 741 0588 97000000 		call	_ZdlPv@plt
 741      E7800000 
 742              	.LVL95:
 743 0590 13850400 		mv	a0,s1
 744 0594 97000000 		call	_Unwind_Resume@plt
 744      E7800000 
 745              	.LVL96:
 746              	.LEHE2:
 747              		.cfi_endproc
 748              	.LFE66:
 749              		.globl	__gxx_personality_v0
 750              		.section	.gcc_except_table,"a",@progbits
 751              	.LLSDA66:
 752 0000 FF       		.byte	0xff
GAS LISTING /tmp/cc9Vwif8.s 			page 21


 753 0001 FF       		.byte	0xff
 754 0002 03       		.byte	0x3
 755 0003 27       		.byte	0x27
 756 0004 00000000 		.4byte	.LEHB0-.LFB66
 757 0008 00000000 		.4byte	.LEHE0-.LEHB0
 758 000c 00000000 		.4byte	0
 759 0010 00       		.byte	0
 760 0011 00000000 		.4byte	.LEHB1-.LFB66
 761 0015 00000000 		.4byte	.LEHE1-.LEHB1
 762 0019 00000000 		.4byte	.L36-.LFB66
 763 001d 00       		.byte	0
 764 001e 00000000 		.4byte	.LEHB2-.LFB66
 765 0022 00000000 		.4byte	.LEHE2-.LEHB2
 766 0026 00000000 		.4byte	0
 767 002a 00       		.byte	0
 768              		.text
 770              		.bss
 771              		.align	3
 772              		.set	.LANCHOR0,. + 0
 775              	_ZL9threadEnd:
 776 0000 00000000 		.zero	4
 777 0004 00000000 		.zero	4
 780              	_ZL10waitForAll:
 781 0008 00000000 		.zero	8
 781      00000000 
 782              		.text
 783              	.Letext0:
 784              		.file 2 "test/../h/../lib/hw.h"
 785              		.file 3 "test/../h/../h/../h/list.hpp"
 786              		.file 4 "test/../h/../h/tcb.hpp"
 787              		.file 5 "test/../h/../h/../h/wait_list.hpp"
 788              		.file 6 "test/../h/../h/semaphore.hpp"
 789              		.file 7 "test/../h/syscall_c.hpp"
 790              		.file 8 "test/buffer.hpp"
 791              		.file 9 "test/printing.hpp"
 4244              		.align	3
 4247              	DW.ref.__gxx_personality_v0:
 4248 0000 00000000 		.dword	__gxx_personality_v0
 4248      00000000 
 4249              		.ident	"GCC: (Ubuntu 9.4.0-1ubuntu1~20.04) 9.4.0"
 4250              		.section	.note.GNU-stack,"",@progbits
GAS LISTING /tmp/cc9Vwif8.s 			page 22


DEFINED SYMBOLS
                            *ABS*:0000000000000000 ConsumerProducer_C_API_test.cpp
     /tmp/cc9Vwif8.s:16     .text:0000000000000000 _ZL16producerKeyboardPv
     /tmp/cc9Vwif8.s:20     .text:0000000000000000 .L0 
     /tmp/cc9Vwif8.s:22     .text:0000000000000000 .L0 
     /tmp/cc9Vwif8.s:23     .text:0000000000000004 .L0 
     /tmp/cc9Vwif8.s:28     .text:0000000000000014 .L0 
     /tmp/cc9Vwif8.s:29     .text:0000000000000014 .L0 
     /tmp/cc9Vwif8.s:30     .text:0000000000000014 .L0 
     /tmp/cc9Vwif8.s:31     .text:0000000000000014 .L0 
     /tmp/cc9Vwif8.s:33     .text:0000000000000018 .L0 
     /tmp/cc9Vwif8.s:37     .text:000000000000001c .L0 
     /tmp/cc9Vwif8.s:38     .text:000000000000001c .L0 
     /tmp/cc9Vwif8.s:39     .text:000000000000001c .L0 
     /tmp/cc9Vwif8.s:44     .text:000000000000002c .L0 
     /tmp/cc9Vwif8.s:45     .text:000000000000002c .L0 
     /tmp/cc9Vwif8.s:50     .text:0000000000000040 .L0 
     /tmp/cc9Vwif8.s:51     .text:0000000000000040 .L0 
     /tmp/cc9Vwif8.s:55     .text:0000000000000050 .L0 
     /tmp/cc9Vwif8.s:56     .text:0000000000000050 .L0 
     /tmp/cc9Vwif8.s:57     .text:0000000000000050 .L0 
     /tmp/cc9Vwif8.s:62     .text:0000000000000058 .L0 
     /tmp/cc9Vwif8.s:63     .text:0000000000000058 .L0 
     /tmp/cc9Vwif8.s:67     .text:0000000000000060 .L0 
     /tmp/cc9Vwif8.s:68     .text:0000000000000060 .L0 
     /tmp/cc9Vwif8.s:69     .text:0000000000000060 .L0 
     /tmp/cc9Vwif8.s:72     .text:0000000000000068 .L0 
     /tmp/cc9Vwif8.s:75     .text:000000000000006c .L0 
     /tmp/cc9Vwif8.s:78     .text:0000000000000074 .L0 
     /tmp/cc9Vwif8.s:79     .text:0000000000000074 .L0 
     /tmp/cc9Vwif8.s:83     .text:0000000000000080 .L0 
     /tmp/cc9Vwif8.s:84     .text:0000000000000080 .L0 
     /tmp/cc9Vwif8.s:88     .text:0000000000000088 .L0 
     /tmp/cc9Vwif8.s:89     .text:0000000000000088 .L0 
     /tmp/cc9Vwif8.s:91     .text:000000000000008c .L0 
     /tmp/cc9Vwif8.s:95     .text:0000000000000098 .L0 
     /tmp/cc9Vwif8.s:97     .text:000000000000009c .L0 
     /tmp/cc9Vwif8.s:102    .text:00000000000000a4 .L0 
     /tmp/cc9Vwif8.s:103    .text:00000000000000a4 .L0 
     /tmp/cc9Vwif8.s:106    .text:00000000000000b0 .L0 
     /tmp/cc9Vwif8.s:107    .text:00000000000000b0 .L0 
     /tmp/cc9Vwif8.s:114    .text:00000000000000c0 .L0 
     /tmp/cc9Vwif8.s:115    .text:00000000000000c0 .L0 
     /tmp/cc9Vwif8.s:119    .text:00000000000000cc .L0 
     /tmp/cc9Vwif8.s:120    .text:00000000000000d0 .L0 
     /tmp/cc9Vwif8.s:122    .text:00000000000000d4 .L0 
     /tmp/cc9Vwif8.s:123    .text:00000000000000d4 .L0 
     /tmp/cc9Vwif8.s:125    .text:00000000000000d8 .L0 
     /tmp/cc9Vwif8.s:128    .text:00000000000000dc .L0 
     /tmp/cc9Vwif8.s:131    .text:00000000000000e0 .L0 
     /tmp/cc9Vwif8.s:133    .text:00000000000000e4 .L0 
     /tmp/cc9Vwif8.s:143    .text:00000000000000e4 _ZL8producerPv
     /tmp/cc9Vwif8.s:146    .text:00000000000000e4 .L0 
     /tmp/cc9Vwif8.s:148    .text:00000000000000e4 .L0 
     /tmp/cc9Vwif8.s:149    .text:00000000000000e8 .L0 
     /tmp/cc9Vwif8.s:154    .text:00000000000000f8 .L0 
     /tmp/cc9Vwif8.s:155    .text:00000000000000f8 .L0 
GAS LISTING /tmp/cc9Vwif8.s 			page 23


     /tmp/cc9Vwif8.s:156    .text:00000000000000f8 .L0 
     /tmp/cc9Vwif8.s:157    .text:00000000000000f8 .L0 
     /tmp/cc9Vwif8.s:159    .text:00000000000000fc .L0 
     /tmp/cc9Vwif8.s:163    .text:0000000000000100 .L0 
     /tmp/cc9Vwif8.s:164    .text:0000000000000100 .L0 
     /tmp/cc9Vwif8.s:165    .text:0000000000000100 .L0 
     /tmp/cc9Vwif8.s:170    .text:0000000000000110 .L0 
     /tmp/cc9Vwif8.s:171    .text:0000000000000110 .L0 
     /tmp/cc9Vwif8.s:176    .text:0000000000000124 .L0 
     /tmp/cc9Vwif8.s:177    .text:0000000000000124 .L0 
     /tmp/cc9Vwif8.s:181    .text:0000000000000134 .L0 
     /tmp/cc9Vwif8.s:182    .text:0000000000000134 .L0 
     /tmp/cc9Vwif8.s:187    .text:000000000000013c .L0 
     /tmp/cc9Vwif8.s:188    .text:000000000000013c .L0 
     /tmp/cc9Vwif8.s:192    .text:0000000000000144 .L0 
     /tmp/cc9Vwif8.s:193    .text:0000000000000144 .L0 
     /tmp/cc9Vwif8.s:196    .text:0000000000000150 .L0 
     /tmp/cc9Vwif8.s:197    .text:0000000000000150 .L0 
     /tmp/cc9Vwif8.s:199    .text:0000000000000154 .L0 
     /tmp/cc9Vwif8.s:204    .text:0000000000000164 .L0 
     /tmp/cc9Vwif8.s:205    .text:0000000000000164 .L0 
     /tmp/cc9Vwif8.s:209    .text:000000000000016c .L0 
     /tmp/cc9Vwif8.s:210    .text:000000000000016c .L0 
     /tmp/cc9Vwif8.s:212    .text:0000000000000170 .L0 
     /tmp/cc9Vwif8.s:216    .text:000000000000017c .L0 
     /tmp/cc9Vwif8.s:218    .text:0000000000000180 .L0 
     /tmp/cc9Vwif8.s:223    .text:0000000000000188 .L0 
     /tmp/cc9Vwif8.s:224    .text:0000000000000188 .L0 
     /tmp/cc9Vwif8.s:228    .text:0000000000000194 .L0 
     /tmp/cc9Vwif8.s:229    .text:0000000000000198 .L0 
     /tmp/cc9Vwif8.s:231    .text:000000000000019c .L0 
     /tmp/cc9Vwif8.s:232    .text:000000000000019c .L0 
     /tmp/cc9Vwif8.s:234    .text:00000000000001a0 .L0 
     /tmp/cc9Vwif8.s:237    .text:00000000000001a4 .L0 
     /tmp/cc9Vwif8.s:240    .text:00000000000001a8 .L0 
     /tmp/cc9Vwif8.s:242    .text:00000000000001ac .L0 
     /tmp/cc9Vwif8.s:252    .text:00000000000001ac _ZL8consumerPv
     /tmp/cc9Vwif8.s:255    .text:00000000000001ac .L0 
     /tmp/cc9Vwif8.s:257    .text:00000000000001ac .L0 
     /tmp/cc9Vwif8.s:258    .text:00000000000001b0 .L0 
     /tmp/cc9Vwif8.s:264    .text:00000000000001c4 .L0 
     /tmp/cc9Vwif8.s:265    .text:00000000000001c4 .L0 
     /tmp/cc9Vwif8.s:266    .text:00000000000001c4 .L0 
     /tmp/cc9Vwif8.s:267    .text:00000000000001c4 .L0 
     /tmp/cc9Vwif8.s:268    .text:00000000000001c4 .L0 
     /tmp/cc9Vwif8.s:270    .text:00000000000001c8 .L0 
     /tmp/cc9Vwif8.s:274    .text:00000000000001cc .L0 
     /tmp/cc9Vwif8.s:275    .text:00000000000001cc .L0 
     /tmp/cc9Vwif8.s:276    .text:00000000000001cc .L0 
     /tmp/cc9Vwif8.s:281    .text:00000000000001dc .L0 
     /tmp/cc9Vwif8.s:282    .text:00000000000001dc .L0 
     /tmp/cc9Vwif8.s:287    .text:00000000000001f0 .L0 
     /tmp/cc9Vwif8.s:288    .text:00000000000001f0 .L0 
     /tmp/cc9Vwif8.s:292    .text:0000000000000200 .L0 
     /tmp/cc9Vwif8.s:293    .text:0000000000000200 .L0 
     /tmp/cc9Vwif8.s:299    .text:0000000000000208 .L0 
     /tmp/cc9Vwif8.s:300    .text:0000000000000208 .L0 
GAS LISTING /tmp/cc9Vwif8.s 			page 24


     /tmp/cc9Vwif8.s:306    .text:0000000000000214 .L0 
     /tmp/cc9Vwif8.s:307    .text:0000000000000214 .L0 
     /tmp/cc9Vwif8.s:313    .text:0000000000000220 .L0 
     /tmp/cc9Vwif8.s:314    .text:0000000000000220 .L0 
     /tmp/cc9Vwif8.s:318    .text:000000000000022c .L0 
     /tmp/cc9Vwif8.s:319    .text:000000000000022c .L0 
     /tmp/cc9Vwif8.s:323    .text:0000000000000238 .L0 
     /tmp/cc9Vwif8.s:324    .text:0000000000000238 .L0 
     /tmp/cc9Vwif8.s:325    .text:0000000000000238 .L0 
     /tmp/cc9Vwif8.s:329    .text:0000000000000240 .L0 
     /tmp/cc9Vwif8.s:330    .text:0000000000000240 .L0 
     /tmp/cc9Vwif8.s:335    .text:000000000000024c .L0 
     /tmp/cc9Vwif8.s:336    .text:000000000000024c .L0 
     /tmp/cc9Vwif8.s:338    .text:0000000000000250 .L0 
     /tmp/cc9Vwif8.s:341    .text:0000000000000258 .L0 
     /tmp/cc9Vwif8.s:343    .text:000000000000025c .L0 
     /tmp/cc9Vwif8.s:346    .text:0000000000000260 .L0 
     /tmp/cc9Vwif8.s:347    .text:0000000000000260 .L0 
     /tmp/cc9Vwif8.s:351    .text:0000000000000268 .L0 
     /tmp/cc9Vwif8.s:357    .text:0000000000000270 .L0 
     /tmp/cc9Vwif8.s:358    .text:0000000000000270 .L0 
     /tmp/cc9Vwif8.s:362    .text:000000000000027c .L0 
     /tmp/cc9Vwif8.s:363    .text:000000000000027c .L0 
     /tmp/cc9Vwif8.s:364    .text:000000000000027c .L0 
     /tmp/cc9Vwif8.s:371    .text:0000000000000288 .L0 
     /tmp/cc9Vwif8.s:372    .text:0000000000000288 .L0 
     /tmp/cc9Vwif8.s:373    .text:0000000000000288 .L0 
     /tmp/cc9Vwif8.s:377    .text:0000000000000294 .L0 
     /tmp/cc9Vwif8.s:379    .text:0000000000000298 .L0 
     /tmp/cc9Vwif8.s:380    .text:0000000000000298 .L0 
     /tmp/cc9Vwif8.s:384    .text:00000000000002a4 .L0 
     /tmp/cc9Vwif8.s:385    .text:00000000000002a8 .L0 
     /tmp/cc9Vwif8.s:387    .text:00000000000002ac .L0 
     /tmp/cc9Vwif8.s:388    .text:00000000000002ac .L0 
     /tmp/cc9Vwif8.s:390    .text:00000000000002b0 .L0 
     /tmp/cc9Vwif8.s:392    .text:00000000000002b4 .L0 
     /tmp/cc9Vwif8.s:395    .text:00000000000002b8 .L0 
     /tmp/cc9Vwif8.s:398    .text:00000000000002bc .L0 
     /tmp/cc9Vwif8.s:400    .text:00000000000002c0 .L0 
     /tmp/cc9Vwif8.s:429    .text:00000000000002c0 _Z22producerConsumer_C_APIv
     /tmp/cc9Vwif8.s:432    .text:00000000000002c0 .L0 
     /tmp/cc9Vwif8.s:4247   .data.rel.local.DW.ref.__gxx_personality_v0:0000000000000000 DW.ref.__gxx_personality_v0
     /tmp/cc9Vwif8.s:435    .text:00000000000002c0 .L0 
     /tmp/cc9Vwif8.s:436    .text:00000000000002c4 .L0 
     /tmp/cc9Vwif8.s:445    .text:00000000000002e4 .L0 
     /tmp/cc9Vwif8.s:446    .text:00000000000002e4 .L0 
     /tmp/cc9Vwif8.s:447    .text:00000000000002e4 .L0 
     /tmp/cc9Vwif8.s:448    .text:00000000000002e4 .L0 
     /tmp/cc9Vwif8.s:449    .text:00000000000002e4 .L0 
     /tmp/cc9Vwif8.s:450    .text:00000000000002e4 .L0 
     /tmp/cc9Vwif8.s:451    .text:00000000000002e4 .L0 
     /tmp/cc9Vwif8.s:452    .text:00000000000002e4 .L0 
     /tmp/cc9Vwif8.s:454    .text:00000000000002e8 .L0 
     /tmp/cc9Vwif8.s:456    .text:00000000000002e8 .L0 
     /tmp/cc9Vwif8.s:458    .text:00000000000002ec .L0 
     /tmp/cc9Vwif8.s:459    .text:00000000000002ec .L0 
     /tmp/cc9Vwif8.s:460    .text:00000000000002ec .L0 
GAS LISTING /tmp/cc9Vwif8.s 			page 25


     /tmp/cc9Vwif8.s:461    .text:00000000000002ec .L0 
     /tmp/cc9Vwif8.s:466    .text:00000000000002fc .L0 
     /tmp/cc9Vwif8.s:467    .text:00000000000002fc .L0 
     /tmp/cc9Vwif8.s:473    .text:0000000000000310 .L0 
     /tmp/cc9Vwif8.s:474    .text:0000000000000310 .L0 
     /tmp/cc9Vwif8.s:480    .text:0000000000000320 .L0 
     /tmp/cc9Vwif8.s:481    .text:0000000000000320 .L0 
     /tmp/cc9Vwif8.s:485    .text:0000000000000330 .L0 
     /tmp/cc9Vwif8.s:486    .text:0000000000000330 .L0 
     /tmp/cc9Vwif8.s:491    .text:0000000000000340 .L0 
     /tmp/cc9Vwif8.s:492    .text:0000000000000340 .L0 
     /tmp/cc9Vwif8.s:498    .text:0000000000000350 .L0 
     /tmp/cc9Vwif8.s:499    .text:0000000000000350 .L0 
     /tmp/cc9Vwif8.s:503    .text:0000000000000360 .L0 
     /tmp/cc9Vwif8.s:504    .text:0000000000000360 .L0 
     /tmp/cc9Vwif8.s:510    .text:0000000000000374 .L0 
     /tmp/cc9Vwif8.s:511    .text:0000000000000374 .L0 
     /tmp/cc9Vwif8.s:515    .text:0000000000000384 .L0 
     /tmp/cc9Vwif8.s:516    .text:0000000000000384 .L0 
     /tmp/cc9Vwif8.s:522    .text:0000000000000398 .L0 
     /tmp/cc9Vwif8.s:523    .text:0000000000000398 .L0 
     /tmp/cc9Vwif8.s:527    .text:00000000000003a8 .L0 
     /tmp/cc9Vwif8.s:529    .text:00000000000003ac .L0 
     /tmp/cc9Vwif8.s:531    .text:00000000000003b0 .L0 
     /tmp/cc9Vwif8.s:532    .text:00000000000003b0 .L0 
     /tmp/cc9Vwif8.s:545    .text:00000000000003d0 .L0 
     /tmp/cc9Vwif8.s:546    .text:00000000000003d0 .L0 
     /tmp/cc9Vwif8.s:551    .text:00000000000003e0 .L0 
     /tmp/cc9Vwif8.s:554    .text:00000000000003e4 .L0 
     /tmp/cc9Vwif8.s:555    .text:00000000000003e4 .L0 
     /tmp/cc9Vwif8.s:560    .text:00000000000003f4 .L0 
     /tmp/cc9Vwif8.s:565    .text:00000000000003fc .L0 
     /tmp/cc9Vwif8.s:566    .text:00000000000003fc .L0 
     /tmp/cc9Vwif8.s:569    .text:0000000000000408 .L0 
     /tmp/cc9Vwif8.s:570    .text:0000000000000408 .L0 
     /tmp/cc9Vwif8.s:575    .text:000000000000041c .L0 
     /tmp/cc9Vwif8.s:576    .text:000000000000041c .L0 
     /tmp/cc9Vwif8.s:583    .text:0000000000000430 .L0 
     /tmp/cc9Vwif8.s:584    .text:0000000000000430 .L0 
     /tmp/cc9Vwif8.s:585    .text:0000000000000430 .L0 
     /tmp/cc9Vwif8.s:588    .text:0000000000000434 .L0 
     /tmp/cc9Vwif8.s:598    .text:0000000000000450 .L0 
     /tmp/cc9Vwif8.s:599    .text:0000000000000450 .L0 
     /tmp/cc9Vwif8.s:605    .text:0000000000000464 .L0 
     /tmp/cc9Vwif8.s:606    .text:0000000000000464 .L0 
     /tmp/cc9Vwif8.s:608    .text:0000000000000468 .L0 
     /tmp/cc9Vwif8.s:609    .text:0000000000000468 .L0 
     /tmp/cc9Vwif8.s:612    .text:0000000000000474 .L0 
     /tmp/cc9Vwif8.s:613    .text:0000000000000474 .L0 
     /tmp/cc9Vwif8.s:620    .text:000000000000048c .L0 
     /tmp/cc9Vwif8.s:626    .text:0000000000000494 .L0 
     /tmp/cc9Vwif8.s:629    .text:000000000000049c .L0 
     /tmp/cc9Vwif8.s:633    .text:00000000000004a8 .L0 
     /tmp/cc9Vwif8.s:637    .text:00000000000004b4 .L0 
     /tmp/cc9Vwif8.s:641    .text:00000000000004b8 .L0 
     /tmp/cc9Vwif8.s:643    .text:00000000000004bc .L0 
     /tmp/cc9Vwif8.s:644    .text:00000000000004bc .L0 
GAS LISTING /tmp/cc9Vwif8.s 			page 26


     /tmp/cc9Vwif8.s:650    .text:00000000000004d0 .L0 
     /tmp/cc9Vwif8.s:651    .text:00000000000004d0 .L0 
     /tmp/cc9Vwif8.s:653    .text:00000000000004d4 .L0 
     /tmp/cc9Vwif8.s:654    .text:00000000000004d4 .L0 
     /tmp/cc9Vwif8.s:657    .text:00000000000004e0 .L0 
     /tmp/cc9Vwif8.s:658    .text:00000000000004e0 .L0 
     /tmp/cc9Vwif8.s:660    .text:00000000000004e4 .L0 
     /tmp/cc9Vwif8.s:662    .text:00000000000004e8 .L0 
     /tmp/cc9Vwif8.s:669    .text:00000000000004fc .L0 
     /tmp/cc9Vwif8.s:670    .text:00000000000004fc .L0 
     /tmp/cc9Vwif8.s:674    .text:0000000000000504 .L0 
     /tmp/cc9Vwif8.s:678    .text:0000000000000508 .L0 
     /tmp/cc9Vwif8.s:680    .text:000000000000050c .L0 
     /tmp/cc9Vwif8.s:681    .text:000000000000050c .L0 
     /tmp/cc9Vwif8.s:685    .text:000000000000051c .L0 
     /tmp/cc9Vwif8.s:692    .text:0000000000000524 .L0 
     /tmp/cc9Vwif8.s:693    .text:0000000000000524 .L0 
     /tmp/cc9Vwif8.s:697    .text:0000000000000534 .L0 
     /tmp/cc9Vwif8.s:698    .text:0000000000000534 .L0 
     /tmp/cc9Vwif8.s:700    .text:0000000000000538 .L0 
     /tmp/cc9Vwif8.s:711    .text:0000000000000554 .L0 
     /tmp/cc9Vwif8.s:712    .text:0000000000000558 .L0 
     /tmp/cc9Vwif8.s:713    .text:0000000000000558 .L0 
     /tmp/cc9Vwif8.s:715    .text:000000000000055c .L0 
     /tmp/cc9Vwif8.s:717    .text:0000000000000560 .L0 
     /tmp/cc9Vwif8.s:719    .text:0000000000000564 .L0 
     /tmp/cc9Vwif8.s:721    .text:0000000000000568 .L0 
     /tmp/cc9Vwif8.s:724    .text:000000000000056c .L0 
     /tmp/cc9Vwif8.s:726    .text:0000000000000570 .L0 
     /tmp/cc9Vwif8.s:728    .text:0000000000000574 .L0 
     /tmp/cc9Vwif8.s:730    .text:0000000000000578 .L0 
     /tmp/cc9Vwif8.s:732    .text:000000000000057c .L0 
     /tmp/cc9Vwif8.s:736    .text:0000000000000580 .L0 
     /tmp/cc9Vwif8.s:740    .text:0000000000000584 .L0 
     /tmp/cc9Vwif8.s:747    .text:000000000000059c .L0 
     /tmp/cc9Vwif8.s:772    .bss:0000000000000000 .LANCHOR0
     /tmp/cc9Vwif8.s:775    .bss:0000000000000000 _ZL9threadEnd
     /tmp/cc9Vwif8.s:780    .bss:0000000000000008 _ZL10waitForAll
     /tmp/cc9Vwif8.s:792    .text:000000000000059c .L0 
     /tmp/cc9Vwif8.s:8      .rodata.str1.8:0000000000000000 .LC0
     /tmp/cc9Vwif8.s:39     .text:000000000000001c .L0 
     /tmp/cc9Vwif8.s:45     .text:000000000000002c .L0 
     /tmp/cc9Vwif8.s:11     .rodata.str1.8:0000000000000018 .LC1
     /tmp/cc9Vwif8.s:51     .text:0000000000000040 .L0 
     /tmp/cc9Vwif8.s:104    .text:00000000000000a8 .L0 
     /tmp/cc9Vwif8.s:138    .rodata.str1.8:0000000000000020 .LC2
     /tmp/cc9Vwif8.s:165    .text:0000000000000100 .L0 
     /tmp/cc9Vwif8.s:171    .text:0000000000000110 .L0 
     /tmp/cc9Vwif8.s:177    .text:0000000000000124 .L0 
     /tmp/cc9Vwif8.s:193    .text:0000000000000144 .L0 
     /tmp/cc9Vwif8.s:247    .rodata.str1.8:0000000000000030 .LC3
     /tmp/cc9Vwif8.s:276    .text:00000000000001cc .L0 
     /tmp/cc9Vwif8.s:282    .text:00000000000001dc .L0 
     /tmp/cc9Vwif8.s:288    .text:00000000000001f0 .L0 
     /tmp/cc9Vwif8.s:314    .text:0000000000000220 .L0 
     /tmp/cc9Vwif8.s:405    .rodata.str1.8:0000000000000040 .LC4
     /tmp/cc9Vwif8.s:461    .text:00000000000002ec .L0 
GAS LISTING /tmp/cc9Vwif8.s 			page 27


     /tmp/cc9Vwif8.s:408    .rodata.str1.8:0000000000000060 .LC5
     /tmp/cc9Vwif8.s:481    .text:0000000000000320 .L0 
     /tmp/cc9Vwif8.s:411    .rodata.str1.8:0000000000000080 .LC6
     /tmp/cc9Vwif8.s:499    .text:0000000000000350 .L0 
     /tmp/cc9Vwif8.s:414    .rodata.str1.8:0000000000000098 .LC7
     /tmp/cc9Vwif8.s:511    .text:0000000000000374 .L0 
     /tmp/cc9Vwif8.s:417    .rodata.str1.8:00000000000000b0 .LC8
     /tmp/cc9Vwif8.s:523    .text:0000000000000398 .L0 
     /tmp/cc9Vwif8.s:420    .rodata.str1.8:00000000000000b8 .LC9
     /tmp/cc9Vwif8.s:546    .text:00000000000003d0 .L0 
     /tmp/cc9Vwif8.s:423    .rodata.str1.8:00000000000000f8 .LC10
     /tmp/cc9Vwif8.s:555    .text:00000000000003e4 .L0 
     /tmp/cc9Vwif8.s:566    .text:00000000000003fc .L0 
     /tmp/cc9Vwif8.s:571    .text:000000000000040c .L0 
     /tmp/cc9Vwif8.s:609    .text:0000000000000468 .L0 
     /tmp/cc9Vwif8.s:614    .text:0000000000000478 .L0 
     /tmp/cc9Vwif8.s:626    .text:0000000000000494 .L0 
     /tmp/cc9Vwif8.s:654    .text:00000000000004d4 .L0 
     /tmp/cc9Vwif8.s:664    .text:00000000000004f0 .L0 
     /tmp/cc9Vwif8.s:681    .text:000000000000050c .L0 
     /tmp/cc9Vwif8.s:693    .text:0000000000000524 .L0 
     /tmp/cc9Vwif8.s:65     .text:0000000000000060 .L2
     /tmp/cc9Vwif8.s:100    .text:00000000000000a4 .L3
     /tmp/cc9Vwif8.s:60     .text:0000000000000058 .L6
     /tmp/cc9Vwif8.s:190    .text:0000000000000144 .L8
     /tmp/cc9Vwif8.s:221    .text:0000000000000188 .L9
     /tmp/cc9Vwif8.s:185    .text:000000000000013c .L12
     /tmp/cc9Vwif8.s:310    .text:0000000000000220 .L14
     /tmp/cc9Vwif8.s:344    .text:0000000000000260 .L16
     /tmp/cc9Vwif8.s:368    .text:0000000000000288 .L15
     /tmp/cc9Vwif8.s:296    .text:0000000000000208 .L20
     /tmp/cc9Vwif8.s:304    .text:0000000000000214 .L21
     /tmp/cc9Vwif8.s:353    .text:0000000000000270 .L22
     /tmp/cc9Vwif8.s:543    .text:00000000000003d0 .L38
     /tmp/cc9Vwif8.s:552    .text:00000000000003e4 .L39
     /tmp/cc9Vwif8.s:562    .text:00000000000003fc .L40
     /tmp/cc9Vwif8.s:559    .text:00000000000003f4 .L25
     /tmp/cc9Vwif8.s:709    .text:0000000000000554 .L23
     /tmp/cc9Vwif8.s:639    .text:00000000000004b8 .L29
     /tmp/cc9Vwif8.s:666    .text:00000000000004fc .L27
     /tmp/cc9Vwif8.s:624    .text:0000000000000494 .L35
     /tmp/cc9Vwif8.s:627    .text:000000000000049c .L28
     /tmp/cc9Vwif8.s:689    .text:0000000000000524 .L30
     /tmp/cc9Vwif8.s:676    .text:0000000000000508 .L31
     /tmp/cc9Vwif8.s:706    .text:0000000000000550 .L32
     /tmp/cc9Vwif8.s:462    .text:00000000000002f4 .LEHB0
     /tmp/cc9Vwif8.s:430    .text:00000000000002c0 .LFB66
     /tmp/cc9Vwif8.s:535    .text:00000000000003bc .LEHE0
     /tmp/cc9Vwif8.s:538    .text:00000000000003c4 .LEHB1
     /tmp/cc9Vwif8.s:541    .text:00000000000003cc .LEHE1
     /tmp/cc9Vwif8.s:735    .text:0000000000000580 .L36
     /tmp/cc9Vwif8.s:547    .text:00000000000003d8 .LEHB2
     /tmp/cc9Vwif8.s:746    .text:000000000000059c .LEHE2
     /tmp/cc9Vwif8.s:2689   .debug_abbrev:0000000000000000 .Ldebug_abbrev0
     /tmp/cc9Vwif8.s:4165   .debug_str:0000000000000857 .LASF167
     /tmp/cc9Vwif8.s:3927   .debug_str:0000000000000151 .LASF168
     /tmp/cc9Vwif8.s:3985   .debug_str:000000000000034b .LASF169
GAS LISTING /tmp/cc9Vwif8.s 			page 28


     /tmp/cc9Vwif8.s:5      .text:0000000000000000 .Ltext0
     /tmp/cc9Vwif8.s:783    .text:000000000000059c .Letext0
     /tmp/cc9Vwif8.s:3883   .debug_line:0000000000000000 .Ldebug_line0
     /tmp/cc9Vwif8.s:4007   .debug_str:0000000000000426 .LASF0
     /tmp/cc9Vwif8.s:4025   .debug_str:00000000000004b7 .LASF1
     /tmp/cc9Vwif8.s:4103   .debug_str:00000000000006e5 .LASF2
     /tmp/cc9Vwif8.s:4111   .debug_str:000000000000071f .LASF4
     /tmp/cc9Vwif8.s:4015   .debug_str:000000000000045f .LASF3
     /tmp/cc9Vwif8.s:3899   .debug_str:000000000000008c .LASF5
     /tmp/cc9Vwif8.s:4083   .debug_str:000000000000065b .LASF6
     /tmp/cc9Vwif8.s:4077   .debug_str:000000000000062f .LASF7
     /tmp/cc9Vwif8.s:4021   .debug_str:000000000000049b .LASF8
     /tmp/cc9Vwif8.s:3987   .debug_str:0000000000000364 .LASF9
     /tmp/cc9Vwif8.s:3993   .debug_str:0000000000000398 .LASF10
     /tmp/cc9Vwif8.s:3971   .debug_str:00000000000002e4 .LASF11
     /tmp/cc9Vwif8.s:3979   .debug_str:0000000000000329 .LASF12
     /tmp/cc9Vwif8.s:3941   .debug_str:00000000000001ed .LASF13
     /tmp/cc9Vwif8.s:3925   .debug_str:0000000000000141 .LASF14
     /tmp/cc9Vwif8.s:4143   .debug_str:00000000000007d3 .LASF15
     /tmp/cc9Vwif8.s:3963   .debug_str:000000000000029d .LASF16
     /tmp/cc9Vwif8.s:4135   .debug_str:0000000000000798 .LASF17
     /tmp/cc9Vwif8.s:4201   .debug_str:0000000000000a02 .LASF35
     /tmp/cc9Vwif8.s:4185   .debug_str:000000000000099f .LASF170
     /tmp/cc9Vwif8.s:4139   .debug_str:00000000000007c1 .LASF18
     /tmp/cc9Vwif8.s:4059   .debug_str:00000000000005ab .LASF19
     /tmp/cc9Vwif8.s:4053   .debug_str:0000000000000584 .LASF20
     /tmp/cc9Vwif8.s:4137   .debug_str:00000000000007ae .LASF22
     /tmp/cc9Vwif8.s:3975   .debug_str:000000000000030c .LASF27
     /tmp/cc9Vwif8.s:4107   .debug_str:0000000000000700 .LASF171
     /tmp/cc9Vwif8.s:4099   .debug_str:00000000000006be .LASF172
     /tmp/cc9Vwif8.s:4023   .debug_str:00000000000004ae .LASF21
     /tmp/cc9Vwif8.s:3917   .debug_str:0000000000000100 .LASF23
     /tmp/cc9Vwif8.s:4035   .debug_str:0000000000000500 .LASF24
     /tmp/cc9Vwif8.s:3965   .debug_str:00000000000002b3 .LASF25
     /tmp/cc9Vwif8.s:4075   .debug_str:0000000000000623 .LASF26
     /tmp/cc9Vwif8.s:4203   .debug_str:0000000000000a0c .LASF28
     /tmp/cc9Vwif8.s:4237   .debug_str:0000000000000b1a .LASF29
     /tmp/cc9Vwif8.s:4223   .debug_str:0000000000000a95 .LASF30
     /tmp/cc9Vwif8.s:4125   .debug_str:000000000000076c .LASF31
     /tmp/cc9Vwif8.s:4019   .debug_str:000000000000047e .LASF32
     /tmp/cc9Vwif8.s:4091   .debug_str:000000000000069d .LASF33
     /tmp/cc9Vwif8.s:3893   .debug_str:000000000000003e .LASF34
     /tmp/cc9Vwif8.s:4153   .debug_str:0000000000000813 .LASF123
     /tmp/cc9Vwif8.s:4069   .debug_str:0000000000000603 .LASF36
     /tmp/cc9Vwif8.s:3889   .debug_str:0000000000000029 .LASF37
     /tmp/cc9Vwif8.s:4131   .debug_str:0000000000000789 .LASF38
     /tmp/cc9Vwif8.s:4175   .debug_str:000000000000095b .LASF39
     /tmp/cc9Vwif8.s:4133   .debug_str:000000000000078f .LASF40
     /tmp/cc9Vwif8.s:4065   .debug_str:00000000000005da .LASF41
     /tmp/cc9Vwif8.s:4169   .debug_str:000000000000092b .LASF42
     /tmp/cc9Vwif8.s:4017   .debug_str:0000000000000471 .LASF43
     /tmp/cc9Vwif8.s:4029   .debug_str:00000000000004d4 .LASF44
     /tmp/cc9Vwif8.s:3947   .debug_str:000000000000023a .LASF173
     /tmp/cc9Vwif8.s:3895   .debug_str:0000000000000058 .LASF174
     /tmp/cc9Vwif8.s:4087   .debug_str:000000000000067e .LASF175
     /tmp/cc9Vwif8.s:4229   .debug_str:0000000000000adf .LASF45
     /tmp/cc9Vwif8.s:3989   .debug_str:0000000000000374 .LASF46
GAS LISTING /tmp/cc9Vwif8.s 			page 29


     /tmp/cc9Vwif8.s:4041   .debug_str:0000000000000528 .LASF47
     /tmp/cc9Vwif8.s:3983   .debug_str:000000000000033f .LASF48
     /tmp/cc9Vwif8.s:3891   .debug_str:000000000000002e .LASF49
     /tmp/cc9Vwif8.s:4037   .debug_str:0000000000000508 .LASF51
     /tmp/cc9Vwif8.s:4225   .debug_str:0000000000000ab0 .LASF50
     /tmp/cc9Vwif8.s:4105   .debug_str:00000000000006f3 .LASF52
     /tmp/cc9Vwif8.s:4141   .debug_str:00000000000007c6 .LASF53
     /tmp/cc9Vwif8.s:4171   .debug_str:0000000000000935 .LASF54
     /tmp/cc9Vwif8.s:4155   .debug_str:000000000000081b .LASF55
     /tmp/cc9Vwif8.s:4057   .debug_str:0000000000000594 .LASF56
     /tmp/cc9Vwif8.s:3909   .debug_str:00000000000000c4 .LASF57
     /tmp/cc9Vwif8.s:4179   .debug_str:0000000000000972 .LASF58
     /tmp/cc9Vwif8.s:4211   .debug_str:0000000000000a51 .LASF59
     /tmp/cc9Vwif8.s:3921   .debug_str:0000000000000123 .LASF60
     /tmp/cc9Vwif8.s:4157   .debug_str:0000000000000826 .LASF61
     /tmp/cc9Vwif8.s:3935   .debug_str:00000000000001b0 .LASF62
     /tmp/cc9Vwif8.s:4031   .debug_str:00000000000004da .LASF63
     /tmp/cc9Vwif8.s:4189   .debug_str:00000000000009b5 .LASF64
     /tmp/cc9Vwif8.s:4119   .debug_str:0000000000000744 .LASF77
     /tmp/cc9Vwif8.s:4081   .debug_str:000000000000064b .LASF65
     /tmp/cc9Vwif8.s:4005   .debug_str:000000000000040b .LASF66
     /tmp/cc9Vwif8.s:4235   .debug_str:0000000000000b0a .LASF67
     /tmp/cc9Vwif8.s:4227   .debug_str:0000000000000ac3 .LASF68
     /tmp/cc9Vwif8.s:3961   .debug_str:0000000000000294 .LASF69
     /tmp/cc9Vwif8.s:4193   .debug_str:00000000000009d6 .LASF70
     /tmp/cc9Vwif8.s:4055   .debug_str:0000000000000589 .LASF71
     /tmp/cc9Vwif8.s:3953   .debug_str:0000000000000266 .LASF72
     /tmp/cc9Vwif8.s:3955   .debug_str:000000000000027d .LASF73
     /tmp/cc9Vwif8.s:3931   .debug_str:0000000000000182 .LASF75
     /tmp/cc9Vwif8.s:3915   .debug_str:00000000000000f2 .LASF74
     /tmp/cc9Vwif8.s:4033   .debug_str:00000000000004e7 .LASF76
     /tmp/cc9Vwif8.s:4163   .debug_str:000000000000084f .LASF78
     /tmp/cc9Vwif8.s:3919   .debug_str:000000000000011d .LASF79
     /tmp/cc9Vwif8.s:4167   .debug_str:000000000000091b .LASF80
     /tmp/cc9Vwif8.s:4113   .debug_str:0000000000000726 .LASF81
     /tmp/cc9Vwif8.s:3897   .debug_str:0000000000000080 .LASF82
     /tmp/cc9Vwif8.s:4095   .debug_str:00000000000006b0 .LASF83
     /tmp/cc9Vwif8.s:4199   .debug_str:00000000000009f9 .LASF84
     /tmp/cc9Vwif8.s:3913   .debug_str:00000000000000e7 .LASF85
     /tmp/cc9Vwif8.s:4001   .debug_str:00000000000003e9 .LASF86
     /tmp/cc9Vwif8.s:4205   .debug_str:0000000000000a2a .LASF87
     /tmp/cc9Vwif8.s:3949   .debug_str:0000000000000248 .LASF88
     /tmp/cc9Vwif8.s:3939   .debug_str:00000000000001d9 .LASF89
     /tmp/cc9Vwif8.s:3885   .debug_str:0000000000000000 .LASF90
     /tmp/cc9Vwif8.s:4109   .debug_str:000000000000070a .LASF91
     /tmp/cc9Vwif8.s:3887   .debug_str:0000000000000015 .LASF92
     /tmp/cc9Vwif8.s:4101   .debug_str:00000000000006d5 .LASF93
     /tmp/cc9Vwif8.s:3945   .debug_str:0000000000000217 .LASF94
     /tmp/cc9Vwif8.s:3923   .debug_str:0000000000000138 .LASF95
     /tmp/cc9Vwif8.s:3995   .debug_str:00000000000003a6 .LASF96
     /tmp/cc9Vwif8.s:3957   .debug_str:0000000000000286 .LASF97
     /tmp/cc9Vwif8.s:4209   .debug_str:0000000000000a3a .LASF98
     /tmp/cc9Vwif8.s:4147   .debug_str:00000000000007e8 .LASF99
     /tmp/cc9Vwif8.s:3973   .debug_str:00000000000002f3 .LASF100
     /tmp/cc9Vwif8.s:3903   .debug_str:000000000000009f .LASF101
     /tmp/cc9Vwif8.s:4013   .debug_str:0000000000000447 .LASF102
     /tmp/cc9Vwif8.s:4073   .debug_str:0000000000000619 .LASF103
GAS LISTING /tmp/cc9Vwif8.s 			page 30


     /tmp/cc9Vwif8.s:4085   .debug_str:0000000000000662 .LASF104
     /tmp/cc9Vwif8.s:4151   .debug_str:000000000000080b .LASF105
     /tmp/cc9Vwif8.s:3905   .debug_str:00000000000000a5 .LASF106
     /tmp/cc9Vwif8.s:3959   .debug_str:000000000000028b .LASF107
     /tmp/cc9Vwif8.s:3997   .debug_str:00000000000003c2 .LASF108
     /tmp/cc9Vwif8.s:4217   .debug_str:0000000000000a74 .LASF109
     /tmp/cc9Vwif8.s:4123   .debug_str:0000000000000765 .LASF110
     /tmp/cc9Vwif8.s:3981   .debug_str:0000000000000338 .LASF111
     /tmp/cc9Vwif8.s:4177   .debug_str:0000000000000963 .LASF112
     /tmp/cc9Vwif8.s:4045   .debug_str:000000000000053d .LASF113
     /tmp/cc9Vwif8.s:4027   .debug_str:00000000000004ca .LASF114
     /tmp/cc9Vwif8.s:3951   .debug_str:000000000000025c .LASF115
     /tmp/cc9Vwif8.s:3907   .debug_str:00000000000000bf .LASF116
     /tmp/cc9Vwif8.s:4213   .debug_str:0000000000000a5b .LASF117
     /tmp/cc9Vwif8.s:4191   .debug_str:00000000000009ce .LASF118
     /tmp/cc9Vwif8.s:4181   .debug_str:0000000000000989 .LASF119
     /tmp/cc9Vwif8.s:4071   .debug_str:0000000000000608 .LASF176
     /tmp/cc9Vwif8.s:4115   .debug_str:000000000000072b .LASF177
     /tmp/cc9Vwif8.s:4183   .debug_str:0000000000000998 .LASF120
     /tmp/cc9Vwif8.s:4239   .debug_str:0000000000000b24 .LASF121
     /tmp/cc9Vwif8.s:4047   .debug_str:000000000000054b .LASF122
     /tmp/cc9Vwif8.s:3929   .debug_str:0000000000000176 .LASF124
     /tmp/cc9Vwif8.s:4093   .debug_str:00000000000006a6 .LASF125
     /tmp/cc9Vwif8.s:3911   .debug_str:00000000000000d0 .LASF126
     /tmp/cc9Vwif8.s:4003   .debug_str:00000000000003ef .LASF127
     /tmp/cc9Vwif8.s:748    .text:000000000000059c .LFE66
     /tmp/cc9Vwif8.s:3967   .debug_str:00000000000002cf .LASF128
     /tmp/cc9Vwif8.s:3585   .debug_loc:0000000000000000 .LLST14
     /tmp/cc9Vwif8.s:4215   .debug_str:0000000000000a6a .LASF129
     /tmp/cc9Vwif8.s:3596   .debug_loc:0000000000000036 .LLST15
     /tmp/cc9Vwif8.s:3607   .debug_loc:000000000000006c .LLST16
     /tmp/cc9Vwif8.s:4117   .debug_str:000000000000073c .LASF130
     /tmp/cc9Vwif8.s:3614   .debug_loc:000000000000008f .LLST17
     /tmp/cc9Vwif8.s:4009   .debug_str:0000000000000433 .LASF131
     /tmp/cc9Vwif8.s:4173   .debug_str:0000000000000956 .LASF132
     /tmp/cc9Vwif8.s:3627   .debug_loc:00000000000000c7 .LLST18
     /tmp/cc9Vwif8.s:618    .text:000000000000048c .LBB5
     /tmp/cc9Vwif8.s:667    .text:00000000000004fc .LBE5
     /tmp/cc9Vwif8.s:3635   .debug_loc:00000000000000eb .LLST19
     /tmp/cc9Vwif8.s:635    .text:00000000000004b4 .LVL81
     /tmp/cc9Vwif8.s:672    .text:0000000000000504 .LBB6
     /tmp/cc9Vwif8.s:690    .text:0000000000000524 .LBE6
     /tmp/cc9Vwif8.s:3642   .debug_loc:000000000000010e .LLST20
     /tmp/cc9Vwif8.s:683    .text:000000000000051c .LVL85
     /tmp/cc9Vwif8.s:464    .text:00000000000002fc .LVL55
     /tmp/cc9Vwif8.s:471    .text:0000000000000310 .LVL56
     /tmp/cc9Vwif8.s:476    .text:000000000000031c .LVL57
     /tmp/cc9Vwif8.s:483    .text:0000000000000330 .LVL59
     /tmp/cc9Vwif8.s:489    .text:0000000000000340 .LVL60
     /tmp/cc9Vwif8.s:494    .text:000000000000034c .LVL61
     /tmp/cc9Vwif8.s:501    .text:0000000000000360 .LVL63
     /tmp/cc9Vwif8.s:508    .text:0000000000000374 .LVL64
     /tmp/cc9Vwif8.s:513    .text:0000000000000384 .LVL65
     /tmp/cc9Vwif8.s:520    .text:0000000000000398 .LVL66
     /tmp/cc9Vwif8.s:525    .text:00000000000003a8 .LVL67
     /tmp/cc9Vwif8.s:534    .text:00000000000003bc .LVL68
     /tmp/cc9Vwif8.s:540    .text:00000000000003cc .LVL69
GAS LISTING /tmp/cc9Vwif8.s 			page 31


     /tmp/cc9Vwif8.s:549    .text:00000000000003e0 .LVL70
     /tmp/cc9Vwif8.s:557    .text:00000000000003f4 .LVL71
     /tmp/cc9Vwif8.s:573    .text:000000000000041c .LVL73
     /tmp/cc9Vwif8.s:617    .text:000000000000048c .LVL78
     /tmp/cc9Vwif8.s:671    .text:0000000000000504 .LVL83
     /tmp/cc9Vwif8.s:695    .text:0000000000000534 .LVL88
     /tmp/cc9Vwif8.s:702    .text:0000000000000544 .LVL89
     /tmp/cc9Vwif8.s:705    .text:0000000000000550 .LVL90
     /tmp/cc9Vwif8.s:742    .text:0000000000000590 .LVL95
     /tmp/cc9Vwif8.s:745    .text:000000000000059c .LVL96
     /tmp/cc9Vwif8.s:4159   .debug_str:0000000000000831 .LASF133
     /tmp/cc9Vwif8.s:4207   .debug_str:0000000000000a31 .LASF134
     /tmp/cc9Vwif8.s:253    .text:00000000000001ac .LFB65
     /tmp/cc9Vwif8.s:401    .text:00000000000002c0 .LFE65
     /tmp/cc9Vwif8.s:3653   .debug_loc:0000000000000144 .LLST7
     /tmp/cc9Vwif8.s:3671   .debug_loc:0000000000000190 .LLST8
     /tmp/cc9Vwif8.s:3689   .debug_loc:00000000000001dc .LLST9
     /tmp/cc9Vwif8.s:3875   .debug_ranges:0000000000000000 .Ldebug_ranges0
     /tmp/cc9Vwif8.s:3713   .debug_loc:000000000000024c .LLST10
     /tmp/cc9Vwif8.s:301    .text:0000000000000210 .LVL40
     /tmp/cc9Vwif8.s:309    .text:0000000000000220 .LVL42
     /tmp/cc9Vwif8.s:321    .text:0000000000000238 .LVL43
     /tmp/cc9Vwif8.s:333    .text:000000000000024c .LVL46
     /tmp/cc9Vwif8.s:355    .text:0000000000000270 .LBB4
     /tmp/cc9Vwif8.s:369    .text:0000000000000288 .LBE4
     /tmp/cc9Vwif8.s:3720   .debug_loc:000000000000026f .LLST11
     /tmp/cc9Vwif8.s:360    .text:000000000000027c .LVL48
     /tmp/cc9Vwif8.s:367    .text:0000000000000288 .LVL50
     /tmp/cc9Vwif8.s:279    .text:00000000000001dc .LVL36
     /tmp/cc9Vwif8.s:285    .text:00000000000001f0 .LVL37
     /tmp/cc9Vwif8.s:290    .text:0000000000000200 .LVL38
     /tmp/cc9Vwif8.s:375    .text:0000000000000294 .LVL51
     /tmp/cc9Vwif8.s:382    .text:00000000000002a4 .LVL52
     /tmp/cc9Vwif8.s:4127   .debug_str:0000000000000777 .LASF135
     /tmp/cc9Vwif8.s:144    .text:00000000000000e4 .LFB64
     /tmp/cc9Vwif8.s:243    .text:00000000000001ac .LFE64
     /tmp/cc9Vwif8.s:3727   .debug_loc:0000000000000292 .LLST4
     /tmp/cc9Vwif8.s:3745   .debug_loc:00000000000002de .LLST5
     /tmp/cc9Vwif8.s:3763   .debug_loc:000000000000032a .LLST6
     /tmp/cc9Vwif8.s:168    .text:0000000000000110 .LVL22
     /tmp/cc9Vwif8.s:174    .text:0000000000000124 .LVL23
     /tmp/cc9Vwif8.s:179    .text:0000000000000134 .LVL24
     /tmp/cc9Vwif8.s:189    .text:0000000000000144 .LVL26
     /tmp/cc9Vwif8.s:202    .text:0000000000000164 .LVL27
     /tmp/cc9Vwif8.s:226    .text:0000000000000194 .LVL30
     /tmp/cc9Vwif8.s:4187   .debug_str:00000000000009a4 .LASF136
     /tmp/cc9Vwif8.s:17     .text:0000000000000000 .LFB63
     /tmp/cc9Vwif8.s:134    .text:00000000000000e4 .LFE63
     /tmp/cc9Vwif8.s:3787   .debug_loc:000000000000039a .LLST0
     /tmp/cc9Vwif8.s:3805   .debug_loc:00000000000003e6 .LLST1
     /tmp/cc9Vwif8.s:3823   .debug_loc:0000000000000432 .LLST2
     /tmp/cc9Vwif8.s:3838   .debug_loc:000000000000047b .LLST3
     /tmp/cc9Vwif8.s:42     .text:000000000000002c .LVL3
     /tmp/cc9Vwif8.s:48     .text:0000000000000040 .LVL4
     /tmp/cc9Vwif8.s:53     .text:0000000000000050 .LVL5
     /tmp/cc9Vwif8.s:64     .text:0000000000000060 .LVL7
     /tmp/cc9Vwif8.s:70     .text:0000000000000068 .LVL8
GAS LISTING /tmp/cc9Vwif8.s 			page 32


     /tmp/cc9Vwif8.s:81     .text:0000000000000080 .LVL10
     /tmp/cc9Vwif8.s:112    .text:00000000000000c0 .LVL15
     /tmp/cc9Vwif8.s:117    .text:00000000000000cc .LVL16
     /tmp/cc9Vwif8.s:4067   .debug_str:00000000000005e2 .LASF137
     /tmp/cc9Vwif8.s:4231   .debug_str:0000000000000aec .LASF139
     /tmp/cc9Vwif8.s:4051   .debug_str:000000000000056b .LASF138
     /tmp/cc9Vwif8.s:4129   .debug_str:0000000000000780 .LASF140
     /tmp/cc9Vwif8.s:3937   .debug_str:00000000000001c6 .LASF141
     /tmp/cc9Vwif8.s:4219   .debug_str:0000000000000a7a .LASF142
     /tmp/cc9Vwif8.s:4121   .debug_str:0000000000000755 .LASF143
     /tmp/cc9Vwif8.s:4061   .debug_str:00000000000005b0 .LASF144
     /tmp/cc9Vwif8.s:4039   .debug_str:0000000000000515 .LASF145
     /tmp/cc9Vwif8.s:3901   .debug_str:0000000000000093 .LASF146
     /tmp/cc9Vwif8.s:3969   .debug_str:00000000000002d5 .LASF147
     /tmp/cc9Vwif8.s:4079   .debug_str:0000000000000642 .LASF148
     /tmp/cc9Vwif8.s:3977   .debug_str:0000000000000323 .LASF155
     /tmp/cc9Vwif8.s:3933   .debug_str:0000000000000195 .LASF149
     /tmp/cc9Vwif8.s:4097   .debug_str:00000000000006b5 .LASF150
     /tmp/cc9Vwif8.s:4049   .debug_str:0000000000000556 .LASF151
     /tmp/cc9Vwif8.s:4233   .debug_str:0000000000000afa .LASF152
     /tmp/cc9Vwif8.s:3943   .debug_str:00000000000001fd .LASF153
     /tmp/cc9Vwif8.s:4089   .debug_str:0000000000000693 .LASF154
     /tmp/cc9Vwif8.s:4197   .debug_str:00000000000009f2 .LASF156
     /tmp/cc9Vwif8.s:4221   .debug_str:0000000000000a86 .LASF157
     /tmp/cc9Vwif8.s:3991   .debug_str:0000000000000380 .LASF158
     /tmp/cc9Vwif8.s:4145   .debug_str:00000000000007df .LASF159
     /tmp/cc9Vwif8.s:4043   .debug_str:0000000000000538 .LASF160
     /tmp/cc9Vwif8.s:4063   .debug_str:00000000000005ba .LASF161
     /tmp/cc9Vwif8.s:4161   .debug_str:0000000000000836 .LASF162
     /tmp/cc9Vwif8.s:4149   .debug_str:00000000000007ef .LASF163
     /tmp/cc9Vwif8.s:3999   .debug_str:00000000000003de .LASF164
     /tmp/cc9Vwif8.s:4195   .debug_str:00000000000009e9 .LASF165
     /tmp/cc9Vwif8.s:4011   .debug_str:0000000000000442 .LASF166
     /tmp/cc9Vwif8.s:496    .text:0000000000000350 .LVL62
     /tmp/cc9Vwif8.s:621    .text:0000000000000490 .LVL79
     /tmp/cc9Vwif8.s:734    .text:0000000000000580 .LVL93
     /tmp/cc9Vwif8.s:738    .text:0000000000000584 .LVL94
     /tmp/cc9Vwif8.s:478    .text:0000000000000320 .LVL58
     /tmp/cc9Vwif8.s:722    .text:0000000000000568 .LVL92
     /tmp/cc9Vwif8.s:563    .text:00000000000003fc .LVL72
     /tmp/cc9Vwif8.s:708    .text:0000000000000554 .LVL91
     /tmp/cc9Vwif8.s:581    .text:0000000000000430 .LVL74
     /tmp/cc9Vwif8.s:594    .text:000000000000044c .LVL76
     /tmp/cc9Vwif8.s:596    .text:0000000000000450 .LVL77
     /tmp/cc9Vwif8.s:623    .text:0000000000000494 .LVL80
     /tmp/cc9Vwif8.s:675    .text:0000000000000508 .LVL84
     /tmp/cc9Vwif8.s:686    .text:0000000000000520 .LVL86
     /tmp/cc9Vwif8.s:688    .text:0000000000000524 .LVL87
     /tmp/cc9Vwif8.s:256    .text:00000000000001ac .LVL33
     /tmp/cc9Vwif8.s:277    .text:00000000000001d4 .LVL35
     /tmp/cc9Vwif8.s:393    .text:00000000000002b4 .LVL53
     /tmp/cc9Vwif8.s:273    .text:00000000000001cc .LVL34
     /tmp/cc9Vwif8.s:295    .text:0000000000000208 .LVL39
     /tmp/cc9Vwif8.s:303    .text:0000000000000214 .LVL41
     /tmp/cc9Vwif8.s:327    .text:0000000000000240 .LVL44
     /tmp/cc9Vwif8.s:349    .text:0000000000000268 .LVL47
     /tmp/cc9Vwif8.s:396    .text:00000000000002b8 .LVL54
GAS LISTING /tmp/cc9Vwif8.s 			page 33


     /tmp/cc9Vwif8.s:331    .text:0000000000000244 .LVL45
     /tmp/cc9Vwif8.s:365    .text:0000000000000280 .LVL49
     /tmp/cc9Vwif8.s:147    .text:00000000000000e4 .LVL19
     /tmp/cc9Vwif8.s:166    .text:0000000000000108 .LVL21
     /tmp/cc9Vwif8.s:235    .text:00000000000001a0 .LVL31
     /tmp/cc9Vwif8.s:162    .text:0000000000000100 .LVL20
     /tmp/cc9Vwif8.s:184    .text:000000000000013c .LVL25
     /tmp/cc9Vwif8.s:207    .text:000000000000016c .LVL28
     /tmp/cc9Vwif8.s:220    .text:0000000000000188 .LVL29
     /tmp/cc9Vwif8.s:238    .text:00000000000001a4 .LVL32
     /tmp/cc9Vwif8.s:21     .text:0000000000000000 .LVL0
     /tmp/cc9Vwif8.s:40     .text:0000000000000024 .LVL2
     /tmp/cc9Vwif8.s:126    .text:00000000000000d8 .LVL17
     /tmp/cc9Vwif8.s:36     .text:000000000000001c .LVL1
     /tmp/cc9Vwif8.s:73     .text:000000000000006c .LVL9
     /tmp/cc9Vwif8.s:99     .text:00000000000000a4 .LVL12
     /tmp/cc9Vwif8.s:108    .text:00000000000000b4 .LVL13
     /tmp/cc9Vwif8.s:110    .text:00000000000000b8 .LVL14
     /tmp/cc9Vwif8.s:59     .text:0000000000000058 .LVL6
     /tmp/cc9Vwif8.s:86     .text:0000000000000088 .LVL11
     /tmp/cc9Vwif8.s:129    .text:00000000000000dc .LVL18
     /tmp/cc9Vwif8.s:793    .debug_info:0000000000000000 .Ldebug_info0
     /tmp/cc9Vwif8.s:297    .text:0000000000000208 .LBB2
     /tmp/cc9Vwif8.s:311    .text:0000000000000220 .LBE2
     /tmp/cc9Vwif8.s:316    .text:000000000000022c .LBB3
     /tmp/cc9Vwif8.s:354    .text:0000000000000270 .LBE3
     /tmp/cc9Vwif8.s:751    .gcc_except_table:0000000000000000 .LLSDA66

UNDEFINED SYMBOLS
_Z11printStringPKc
_ZN3TCB7runningE
_Z24print_char_pointer_valuePKc
_Z15thread_dispatchv
_Z4getcv
_ZN6Buffer3putEi
_Z10sem_signalP10_Semaphore
_Z4putcc
_ZN6Buffer3getEv
_ZN6Buffer6getCntEv
_Z9getStringPci
_Z11stringToIntPKc
_Z8printIntiii
_Znwm
_ZN6BufferC1Ei
_ZN6Buffer4peraE
_Z8sem_openPP10_Semaphorej
_Z13thread_createPP3TCBPFvPvES2_
_Z8sem_waitP10_Semaphore
_Z9sem_closeP10_Semaphore
_ZN6BufferD1Ev
_ZdlPv
_Unwind_Resume
__gxx_personality_v0
