GAS LISTING /tmp/ccFYLO0M.s 			page 1


   1              		.file	"printing.cpp"
   2              		.option pic
   3              		.option norelax
   4              		.text
   5              	.Ltext0:
   6              		.align	2
   7              		.globl	_Z11printStringPKc
   9              	_Z11printStringPKc:
  10              	.LFB63:
  11              		.file 1 "test/printing.cpp"
   1:test/printing.cpp **** //
   2:test/printing.cpp **** // Created by os on 5/18/22.
   3:test/printing.cpp **** //
   4:test/printing.cpp **** 
   5:test/printing.cpp **** #include "printing.hpp"
   6:test/printing.cpp **** 
   7:test/printing.cpp **** uint64 lockPrint = 0;
   8:test/printing.cpp **** 
   9:test/printing.cpp **** #define LOCK() while(copy_and_swap(lockPrint, 0, 1)) thread_dispatch()
  10:test/printing.cpp **** #define UNLOCK() while(copy_and_swap(lockPrint, 1, 0))
  11:test/printing.cpp **** 
  12:test/printing.cpp **** void printString(char const *string)
  13:test/printing.cpp **** {
  12              		.loc 1 13 1
  13              		.cfi_startproc
  14              	.LVL0:
  15 0000 130101FE 		addi	sp,sp,-32
  16              		.cfi_def_cfa_offset 32
  17 0004 233C1100 		sd	ra,24(sp)
  18 0008 23388100 		sd	s0,16(sp)
  19 000c 23349100 		sd	s1,8(sp)
  20              		.cfi_offset 1, -8
  21              		.cfi_offset 8, -16
  22              		.cfi_offset 9, -24
  23 0010 13040102 		addi	s0,sp,32
  24              		.cfi_def_cfa 8, 0
  25 0014 93040500 		mv	s1,a0
  26              	.LVL1:
  27              	.L3:
  14:test/printing.cpp ****     LOCK();
  28              		.loc 1 14 5 discriminator 2
  29              		.loc 1 14 5 discriminator 2
  30 0018 13061000 		li	a2,1
  31 001c 93050000 		li	a1,0
  32 0020 17050000 		lla	a0,.LANCHOR0
  32      13050500 
  33 0028 97000000 		call	copy_and_swap@plt
  33      E7800000 
  34              	.LVL2:
  35 0030 63080500 		beqz	a0,.L2
  36              		.loc 1 14 5 discriminator 1
  37 0034 97000000 		call	_Z15thread_dispatchv@plt
  37      E7800000 
  38              	.LVL3:
  39 003c 6FF0DFFD 		j	.L3
  40              	.L2:
  15:test/printing.cpp ****     while (*string != '\0')
GAS LISTING /tmp/ccFYLO0M.s 			page 2


  41              		.loc 1 15 5
  42              		.loc 1 15 20
  43              		.loc 1 15 12 is_stmt 0
  44 0040 03C50400 		lbu	a0,0(s1)
  45              		.loc 1 15 20
  46 0044 630A0500 		beqz	a0,.L4
  16:test/printing.cpp ****     {
  17:test/printing.cpp ****         putc(*string);
  47              		.loc 1 17 9 is_stmt 1
  48              		.loc 1 17 13 is_stmt 0
  49 0048 97000000 		call	_Z4putcc@plt
  49      E7800000 
  50              	.LVL4:
  18:test/printing.cpp ****         string++;
  51              		.loc 1 18 9 is_stmt 1
  52              		.loc 1 18 15 is_stmt 0
  53 0050 93841400 		addi	s1,s1,1
  54              	.LVL5:
  15:test/printing.cpp ****     while (*string != '\0')
  55              		.loc 1 15 5
  56 0054 6FF0DFFE 		j	.L2
  57              	.L4:
  19:test/printing.cpp ****     }
  20:test/printing.cpp ****     UNLOCK();
  58              		.loc 1 20 5 is_stmt 1
  59              		.loc 1 20 5
  60 0058 13060000 		li	a2,0
  61 005c 93051000 		li	a1,1
  62 0060 17050000 		lla	a0,.LANCHOR0
  62      13050500 
  63 0068 97000000 		call	copy_and_swap@plt
  63      E7800000 
  64              	.LVL6:
  65 0070 E31405FE 		bnez	a0,.L4
  21:test/printing.cpp **** }
  66              		.loc 1 21 1 is_stmt 0
  67 0074 83308101 		ld	ra,24(sp)
  68              		.cfi_restore 1
  69 0078 03340101 		ld	s0,16(sp)
  70              		.cfi_restore 8
  71              		.cfi_def_cfa 2, 32
  72 007c 83348100 		ld	s1,8(sp)
  73              		.cfi_restore 9
  74              	.LVL7:
  75 0080 13010102 		addi	sp,sp,32
  76              		.cfi_def_cfa_offset 0
  77 0084 67800000 		jr	ra
  78              		.cfi_endproc
  79              	.LFE63:
  81              		.align	2
  82              		.globl	_Z9getStringPci
  84              	_Z9getStringPci:
  85              	.LFB64:
  22:test/printing.cpp **** 
  23:test/printing.cpp **** char* getString(char *buf, int max) {
  86              		.loc 1 23 37 is_stmt 1
  87              		.cfi_startproc
GAS LISTING /tmp/ccFYLO0M.s 			page 3


  88              	.LVL8:
  89 0088 130101FD 		addi	sp,sp,-48
  90              		.cfi_def_cfa_offset 48
  91 008c 23341102 		sd	ra,40(sp)
  92 0090 23308102 		sd	s0,32(sp)
  93 0094 233C9100 		sd	s1,24(sp)
  94 0098 23382101 		sd	s2,16(sp)
  95 009c 23343101 		sd	s3,8(sp)
  96 00a0 23304101 		sd	s4,0(sp)
  97              		.cfi_offset 1, -8
  98              		.cfi_offset 8, -16
  99              		.cfi_offset 9, -24
 100              		.cfi_offset 18, -32
 101              		.cfi_offset 19, -40
 102              		.cfi_offset 20, -48
 103 00a4 13040103 		addi	s0,sp,48
 104              		.cfi_def_cfa 8, 0
 105 00a8 93090500 		mv	s3,a0
 106 00ac 138A0500 		mv	s4,a1
 107              	.LVL9:
 108              	.L8:
  24:test/printing.cpp ****     LOCK();
 109              		.loc 1 24 5 discriminator 2
 110              		.loc 1 24 5 discriminator 2
 111 00b0 13061000 		li	a2,1
 112 00b4 93050000 		li	a1,0
 113 00b8 17050000 		lla	a0,.LANCHOR0
 113      13050500 
 114 00c0 97000000 		call	copy_and_swap@plt
 114      E7800000 
 115              	.LVL10:
 116 00c8 63080500 		beqz	a0,.L11
 117              		.loc 1 24 5 discriminator 1
 118 00cc 97000000 		call	_Z15thread_dispatchv@plt
 118      E7800000 
 119              	.LVL11:
 120 00d4 6FF0DFFD 		j	.L8
 121              	.L11:
  25:test/printing.cpp ****     int i, cc;
  26:test/printing.cpp ****     char c;
  27:test/printing.cpp **** 
  28:test/printing.cpp ****     for(i=0; i+1 < max; i++){
 122              		.loc 1 28 10 is_stmt 0
 123 00d8 93040000 		li	s1,0
 124              	.L7:
 125              	.LVL12:
 126              		.loc 1 28 18 is_stmt 1 discriminator 1
 127 00dc 13890400 		mv	s2,s1
 128              		.loc 1 28 15 is_stmt 0 discriminator 1
 129 00e0 9B841400 		addiw	s1,s1,1
 130              	.LVL13:
 131              		.loc 1 28 18 discriminator 1
 132 00e4 63D44403 		bge	s1,s4,.L9
  29:test/printing.cpp ****         cc = getc();
 133              		.loc 1 29 9 is_stmt 1
 134              		.loc 1 29 18 is_stmt 0
 135 00e8 97000000 		call	_Z4getcv@plt
GAS LISTING /tmp/ccFYLO0M.s 			page 4


 135      E7800000 
 136              	.LVL14:
  30:test/printing.cpp ****         if(cc < 1)
 137              		.loc 1 30 9 is_stmt 1
 138 00f0 630E0500 		beqz	a0,.L9
  31:test/printing.cpp ****             break;
  32:test/printing.cpp ****         c = cc;
 139              		.loc 1 32 9
 140              	.LVL15:
  33:test/printing.cpp ****         buf[i] = c;
 141              		.loc 1 33 9
 142              		.loc 1 33 14 is_stmt 0
 143 00f4 B3872901 		add	a5,s3,s2
 144              		.loc 1 33 16
 145 00f8 2380A700 		sb	a0,0(a5)
  34:test/printing.cpp ****         if(c == '\n' || c == '\r')
 146              		.loc 1 34 9 is_stmt 1
 147 00fc 9307A000 		li	a5,10
 148 0100 6306F500 		beq	a0,a5,.L9
 149              		.loc 1 34 22 is_stmt 0 discriminator 1
 150 0104 9307D000 		li	a5,13
 151 0108 E31AF5FC 		bne	a0,a5,.L7
 152              	.LVL16:
 153              	.L9:
  35:test/printing.cpp ****             break;
  36:test/printing.cpp ****     }
  37:test/printing.cpp ****     buf[i] = '\0';
 154              		.loc 1 37 5 is_stmt 1
 155              		.loc 1 37 10 is_stmt 0
 156 010c 33892901 		add	s2,s3,s2
 157              		.loc 1 37 12
 158 0110 23000900 		sb	zero,0(s2)
 159              	.L10:
  38:test/printing.cpp **** 
  39:test/printing.cpp ****     UNLOCK();
 160              		.loc 1 39 5 is_stmt 1
 161              		.loc 1 39 5
 162 0114 13060000 		li	a2,0
 163 0118 93051000 		li	a1,1
 164 011c 17050000 		lla	a0,.LANCHOR0
 164      13050500 
 165 0124 97000000 		call	copy_and_swap@plt
 165      E7800000 
 166              	.LVL17:
 167 012c E31405FE 		bnez	a0,.L10
  40:test/printing.cpp ****     return buf;
 168              		.loc 1 40 5
  41:test/printing.cpp **** }
 169              		.loc 1 41 1 is_stmt 0
 170 0130 13850900 		mv	a0,s3
 171 0134 83308102 		ld	ra,40(sp)
 172              		.cfi_restore 1
 173 0138 03340102 		ld	s0,32(sp)
 174              		.cfi_restore 8
 175              		.cfi_def_cfa 2, 48
 176 013c 83348101 		ld	s1,24(sp)
 177              		.cfi_restore 9
GAS LISTING /tmp/ccFYLO0M.s 			page 5


 178 0140 03390101 		ld	s2,16(sp)
 179              		.cfi_restore 18
 180 0144 83398100 		ld	s3,8(sp)
 181              		.cfi_restore 19
 182              	.LVL18:
 183 0148 033A0100 		ld	s4,0(sp)
 184              		.cfi_restore 20
 185 014c 13010103 		addi	sp,sp,48
 186              		.cfi_def_cfa_offset 0
 187 0150 67800000 		jr	ra
 188              		.cfi_endproc
 189              	.LFE64:
 191              		.align	2
 192              		.globl	_Z11stringToIntPKc
 194              	_Z11stringToIntPKc:
 195              	.LFB65:
  42:test/printing.cpp **** 
  43:test/printing.cpp **** int stringToInt(const char *s) {
 196              		.loc 1 43 32 is_stmt 1
 197              		.cfi_startproc
 198              	.LVL19:
 199 0154 130101FF 		addi	sp,sp,-16
 200              		.cfi_def_cfa_offset 16
 201 0158 23348100 		sd	s0,8(sp)
 202              		.cfi_offset 8, -8
 203 015c 13040101 		addi	s0,sp,16
 204              		.cfi_def_cfa 8, 0
 205 0160 93060500 		mv	a3,a0
  44:test/printing.cpp ****     int n;
 206              		.loc 1 44 5
  45:test/printing.cpp **** 
  46:test/printing.cpp ****     n = 0;
 207              		.loc 1 46 5
 208              	.LVL20:
 209              		.loc 1 46 7 is_stmt 0
 210 0164 13050000 		li	a0,0
 211              	.LVL21:
 212              	.L15:
  47:test/printing.cpp ****     while ('0' <= *s && *s <= '9')
 213              		.loc 1 47 5 is_stmt 1
 214              		.loc 1 47 22
 215              		.loc 1 47 19 is_stmt 0
 216 0168 03C60600 		lbu	a2,0(a3)
 217              		.loc 1 47 22
 218 016c 1B0706FD 		addiw	a4,a2,-48
 219 0170 1377F70F 		andi	a4,a4,0xff
 220 0174 93079000 		li	a5,9
 221 0178 63E0E702 		bgtu	a4,a5,.L14
  48:test/printing.cpp ****         n = n * 10 + *s++ - '0';
 222              		.loc 1 48 9 is_stmt 1
 223              		.loc 1 48 15 is_stmt 0
 224 017c 9B172500 		slliw	a5,a0,2
 225 0180 BB87A700 		addw	a5,a5,a0
 226 0184 9B971700 		slliw	a5,a5,1
 227              		.loc 1 48 24
 228 0188 93861600 		addi	a3,a3,1
 229              	.LVL22:
GAS LISTING /tmp/ccFYLO0M.s 			page 6


 230              		.loc 1 48 20
 231 018c BB87C700 		addw	a5,a5,a2
 232              		.loc 1 48 11
 233 0190 1B8507FD 		addiw	a0,a5,-48
 234              	.LVL23:
  47:test/printing.cpp ****     while ('0' <= *s && *s <= '9')
 235              		.loc 1 47 5
 236 0194 6FF05FFD 		j	.L15
 237              	.LVL24:
 238              	.L14:
  49:test/printing.cpp ****     return n;
 239              		.loc 1 49 5 is_stmt 1
  50:test/printing.cpp **** }
 240              		.loc 1 50 1 is_stmt 0
 241 0198 03348100 		ld	s0,8(sp)
 242              		.cfi_restore 8
 243              		.cfi_def_cfa 2, 16
 244 019c 13010101 		addi	sp,sp,16
 245              		.cfi_def_cfa_offset 0
 246 01a0 67800000 		jr	ra
 247              		.cfi_endproc
 248              	.LFE65:
 250              		.align	2
 251              		.globl	_Z8printIntiii
 253              	_Z8printIntiii:
 254              	.LFB66:
  51:test/printing.cpp **** 
  52:test/printing.cpp **** char digits[] = "0123456789ABCDEF";
  53:test/printing.cpp **** 
  54:test/printing.cpp **** void printInt(int xx, int base, int sgn)
  55:test/printing.cpp **** {
 255              		.loc 1 55 1 is_stmt 1
 256              		.cfi_startproc
 257              	.LVL25:
 258 01a4 130101FC 		addi	sp,sp,-64
 259              		.cfi_def_cfa_offset 64
 260 01a8 233C1102 		sd	ra,56(sp)
 261 01ac 23388102 		sd	s0,48(sp)
 262 01b0 23349102 		sd	s1,40(sp)
 263 01b4 23302103 		sd	s2,32(sp)
 264 01b8 233C3101 		sd	s3,24(sp)
 265              		.cfi_offset 1, -8
 266              		.cfi_offset 8, -16
 267              		.cfi_offset 9, -24
 268              		.cfi_offset 18, -32
 269              		.cfi_offset 19, -40
 270 01bc 13040104 		addi	s0,sp,64
 271              		.cfi_def_cfa 8, 0
 272 01c0 93040500 		mv	s1,a0
 273 01c4 13890500 		mv	s2,a1
 274 01c8 93090600 		mv	s3,a2
 275              	.LVL26:
 276              	.L19:
  56:test/printing.cpp ****     LOCK();
 277              		.loc 1 56 5
 278              		.loc 1 56 5
 279 01cc 13061000 		li	a2,1
GAS LISTING /tmp/ccFYLO0M.s 			page 7


 280 01d0 93050000 		li	a1,0
 281 01d4 17050000 		lla	a0,.LANCHOR0
 281      13050500 
 282 01dc 97000000 		call	copy_and_swap@plt
 282      E7800000 
 283              	.LVL27:
 284 01e4 63080500 		beqz	a0,.L18
 285              		.loc 1 56 5 discriminator 2
 286 01e8 97000000 		call	_Z15thread_dispatchv@plt
 286      E7800000 
 287              	.LVL28:
 288 01f0 6FF0DFFD 		j	.L19
 289              	.L18:
  57:test/printing.cpp ****     char buf[16];
 290              		.loc 1 57 5
  58:test/printing.cpp ****     int i, neg;
 291              		.loc 1 58 5
  59:test/printing.cpp ****     uint x;
 292              		.loc 1 59 5
  60:test/printing.cpp **** 
  61:test/printing.cpp ****     neg = 0;
 293              		.loc 1 61 5
 294              	.LVL29:
  62:test/printing.cpp ****     if(sgn && xx < 0){
 295              		.loc 1 62 5
 296 01f4 63840900 		beqz	s3,.L20
 297              		.loc 1 62 12 is_stmt 0 discriminator 1
 298 01f8 63C40408 		bltz	s1,.L27
 299              	.L20:
  63:test/printing.cpp ****         neg = 1;
  64:test/printing.cpp ****         x = -xx;
  65:test/printing.cpp ****     } else {
  66:test/printing.cpp ****         x = xx;
 300              		.loc 1 66 9 is_stmt 1
 301              		.loc 1 66 11 is_stmt 0
 302 01fc 1B850400 		sext.w	a0,s1
 303              	.LVL30:
  61:test/printing.cpp ****     if(sgn && xx < 0){
 304              		.loc 1 61 9
 305 0200 93050000 		li	a1,0
 306              	.LVL31:
 307              	.L21:
  67:test/printing.cpp ****     }
  68:test/printing.cpp **** 
  69:test/printing.cpp ****     i = 0;
 308              		.loc 1 69 5 is_stmt 1
 309              		.loc 1 69 7 is_stmt 0
 310 0204 93040000 		li	s1,0
 311              	.LVL32:
 312              	.L22:
  70:test/printing.cpp ****     do{
 313              		.loc 1 70 5 is_stmt 1
  71:test/printing.cpp ****         buf[i++] = digits[x % base];
 314              		.loc 1 71 9
 315              		.loc 1 71 31 is_stmt 0
 316 0208 9B070900 		sext.w	a5,s2
 317              		.loc 1 71 29
GAS LISTING /tmp/ccFYLO0M.s 			page 8


 318 020c 3B772503 		remuw	a4,a0,s2
 319 0210 13860400 		mv	a2,s1
 320              		.loc 1 71 14
 321 0214 9B841400 		addiw	s1,s1,1
 322              	.LVL33:
 323              		.loc 1 71 35
 324 0218 93160702 		slli	a3,a4,32
 325 021c 93D60602 		srli	a3,a3,32
 326 0220 17070000 		lla	a4,.LANCHOR1
 326      13070700 
 327 0228 3307D700 		add	a4,a4,a3
 328 022c 83460700 		lbu	a3,0(a4)
 329              		.loc 1 71 18
 330 0230 130704FD 		addi	a4,s0,-48
 331 0234 3307C700 		add	a4,a4,a2
 332 0238 2308D7FE 		sb	a3,-16(a4)
  72:test/printing.cpp ****     }while((x /= base) != 0);
 333              		.loc 1 72 24 is_stmt 1
 334 023c 1B070500 		sext.w	a4,a0
 335              		.loc 1 72 15 is_stmt 0
 336 0240 3B552503 		divuw	a0,a0,s2
 337              	.LVL34:
 338              		.loc 1 72 24
 339 0244 E372F7FC 		bleu	a5,a4,.L22
  73:test/printing.cpp ****     if(neg)
 340              		.loc 1 73 5 is_stmt 1
 341 0248 638C0500 		beqz	a1,.L25
  74:test/printing.cpp ****         buf[i++] = '-';
 342              		.loc 1 74 9
 343              	.LVL35:
 344              		.loc 1 74 18 is_stmt 0
 345 024c 930704FD 		addi	a5,s0,-48
 346 0250 B3849700 		add	s1,a5,s1
 347 0254 9307D002 		li	a5,45
 348 0258 2388F4FE 		sb	a5,-16(s1)
 349              		.loc 1 74 14
 350 025c 9B042600 		addiw	s1,a2,2
 351              	.LVL36:
 352              	.L25:
  75:test/printing.cpp **** 
  76:test/printing.cpp ****     while(--i >= 0)
 353              		.loc 1 76 5 is_stmt 1
 354              		.loc 1 76 15
 355 0260 9B84F4FF 		addiw	s1,s1,-1
 356              	.LVL37:
 357 0264 63C40402 		bltz	s1,.L24
  77:test/printing.cpp ****         putc(buf[i]);
 358              		.loc 1 77 9
 359              		.loc 1 77 13 is_stmt 0
 360 0268 930704FD 		addi	a5,s0,-48
 361 026c B3879700 		add	a5,a5,s1
 362 0270 03C507FF 		lbu	a0,-16(a5)
 363 0274 97000000 		call	_Z4putcc@plt
 363      E7800000 
 364              	.LVL38:
 365 027c 6FF05FFE 		j	.L25
 366              	.LVL39:
GAS LISTING /tmp/ccFYLO0M.s 			page 9


 367              	.L27:
  63:test/printing.cpp ****         x = -xx;
 368              		.loc 1 63 9 is_stmt 1
  64:test/printing.cpp ****     } else {
 369              		.loc 1 64 9
  64:test/printing.cpp ****     } else {
 370              		.loc 1 64 11 is_stmt 0
 371 0280 3B059040 		negw	a0,s1
 372              	.LVL40:
  63:test/printing.cpp ****         x = -xx;
 373              		.loc 1 63 13
 374 0284 93051000 		li	a1,1
  64:test/printing.cpp ****     } else {
 375              		.loc 1 64 11
 376 0288 6FF0DFF7 		j	.L21
 377              	.LVL41:
 378              	.L24:
  78:test/printing.cpp **** 
  79:test/printing.cpp ****     UNLOCK();
 379              		.loc 1 79 5 is_stmt 1
 380              		.loc 1 79 5
 381 028c 13060000 		li	a2,0
 382 0290 93051000 		li	a1,1
 383 0294 17050000 		lla	a0,.LANCHOR0
 383      13050500 
 384 029c 97000000 		call	copy_and_swap@plt
 384      E7800000 
 385              	.LVL42:
 386 02a4 E31405FE 		bnez	a0,.L24
  80:test/printing.cpp **** }
 387              		.loc 1 80 1 is_stmt 0
 388 02a8 83308103 		ld	ra,56(sp)
 389              		.cfi_restore 1
 390 02ac 03340103 		ld	s0,48(sp)
 391              		.cfi_restore 8
 392              		.cfi_def_cfa 2, 64
 393 02b0 83348102 		ld	s1,40(sp)
 394              		.cfi_restore 9
 395 02b4 03390102 		ld	s2,32(sp)
 396              		.cfi_restore 18
 397 02b8 83398101 		ld	s3,24(sp)
 398              		.cfi_restore 19
 399 02bc 13010104 		addi	sp,sp,64
 400              		.cfi_def_cfa_offset 0
 401 02c0 67800000 		jr	ra
 402              		.cfi_endproc
 403              	.LFE66:
 405              		.align	2
 406              		.globl	_Z24print_char_pointer_valuePKc
 408              	_Z24print_char_pointer_valuePKc:
 409              	.LFB67:
  81:test/printing.cpp **** 
  82:test/printing.cpp **** void print_char_pointer_value(const char* ptr) {
 410              		.loc 1 82 48 is_stmt 1
 411              		.cfi_startproc
 412              	.LVL43:
 413 02c4 130101FC 		addi	sp,sp,-64
GAS LISTING /tmp/ccFYLO0M.s 			page 10


 414              		.cfi_def_cfa_offset 64
 415 02c8 233C1102 		sd	ra,56(sp)
 416 02cc 23388102 		sd	s0,48(sp)
 417 02d0 23349102 		sd	s1,40(sp)
 418              		.cfi_offset 1, -8
 419              		.cfi_offset 8, -16
 420              		.cfi_offset 9, -24
 421 02d4 13040104 		addi	s0,sp,64
 422              		.cfi_def_cfa 8, 0
 423 02d8 93040500 		mv	s1,a0
 424              	.LVL44:
 425              	.L30:
  83:test/printing.cpp ****     LOCK();
 426              		.loc 1 83 5
 427              		.loc 1 83 5
 428 02dc 13061000 		li	a2,1
 429 02e0 93050000 		li	a1,0
 430 02e4 17050000 		lla	a0,.LANCHOR0
 430      13050500 
 431 02ec 97000000 		call	copy_and_swap@plt
 431      E7800000 
 432              	.LVL45:
 433 02f4 63080500 		beqz	a0,.L29
 434              		.loc 1 83 5 discriminator 2
 435 02f8 97000000 		call	_Z15thread_dispatchv@plt
 435      E7800000 
 436              	.LVL46:
 437 0300 6FF0DFFD 		j	.L30
 438              	.L29:
  84:test/printing.cpp ****     // Convert the memory address to hexadecimal
  85:test/printing.cpp ****     unsigned long address = (unsigned long)ptr;
 439              		.loc 1 85 5
 440              		.loc 1 85 19 is_stmt 0
 441 0304 13850400 		mv	a0,s1
 442              	.LVL47:
  86:test/printing.cpp ****     char buffer[17]; // Buffer to store hexadecimal representation (16 characters + null terminator
 443              		.loc 1 86 5 is_stmt 1
  87:test/printing.cpp ****     int i;
 444              		.loc 1 87 5
  88:test/printing.cpp ****     buffer[16] = '\0'; // Null-terminate the buffer
 445              		.loc 1 88 5
 446              		.loc 1 88 16 is_stmt 0
 447 0308 230C04FC 		sb	zero,-40(s0)
  89:test/printing.cpp **** 
  90:test/printing.cpp ****     int x = 0;
 448              		.loc 1 90 5 is_stmt 1
 449              	.LVL48:
  91:test/printing.cpp ****     // Print the memory address character by character
  92:test/printing.cpp ****     for (i = 15; i >= 0; i--) {
 450              		.loc 1 92 5
 451              	.LBB2:
 452              		.loc 1 92 12 is_stmt 0
 453 030c 9304F000 		li	s1,15
 454              	.LVL49:
 455 0310 6F000002 		j	.L34
 456              	.LVL50:
 457              	.L32:
GAS LISTING /tmp/ccFYLO0M.s 			page 11


 458              	.LBB3:
  93:test/printing.cpp ****         int digit = address & 0xF; // Get the least significant nibble
  94:test/printing.cpp ****         buffer[i] = (digit < 10) ? ('0' + digit) : ('a' + digit - 10); // Convert to hexadecimal ch
 459              		.loc 1 94 19 discriminator 2
 460 0314 93877705 		addi	a5,a5,87
 461              	.LVL51:
 462              	.L33:
 463              		.loc 1 94 19 discriminator 4
 464 0318 130704FE 		addi	a4,s0,-32
 465 031c 33079700 		add	a4,a4,s1
 466 0320 2304F7FE 		sb	a5,-24(a4)
  95:test/printing.cpp ****         address >>= 4; // Shift right by 4 bits for the next nibble
 467              		.loc 1 95 9 is_stmt 1 discriminator 4
 468              		.loc 1 95 17 is_stmt 0 discriminator 4
 469 0324 13554500 		srli	a0,a0,4
 470              	.LVL52:
  96:test/printing.cpp ****         if(address == 0){
 471              		.loc 1 96 9 is_stmt 1 discriminator 4
 472 0328 63020502 		beqz	a0,.L36
 473              	.LBE3:
  92:test/printing.cpp ****         int digit = address & 0xF; // Get the least significant nibble
 474              		.loc 1 92 5 discriminator 2
 475 032c 9B84F4FF 		addiw	s1,s1,-1
 476              	.LVL53:
 477              	.L34:
  92:test/printing.cpp ****         int digit = address & 0xF; // Get the least significant nibble
 478              		.loc 1 92 20 discriminator 1
 479 0330 63CC0400 		bltz	s1,.L37
 480              	.LBB4:
  93:test/printing.cpp ****         buffer[i] = (digit < 10) ? ('0' + digit) : ('a' + digit - 10); // Convert to hexadecimal ch
 481              		.loc 1 93 9
  93:test/printing.cpp ****         buffer[i] = (digit < 10) ? ('0' + digit) : ('a' + digit - 10); // Convert to hexadecimal ch
 482              		.loc 1 93 13 is_stmt 0
 483 0334 9377F500 		andi	a5,a0,15
 484              	.LVL54:
  94:test/printing.cpp ****         address >>= 4; // Shift right by 4 bits for the next nibble
 485              		.loc 1 94 9 is_stmt 1
  94:test/printing.cpp ****         address >>= 4; // Shift right by 4 bits for the next nibble
 486              		.loc 1 94 19 is_stmt 0
 487 0338 13079000 		li	a4,9
 488 033c E34CF7FC 		bgt	a5,a4,.L32
  94:test/printing.cpp ****         address >>= 4; // Shift right by 4 bits for the next nibble
 489              		.loc 1 94 19 discriminator 1
 490 0340 93870703 		addi	a5,a5,48
 491              	.LVL55:
 492 0344 6FF05FFD 		j	.L33
 493              	.LVL56:
 494              	.L37:
 495              	.LBE4:
 496              	.LBE2:
  90:test/printing.cpp ****     // Print the memory address character by character
 497              		.loc 1 90 9
 498 0348 93040000 		li	s1,0
 499              	.LVL57:
 500              	.L36:
  97:test/printing.cpp ****             x = i;
  98:test/printing.cpp ****             break;
GAS LISTING /tmp/ccFYLO0M.s 			page 12


  99:test/printing.cpp ****         }
 100:test/printing.cpp ****     }
 101:test/printing.cpp **** 
 102:test/printing.cpp ****     // Print the hexadecimal representation using putc
 103:test/printing.cpp ****     for (i = x; i < 16; i++) {
 501              		.loc 1 103 19 is_stmt 1 discriminator 1
 502 034c 9307F000 		li	a5,15
 503 0350 63C09702 		bgt	s1,a5,.L35
 104:test/printing.cpp ****         putc(buffer[i]);
 504              		.loc 1 104 9
 505              		.loc 1 104 13 is_stmt 0
 506 0354 930704FE 		addi	a5,s0,-32
 507 0358 B3879700 		add	a5,a5,s1
 508 035c 03C587FE 		lbu	a0,-24(a5)
 509 0360 97000000 		call	_Z4putcc@plt
 509      E7800000 
 510              	.LVL58:
 103:test/printing.cpp ****         putc(buffer[i]);
 511              		.loc 1 103 5 is_stmt 1
 512 0368 9B841400 		addiw	s1,s1,1
 513              	.LVL59:
 514 036c 6FF01FFE 		j	.L36
 515              	.LVL60:
 516              	.L35:
 105:test/printing.cpp ****     }
 106:test/printing.cpp ****     UNLOCK();
 517              		.loc 1 106 5
 518              		.loc 1 106 5
 519 0370 13060000 		li	a2,0
 520 0374 93051000 		li	a1,1
 521 0378 17050000 		lla	a0,.LANCHOR0
 521      13050500 
 522 0380 97000000 		call	copy_and_swap@plt
 522      E7800000 
 523              	.LVL61:
 524 0388 E31405FE 		bnez	a0,.L35
 107:test/printing.cpp **** }...
 525              		.loc 1 107 1 is_stmt 0
 526 038c 83308103 		ld	ra,56(sp)
 527              		.cfi_restore 1
 528 0390 03340103 		ld	s0,48(sp)
 529              		.cfi_restore 8
 530              		.cfi_def_cfa 2, 64
 531 0394 83348102 		ld	s1,40(sp)
 532              		.cfi_restore 9
 533              	.LVL62:
 534 0398 13010104 		addi	sp,sp,64
 535              		.cfi_def_cfa_offset 0
 536 039c 67800000 		jr	ra
 537              		.cfi_endproc
 538              	.LFE67:
 540              		.globl	digits
 541              		.globl	lockPrint
 542              		.data
 543              		.align	3
 544              		.set	.LANCHOR1,. + 0
 547              	digits:
GAS LISTING /tmp/ccFYLO0M.s 			page 13


 548 0000 30313233 		.string	"0123456789ABCDEF"
 548      34353637 
 548      38394142 
 548      43444546 
 548      00
 549              		.bss
 550              		.align	3
 551              		.set	.LANCHOR0,. + 0
 554              	lockPrint:
 555 0000 00000000 		.zero	8
 555      00000000 
 556              		.text
 557              	.Letext0:
 558              		.file 2 "test/../h/../lib/hw.h"
 559              		.file 3 "test/printing.hpp"
 560              		.file 4 "test/../h/syscall_c.hpp"
GAS LISTING /tmp/ccFYLO0M.s 			page 14

