GAS LISTING /tmp/ccjVey4k.s 			page 1


   1              		.file	"Threads_C_API_test.cpp"
   2              		.option pic
   3              		.option norelax
   4              		.text
   5              	.Ltext0:
   6              		.align	2
   8              	_ZL9fibonaccim:
   9              	.LFB63:
  10              		.file 1 "test/Threads_C_API_test.cpp"
   1:test/Threads_C_API_test.cpp **** 
   2:test/Threads_C_API_test.cpp **** #include "../h/syscall_c.hpp"
   3:test/Threads_C_API_test.cpp **** #include "Threads_C_API_test.hpp"
   4:test/Threads_C_API_test.cpp **** 
   5:test/Threads_C_API_test.cpp **** #include "printing.hpp"
   6:test/Threads_C_API_test.cpp **** 
   7:test/Threads_C_API_test.cpp **** static volatile bool finishedA = false;
   8:test/Threads_C_API_test.cpp **** static volatile bool finishedB = false;
   9:test/Threads_C_API_test.cpp **** static volatile bool finishedC = false;
  10:test/Threads_C_API_test.cpp **** static volatile bool finishedD = false;
  11:test/Threads_C_API_test.cpp **** 
  12:test/Threads_C_API_test.cpp **** static uint64 fibonacci(uint64 n) {
  11              		.loc 1 12 35
  12              		.cfi_startproc
  13              	.LVL0:
  14 0000 130101FE 		addi	sp,sp,-32
  15              		.cfi_def_cfa_offset 32
  16 0004 233C1100 		sd	ra,24(sp)
  17 0008 23388100 		sd	s0,16(sp)
  18 000c 23349100 		sd	s1,8(sp)
  19 0010 23302101 		sd	s2,0(sp)
  20              		.cfi_offset 1, -8
  21              		.cfi_offset 8, -16
  22              		.cfi_offset 9, -24
  23              		.cfi_offset 18, -32
  24 0014 13040102 		addi	s0,sp,32
  25              		.cfi_def_cfa 8, 0
  26 0018 93040500 		mv	s1,a0
  13:test/Threads_C_API_test.cpp ****     if (n == 0 || n == 1) { return n; }
  27              		.loc 1 13 5
  28 001c 93071000 		li	a5,1
  29 0020 63F8A702 		bleu	a0,a5,.L1
  14:test/Threads_C_API_test.cpp ****     if (n % 10 == 0) { thread_dispatch(); }
  30              		.loc 1 14 5
  31              		.loc 1 14 11 is_stmt 0
  32 0024 9307A000 		li	a5,10
  33 0028 B377F502 		remu	a5,a0,a5
  34              		.loc 1 14 5
  35 002c 638E0702 		beqz	a5,.L6
  36              	.LVL1:
  37              	.L3:
  15:test/Threads_C_API_test.cpp ****     return fibonacci(n - 1) + fibonacci(n - 2);
  38              		.loc 1 15 5 is_stmt 1
  39              		.loc 1 15 21 is_stmt 0
  40 0030 1385F4FF 		addi	a0,s1,-1
  41 0034 97000000 		call	_ZL9fibonaccim
  41      E7800000 
  42              	.LVL2:
GAS LISTING /tmp/ccjVey4k.s 			page 2


  43 003c 13090500 		mv	s2,a0
  44              		.loc 1 15 40
  45 0040 1385E4FF 		addi	a0,s1,-2
  46 0044 97000000 		call	_ZL9fibonaccim
  46      E7800000 
  47              	.LVL3:
  48              		.loc 1 15 46
  49 004c 3305A900 		add	a0,s2,a0
  50              	.L1:
  16:test/Threads_C_API_test.cpp **** }
  51              		.loc 1 16 1
  52 0050 83308101 		ld	ra,24(sp)
  53              		.cfi_remember_state
  54              		.cfi_restore 1
  55 0054 03340101 		ld	s0,16(sp)
  56              		.cfi_restore 8
  57              		.cfi_def_cfa 2, 32
  58 0058 83348100 		ld	s1,8(sp)
  59              		.cfi_restore 9
  60              	.LVL4:
  61 005c 03390100 		ld	s2,0(sp)
  62              		.cfi_restore 18
  63 0060 13010102 		addi	sp,sp,32
  64              		.cfi_def_cfa_offset 0
  65 0064 67800000 		jr	ra
  66              	.LVL5:
  67              	.L6:
  68              		.cfi_restore_state
  14:test/Threads_C_API_test.cpp ****     if (n % 10 == 0) { thread_dispatch(); }
  69              		.loc 1 14 24 is_stmt 1 discriminator 1
  14:test/Threads_C_API_test.cpp ****     if (n % 10 == 0) { thread_dispatch(); }
  70              		.loc 1 14 39 is_stmt 0 discriminator 1
  71 0068 97000000 		call	_Z15thread_dispatchv@plt
  71      E7800000 
  72              	.LVL6:
  73 0070 6FF01FFC 		j	.L3
  74              		.cfi_endproc
  75              	.LFE63:
  77              		.section	.rodata.str1.8,"aMS",@progbits,1
  78              		.align	3
  79              	.LC0:
  80 0000 443A2069 		.string	"D: i="
  80      3D00
  81 0006 0000     		.align	3
  82              	.LC1:
  83 0008 0A00     		.string	"\n"
  84 000a 00000000 		.align	3
  84      0000
  85              	.LC2:
  86 0010 443A2064 		.string	"D: dispatch\n"
  86      69737061 
  86      7463680A 
  86      00
  87 001d 000000   		.align	3
  88              	.LC3:
  89 0020 443A2066 		.string	"D: fibonaci="
  89      69626F6E 
GAS LISTING /tmp/ccjVey4k.s 			page 3


  89      6163693D 
  89      00
  90 002d 000000   		.align	3
  91              	.LC4:
  92 0030 44206669 		.string	"D finished!\n"
  92      6E697368 
  92      6564210A 
  92      00
  93              		.text
  94              		.align	2
  96              	_ZL11workerBodyDPv:
  97              	.LFB67:
  17:test/Threads_C_API_test.cpp **** 
  18:test/Threads_C_API_test.cpp **** static void workerBodyA(void* arg) {
  19:test/Threads_C_API_test.cpp ****     for (uint64 i = 0; i < 10; i++) {
  20:test/Threads_C_API_test.cpp ****         printString("A: i="); printInt(i); printString("\n");
  21:test/Threads_C_API_test.cpp ****         for (uint64 j = 0; j < 10000; j++) {
  22:test/Threads_C_API_test.cpp ****             for (uint64 k = 0; k < 30000; k++) { /* busy wait */ }
  23:test/Threads_C_API_test.cpp ****             thread_dispatch();
  24:test/Threads_C_API_test.cpp ****         }
  25:test/Threads_C_API_test.cpp ****     }
  26:test/Threads_C_API_test.cpp ****     printString("A finished!\n");
  27:test/Threads_C_API_test.cpp ****     TCB::running->setFinished(true);
  28:test/Threads_C_API_test.cpp ****     finishedA = true;
  29:test/Threads_C_API_test.cpp **** }
  30:test/Threads_C_API_test.cpp **** 
  31:test/Threads_C_API_test.cpp **** static void workerBodyB(void* arg) {
  32:test/Threads_C_API_test.cpp ****     for (uint64 i = 0; i < 16; i++) {
  33:test/Threads_C_API_test.cpp ****         printString("B: i="); printInt(i); printString("\n");
  34:test/Threads_C_API_test.cpp ****         for (uint64 j = 0; j < 10000; j++) {
  35:test/Threads_C_API_test.cpp ****             for (uint64 k = 0; k < 30000; k++) { /* busy wait */ }
  36:test/Threads_C_API_test.cpp ****             thread_dispatch();
  37:test/Threads_C_API_test.cpp ****         }
  38:test/Threads_C_API_test.cpp ****     }
  39:test/Threads_C_API_test.cpp ****     printString("B finished!\n");
  40:test/Threads_C_API_test.cpp ****     finishedB = true;
  41:test/Threads_C_API_test.cpp ****     TCB::running->setFinished(true);
  42:test/Threads_C_API_test.cpp ****     thread_dispatch();
  43:test/Threads_C_API_test.cpp **** }
  44:test/Threads_C_API_test.cpp **** 
  45:test/Threads_C_API_test.cpp **** static void workerBodyC(void* arg) {
  46:test/Threads_C_API_test.cpp ****     uint8 i = 0;
  47:test/Threads_C_API_test.cpp ****     for (; i < 3; i++) {
  48:test/Threads_C_API_test.cpp ****         printString("C: i="); printInt(i); printString("\n");
  49:test/Threads_C_API_test.cpp ****     }
  50:test/Threads_C_API_test.cpp **** 
  51:test/Threads_C_API_test.cpp ****     printString("C: dispatch\n");
  52:test/Threads_C_API_test.cpp ****     __asm__ ("li t1, 7");
  53:test/Threads_C_API_test.cpp ****     thread_dispatch();
  54:test/Threads_C_API_test.cpp **** 
  55:test/Threads_C_API_test.cpp ****     uint64 t1 = 0;
  56:test/Threads_C_API_test.cpp ****     __asm__ ("mv %[t1], t1" : [t1] "=r"(t1));
  57:test/Threads_C_API_test.cpp **** 
  58:test/Threads_C_API_test.cpp ****     printString("C: t1="); printInt(t1); printString("\n");
  59:test/Threads_C_API_test.cpp **** 
  60:test/Threads_C_API_test.cpp ****     uint64 result = fibonacci(12);
  61:test/Threads_C_API_test.cpp ****     printString("C: fibonaci="); printInt(result); printString("\n");
GAS LISTING /tmp/ccjVey4k.s 			page 4


  62:test/Threads_C_API_test.cpp **** 
  63:test/Threads_C_API_test.cpp ****     for (; i < 6; i++) {
  64:test/Threads_C_API_test.cpp ****         printString("C: i="); printInt(i); printString("\n");
  65:test/Threads_C_API_test.cpp ****     }
  66:test/Threads_C_API_test.cpp **** 
  67:test/Threads_C_API_test.cpp ****     printString("A finished!\n");
  68:test/Threads_C_API_test.cpp ****     finishedC = true;
  69:test/Threads_C_API_test.cpp ****     TCB::running->setFinished(true);
  70:test/Threads_C_API_test.cpp ****     thread_dispatch();
  71:test/Threads_C_API_test.cpp **** }
  72:test/Threads_C_API_test.cpp **** 
  73:test/Threads_C_API_test.cpp **** static void workerBodyD(void* arg) {
  98              		.loc 1 73 36 is_stmt 1
  99              		.cfi_startproc
 100              	.LVL7:
 101 0074 130101FE 		addi	sp,sp,-32
 102              		.cfi_def_cfa_offset 32
 103 0078 233C1100 		sd	ra,24(sp)
 104 007c 23388100 		sd	s0,16(sp)
 105 0080 23349100 		sd	s1,8(sp)
 106 0084 23302101 		sd	s2,0(sp)
 107              		.cfi_offset 1, -8
 108              		.cfi_offset 8, -16
 109              		.cfi_offset 9, -24
 110              		.cfi_offset 18, -32
 111 0088 13040102 		addi	s0,sp,32
 112              		.cfi_def_cfa 8, 0
  74:test/Threads_C_API_test.cpp ****     uint8 i = 10;
 113              		.loc 1 74 5
 114              	.LVL8:
 115              		.loc 1 74 11 is_stmt 0
 116 008c 9304A000 		li	s1,10
 117 0090 6F000004 		j	.L9
 118              	.LVL9:
 119              	.L13:
  75:test/Threads_C_API_test.cpp ****     for (; i < 13; i++) {
  76:test/Threads_C_API_test.cpp ****         printString("D: i="); printInt(i); printString("\n");
 120              		.loc 1 76 9 is_stmt 1 discriminator 1
 121              		.loc 1 76 20 is_stmt 0 discriminator 1
 122 0094 17050000 		lla	a0,.LC0
 122      13050500 
 123 009c 97000000 		call	_Z11printStringPKc@plt
 123      E7800000 
 124              	.LVL10:
 125              		.loc 1 76 31 is_stmt 1 discriminator 1
 126              		.loc 1 76 39 is_stmt 0 discriminator 1
 127 00a4 13060000 		li	a2,0
 128 00a8 9305A000 		li	a1,10
 129 00ac 13850400 		mv	a0,s1
 130 00b0 97000000 		call	_Z8printIntiii@plt
 130      E7800000 
 131              	.LVL11:
 132              		.loc 1 76 44 is_stmt 1 discriminator 1
 133              		.loc 1 76 55 is_stmt 0 discriminator 1
 134 00b8 17050000 		lla	a0,.LC1
 134      13050500 
 135 00c0 97000000 		call	_Z11printStringPKc@plt
GAS LISTING /tmp/ccjVey4k.s 			page 5


 135      E7800000 
 136              	.LVL12:
  75:test/Threads_C_API_test.cpp ****     for (; i < 13; i++) {
 137              		.loc 1 75 5 is_stmt 1 discriminator 1
 138 00c8 9B841400 		addiw	s1,s1,1
 139              	.LVL13:
 140 00cc 93F4F40F 		andi	s1,s1,0xff
 141              	.LVL14:
 142              	.L9:
  75:test/Threads_C_API_test.cpp ****     for (; i < 13; i++) {
 143              		.loc 1 75 5 discriminator 2
  75:test/Threads_C_API_test.cpp ****     for (; i < 13; i++) {
 144              		.loc 1 75 14 discriminator 2
 145 00d0 9307C000 		li	a5,12
 146 00d4 E3F097FC 		bleu	s1,a5,.L13
  77:test/Threads_C_API_test.cpp ****     }
  78:test/Threads_C_API_test.cpp **** 
  79:test/Threads_C_API_test.cpp ****     printString("D: dispatch\n");
 147              		.loc 1 79 5
 148              		.loc 1 79 16 is_stmt 0
 149 00d8 17050000 		lla	a0,.LC2
 149      13050500 
 150 00e0 97000000 		call	_Z11printStringPKc@plt
 150      E7800000 
 151              	.LVL15:
  80:test/Threads_C_API_test.cpp ****     __asm__ ("li t1, 5");
 152              		.loc 1 80 5 is_stmt 1
 153              		.loc 1 80 25 is_stmt 0
 154              	#APP
 155              	# 80 "test/Threads_C_API_test.cpp" 1
  81              	    thread_dispatch();
 156              		li t1, 5
 157              	# 0 "" 2
 158              		.loc 1 81 5 is_stmt 1
 159              		.loc 1 81 20 is_stmt 0
 160              	#NO_APP
 161 00ec 97000000 		call	_Z15thread_dispatchv@plt
 161      E7800000 
 162              	.LVL16:
  82:test/Threads_C_API_test.cpp **** 
  83:test/Threads_C_API_test.cpp ****     uint64 result = fibonacci(16);
 163              		.loc 1 83 5 is_stmt 1
 164              		.loc 1 83 30 is_stmt 0
 165 00f4 13050001 		li	a0,16
 166 00f8 97000000 		call	_ZL9fibonaccim
 166      E7800000 
 167              	.LVL17:
 168 0100 13090500 		mv	s2,a0
 169              	.LVL18:
  84:test/Threads_C_API_test.cpp ****     printString("D: fibonaci="); printInt(result); printString("\n");
 170              		.loc 1 84 5 is_stmt 1
 171              		.loc 1 84 16 is_stmt 0
 172 0104 17050000 		lla	a0,.LC3
 172      13050500 
 173              	.LVL19:
 174 010c 97000000 		call	_Z11printStringPKc@plt
 174      E7800000 
GAS LISTING /tmp/ccjVey4k.s 			page 6


 175              	.LVL20:
 176              		.loc 1 84 34 is_stmt 1
 177              		.loc 1 84 42 is_stmt 0
 178 0114 13060000 		li	a2,0
 179 0118 9305A000 		li	a1,10
 180 011c 1B050900 		sext.w	a0,s2
 181 0120 97000000 		call	_Z8printIntiii@plt
 181      E7800000 
 182              	.LVL21:
 183              		.loc 1 84 52 is_stmt 1
 184              		.loc 1 84 63 is_stmt 0
 185 0128 17050000 		lla	a0,.LC1
 185      13050500 
 186 0130 97000000 		call	_Z11printStringPKc@plt
 186      E7800000 
 187              	.LVL22:
 188 0138 6F000004 		j	.L11
 189              	.L14:
  85:test/Threads_C_API_test.cpp **** 
  86:test/Threads_C_API_test.cpp ****     for (; i < 16; i++) {
  87:test/Threads_C_API_test.cpp ****         printString("D: i="); printInt(i); printString("\n");
 190              		.loc 1 87 9 is_stmt 1 discriminator 1
 191              		.loc 1 87 20 is_stmt 0 discriminator 1
 192 013c 17050000 		lla	a0,.LC0
 192      13050500 
 193 0144 97000000 		call	_Z11printStringPKc@plt
 193      E7800000 
 194              	.LVL23:
 195              		.loc 1 87 31 is_stmt 1 discriminator 1
 196              		.loc 1 87 39 is_stmt 0 discriminator 1
 197 014c 13060000 		li	a2,0
 198 0150 9305A000 		li	a1,10
 199 0154 13850400 		mv	a0,s1
 200 0158 97000000 		call	_Z8printIntiii@plt
 200      E7800000 
 201              	.LVL24:
 202              		.loc 1 87 44 is_stmt 1 discriminator 1
 203              		.loc 1 87 55 is_stmt 0 discriminator 1
 204 0160 17050000 		lla	a0,.LC1
 204      13050500 
 205 0168 97000000 		call	_Z11printStringPKc@plt
 205      E7800000 
 206              	.LVL25:
  86:test/Threads_C_API_test.cpp ****         printString("D: i="); printInt(i); printString("\n");
 207              		.loc 1 86 5 is_stmt 1 discriminator 1
 208 0170 9B841400 		addiw	s1,s1,1
 209              	.LVL26:
 210 0174 93F4F40F 		andi	s1,s1,0xff
 211              	.LVL27:
 212              	.L11:
  86:test/Threads_C_API_test.cpp ****         printString("D: i="); printInt(i); printString("\n");
 213              		.loc 1 86 5 discriminator 2
  86:test/Threads_C_API_test.cpp ****         printString("D: i="); printInt(i); printString("\n");
 214              		.loc 1 86 14 discriminator 2
 215 0178 9307F000 		li	a5,15
 216 017c E3F097FC 		bleu	s1,a5,.L14
  88:test/Threads_C_API_test.cpp ****     }
GAS LISTING /tmp/ccjVey4k.s 			page 7


  89:test/Threads_C_API_test.cpp **** 
  90:test/Threads_C_API_test.cpp ****     printString("D finished!\n");
 217              		.loc 1 90 5
 218              		.loc 1 90 16 is_stmt 0
 219 0180 17050000 		lla	a0,.LC4
 219      13050500 
 220 0188 97000000 		call	_Z11printStringPKc@plt
 220      E7800000 
 221              	.LVL28:
  91:test/Threads_C_API_test.cpp ****     finishedD = true;
 222              		.loc 1 91 5 is_stmt 1
 223              		.loc 1 91 15 is_stmt 0
 224 0190 93071000 		li	a5,1
 225 0194 17070000 		sb	a5,.LANCHOR0,a4
 225      2300F700 
  92:test/Threads_C_API_test.cpp ****     TCB::running->setFinished(true);
 226              		.loc 1 92 5 is_stmt 1
 227              		.loc 1 92 30 is_stmt 0
 228 019c 17070000 		la	a4,_ZN3TCB7runningE
 228      03370700 
 229 01a4 03370700 		ld	a4,0(a4)
 230              	.LVL29:
 231              	.LBB20:
 232              	.LBB21:
 233              		.file 2 "test/../h/../h/tcb.hpp"
   1:test/../h/../h/tcb.hpp **** #ifndef TCP_HPP
   2:test/../h/../h/tcb.hpp **** #define TCP_HPP
   3:test/../h/../h/tcb.hpp **** 
   4:test/../h/../h/tcb.hpp **** #include "../lib/hw.h"
   5:test/../h/../h/tcb.hpp **** #include "../h/scheduler.hpp"
   6:test/../h/../h/tcb.hpp **** #include "../h/riscv.hpp"
   7:test/../h/../h/tcb.hpp **** #include "../h/memory_allocator.hpp"
   8:test/../h/../h/tcb.hpp **** 
   9:test/../h/../h/tcb.hpp **** // Thread Control Block
  10:test/../h/../h/tcb.hpp **** class TCB
  11:test/../h/../h/tcb.hpp **** {
  12:test/../h/../h/tcb.hpp **** private:
  13:test/../h/../h/tcb.hpp ****     using Body = void (*)(void*);
  14:test/../h/../h/tcb.hpp ****     Body body;
  15:test/../h/../h/tcb.hpp ****     uint64* stack;
  16:test/../h/../h/tcb.hpp **** 
  17:test/../h/../h/tcb.hpp ****     // Thread context struct
  18:test/../h/../h/tcb.hpp ****     struct Context {
  19:test/../h/../h/tcb.hpp ****         uint64 ra; // Return address
  20:test/../h/../h/tcb.hpp ****         uint64 sp; // Stack pointer
  21:test/../h/../h/tcb.hpp ****     };
  22:test/../h/../h/tcb.hpp **** 
  23:test/../h/../h/tcb.hpp ****     // Thread context
  24:test/../h/../h/tcb.hpp ****     Context context;
  25:test/../h/../h/tcb.hpp ****     bool finished;
  26:test/../h/../h/tcb.hpp ****     bool blocked;
  27:test/../h/../h/tcb.hpp ****     uint64 timeSlice;
  28:test/../h/../h/tcb.hpp ****     time_t sleepingTime;
  29:test/../h/../h/tcb.hpp ****     bool sleep;
  30:test/../h/../h/tcb.hpp ****     void* arg;
  31:test/../h/../h/tcb.hpp **** 
  32:test/../h/../h/tcb.hpp ****     static void contextSwitch(Context* oldContext, Context* newContext);
GAS LISTING /tmp/ccjVey4k.s 			page 8


  33:test/../h/../h/tcb.hpp **** 
  34:test/../h/../h/tcb.hpp ****     TCB(Body body, void* arg, uint64 timeSlice) :
  35:test/../h/../h/tcb.hpp ****             body(body),
  36:test/../h/../h/tcb.hpp ****             stack(body ? (uint64*)MemoryAllocator::mem_alloc(sizeof(uint64) * DEFAULT_STACK_SIZE) :
  37:test/../h/../h/tcb.hpp ****             context({(uint64)&threadWrapper, stack ? (uint64)&stack[DEFAULT_STACK_SIZE] : 0}),
  38:test/../h/../h/tcb.hpp ****             finished(false),
  39:test/../h/../h/tcb.hpp ****             blocked(false),
  40:test/../h/../h/tcb.hpp ****             timeSlice(timeSlice),
  41:test/../h/../h/tcb.hpp ****             sleepingTime(0),
  42:test/../h/../h/tcb.hpp ****             sleep(false),
  43:test/../h/../h/tcb.hpp ****             arg(arg)
  44:test/../h/../h/tcb.hpp ****     { if (body) Scheduler::put(this); }
  45:test/../h/../h/tcb.hpp **** 
  46:test/../h/../h/tcb.hpp **** public:
  47:test/../h/../h/tcb.hpp **** 
  48:test/../h/../h/tcb.hpp ****     void* operator new(size_t size) {
  49:test/../h/../h/tcb.hpp ****         return MemoryAllocator::mem_alloc(size);
  50:test/../h/../h/tcb.hpp ****     }
  51:test/../h/../h/tcb.hpp **** 
  52:test/../h/../h/tcb.hpp ****     void* operator new[] (size_t size) {
  53:test/../h/../h/tcb.hpp ****         return MemoryAllocator::mem_alloc(size);
  54:test/../h/../h/tcb.hpp ****     }
  55:test/../h/../h/tcb.hpp **** 
  56:test/../h/../h/tcb.hpp ****     void operator delete(void* ptr) noexcept {
  57:test/../h/../h/tcb.hpp ****         MemoryAllocator::mem_free(ptr);
  58:test/../h/../h/tcb.hpp ****     }
  59:test/../h/../h/tcb.hpp **** 
  60:test/../h/../h/tcb.hpp ****     void operator delete[] (void* ptr) noexcept {
  61:test/../h/../h/tcb.hpp ****         MemoryAllocator::mem_free(ptr);
  62:test/../h/../h/tcb.hpp ****     }
  63:test/../h/../h/tcb.hpp **** 
  64:test/../h/../h/tcb.hpp ****     static TCB* createThread(Body body, void* arg, uint64 timeSlice);
  65:test/../h/../h/tcb.hpp **** 
  66:test/../h/../h/tcb.hpp ****     // Getter and setter for finished
  67:test/../h/../h/tcb.hpp ****     bool isFinished() const { return this->finished; }
  68:test/../h/../h/tcb.hpp ****     void setFinished(bool value) { this->finished = value; }
 234              		.loc 2 68 36 is_stmt 1
 235              		.loc 2 68 51 is_stmt 0
 236 01a8 2300F702 		sb	a5,32(a4)
 237              	.LVL30:
 238              	.LBE21:
 239              	.LBE20:
  93:test/Threads_C_API_test.cpp ****     thread_dispatch();
 240              		.loc 1 93 5 is_stmt 1
 241              		.loc 1 93 20 is_stmt 0
 242 01ac 97000000 		call	_Z15thread_dispatchv@plt
 242      E7800000 
 243              	.LVL31:
  94:test/Threads_C_API_test.cpp **** }
 244              		.loc 1 94 1
 245 01b4 83308101 		ld	ra,24(sp)
 246              		.cfi_restore 1
 247 01b8 03340101 		ld	s0,16(sp)
 248              		.cfi_restore 8
 249              		.cfi_def_cfa 2, 32
 250 01bc 83348100 		ld	s1,8(sp)
 251              		.cfi_restore 9
GAS LISTING /tmp/ccjVey4k.s 			page 9


 252              	.LVL32:
 253 01c0 03390100 		ld	s2,0(sp)
 254              		.cfi_restore 18
 255              	.LVL33:
 256 01c4 13010102 		addi	sp,sp,32
 257              		.cfi_def_cfa_offset 0
 258 01c8 67800000 		jr	ra
 259              		.cfi_endproc
 260              	.LFE67:
 262              		.section	.rodata.str1.8
 263 003d 000000   		.align	3
 264              	.LC5:
 265 0040 433A2069 		.string	"C: i="
 265      3D00
 266 0046 0000     		.align	3
 267              	.LC6:
 268 0048 433A2064 		.string	"C: dispatch\n"
 268      69737061 
 268      7463680A 
 268      00
 269 0055 000000   		.align	3
 270              	.LC7:
 271 0058 433A2074 		.string	"C: t1="
 271      313D00
 272 005f 00       		.align	3
 273              	.LC8:
 274 0060 433A2066 		.string	"C: fibonaci="
 274      69626F6E 
 274      6163693D 
 274      00
 275 006d 000000   		.align	3
 276              	.LC9:
 277 0070 41206669 		.string	"A finished!\n"
 277      6E697368 
 277      6564210A 
 277      00
 278              		.text
 279              		.align	2
 281              	_ZL11workerBodyCPv:
 282              	.LFB66:
  45:test/Threads_C_API_test.cpp ****     uint8 i = 0;
 283              		.loc 1 45 36 is_stmt 1
 284              		.cfi_startproc
 285              	.LVL34:
 286 01cc 130101FE 		addi	sp,sp,-32
 287              		.cfi_def_cfa_offset 32
 288 01d0 233C1100 		sd	ra,24(sp)
 289 01d4 23388100 		sd	s0,16(sp)
 290 01d8 23349100 		sd	s1,8(sp)
 291 01dc 23302101 		sd	s2,0(sp)
 292              		.cfi_offset 1, -8
 293              		.cfi_offset 8, -16
 294              		.cfi_offset 9, -24
 295              		.cfi_offset 18, -32
 296 01e0 13040102 		addi	s0,sp,32
 297              		.cfi_def_cfa 8, 0
  46:test/Threads_C_API_test.cpp ****     for (; i < 3; i++) {
GAS LISTING /tmp/ccjVey4k.s 			page 10


 298              		.loc 1 46 5
 299              	.LVL35:
  46:test/Threads_C_API_test.cpp ****     for (; i < 3; i++) {
 300              		.loc 1 46 11 is_stmt 0
 301 01e4 93040000 		li	s1,0
 302 01e8 6F000004 		j	.L17
 303              	.LVL36:
 304              	.L21:
  48:test/Threads_C_API_test.cpp ****     }
 305              		.loc 1 48 9 is_stmt 1 discriminator 1
  48:test/Threads_C_API_test.cpp ****     }
 306              		.loc 1 48 20 is_stmt 0 discriminator 1
 307 01ec 17050000 		lla	a0,.LC5
 307      13050500 
 308 01f4 97000000 		call	_Z11printStringPKc@plt
 308      E7800000 
 309              	.LVL37:
  48:test/Threads_C_API_test.cpp ****     }
 310              		.loc 1 48 31 is_stmt 1 discriminator 1
  48:test/Threads_C_API_test.cpp ****     }
 311              		.loc 1 48 39 is_stmt 0 discriminator 1
 312 01fc 13060000 		li	a2,0
 313 0200 9305A000 		li	a1,10
 314 0204 13850400 		mv	a0,s1
 315 0208 97000000 		call	_Z8printIntiii@plt
 315      E7800000 
 316              	.LVL38:
  48:test/Threads_C_API_test.cpp ****     }
 317              		.loc 1 48 44 is_stmt 1 discriminator 1
  48:test/Threads_C_API_test.cpp ****     }
 318              		.loc 1 48 55 is_stmt 0 discriminator 1
 319 0210 17050000 		lla	a0,.LC1
 319      13050500 
 320 0218 97000000 		call	_Z11printStringPKc@plt
 320      E7800000 
 321              	.LVL39:
  47:test/Threads_C_API_test.cpp ****         printString("C: i="); printInt(i); printString("\n");
 322              		.loc 1 47 5 is_stmt 1 discriminator 1
 323 0220 9B841400 		addiw	s1,s1,1
 324              	.LVL40:
 325 0224 93F4F40F 		andi	s1,s1,0xff
 326              	.LVL41:
 327              	.L17:
  47:test/Threads_C_API_test.cpp ****         printString("C: i="); printInt(i); printString("\n");
 328              		.loc 1 47 5 discriminator 2
  47:test/Threads_C_API_test.cpp ****         printString("C: i="); printInt(i); printString("\n");
 329              		.loc 1 47 14 discriminator 2
 330 0228 93072000 		li	a5,2
 331 022c E3F097FC 		bleu	s1,a5,.L21
  51:test/Threads_C_API_test.cpp ****     __asm__ ("li t1, 7");
 332              		.loc 1 51 5
  51:test/Threads_C_API_test.cpp ****     __asm__ ("li t1, 7");
 333              		.loc 1 51 16 is_stmt 0
 334 0230 17050000 		lla	a0,.LC6
 334      13050500 
 335 0238 97000000 		call	_Z11printStringPKc@plt
 335      E7800000 
GAS LISTING /tmp/ccjVey4k.s 			page 11


 336              	.LVL42:
  52:test/Threads_C_API_test.cpp ****     thread_dispatch();
 337              		.loc 1 52 5 is_stmt 1
  52:test/Threads_C_API_test.cpp ****     thread_dispatch();
 338              		.loc 1 52 25 is_stmt 0
 339              	#APP
 340              	# 52 "test/Threads_C_API_test.cpp" 1
  53:test/Threads_C_API_test.cpp **** 
 341              		li t1, 7
 342              	# 0 "" 2
 343              		.loc 1 53 5 is_stmt 1
  53:test/Threads_C_API_test.cpp **** 
 344              		.loc 1 53 20 is_stmt 0
 345              	#NO_APP
 346 0244 97000000 		call	_Z15thread_dispatchv@plt
 346      E7800000 
 347              	.LVL43:
  55:test/Threads_C_API_test.cpp ****     __asm__ ("mv %[t1], t1" : [t1] "=r"(t1));
 348              		.loc 1 55 5 is_stmt 1
  56:test/Threads_C_API_test.cpp **** 
 349              		.loc 1 56 5
  56:test/Threads_C_API_test.cpp **** 
 350              		.loc 1 56 45 is_stmt 0
 351              	#APP
 352              	# 56 "test/Threads_C_API_test.cpp" 1
 353              		mv s2, t1
 354              	# 0 "" 2
 355              	.LVL44:
  58:test/Threads_C_API_test.cpp **** 
 356              		.loc 1 58 5 is_stmt 1
  58:test/Threads_C_API_test.cpp **** 
 357              		.loc 1 58 16 is_stmt 0
 358              	#NO_APP
 359 0250 17050000 		lla	a0,.LC7
 359      13050500 
 360 0258 97000000 		call	_Z11printStringPKc@plt
 360      E7800000 
 361              	.LVL45:
  58:test/Threads_C_API_test.cpp **** 
 362              		.loc 1 58 28 is_stmt 1
  58:test/Threads_C_API_test.cpp **** 
 363              		.loc 1 58 36 is_stmt 0
 364 0260 13060000 		li	a2,0
 365 0264 9305A000 		li	a1,10
 366 0268 1B050900 		sext.w	a0,s2
 367 026c 97000000 		call	_Z8printIntiii@plt
 367      E7800000 
 368              	.LVL46:
  58:test/Threads_C_API_test.cpp **** 
 369              		.loc 1 58 42 is_stmt 1
  58:test/Threads_C_API_test.cpp **** 
 370              		.loc 1 58 53 is_stmt 0
 371 0274 17050000 		lla	a0,.LC1
 371      13050500 
 372 027c 97000000 		call	_Z11printStringPKc@plt
 372      E7800000 
 373              	.LVL47:
GAS LISTING /tmp/ccjVey4k.s 			page 12


  60:test/Threads_C_API_test.cpp ****     printString("C: fibonaci="); printInt(result); printString("\n");
 374              		.loc 1 60 5 is_stmt 1
  60:test/Threads_C_API_test.cpp ****     printString("C: fibonaci="); printInt(result); printString("\n");
 375              		.loc 1 60 30 is_stmt 0
 376 0284 1305C000 		li	a0,12
 377 0288 97000000 		call	_ZL9fibonaccim
 377      E7800000 
 378              	.LVL48:
 379 0290 13090500 		mv	s2,a0
 380              	.LVL49:
  61:test/Threads_C_API_test.cpp **** 
 381              		.loc 1 61 5 is_stmt 1
  61:test/Threads_C_API_test.cpp **** 
 382              		.loc 1 61 16 is_stmt 0
 383 0294 17050000 		lla	a0,.LC8
 383      13050500 
 384              	.LVL50:
 385 029c 97000000 		call	_Z11printStringPKc@plt
 385      E7800000 
 386              	.LVL51:
  61:test/Threads_C_API_test.cpp **** 
 387              		.loc 1 61 34 is_stmt 1
  61:test/Threads_C_API_test.cpp **** 
 388              		.loc 1 61 42 is_stmt 0
 389 02a4 13060000 		li	a2,0
 390 02a8 9305A000 		li	a1,10
 391 02ac 1B050900 		sext.w	a0,s2
 392 02b0 97000000 		call	_Z8printIntiii@plt
 392      E7800000 
 393              	.LVL52:
  61:test/Threads_C_API_test.cpp **** 
 394              		.loc 1 61 52 is_stmt 1
  61:test/Threads_C_API_test.cpp **** 
 395              		.loc 1 61 63 is_stmt 0
 396 02b8 17050000 		lla	a0,.LC1
 396      13050500 
 397 02c0 97000000 		call	_Z11printStringPKc@plt
 397      E7800000 
 398              	.LVL53:
 399 02c8 6F000004 		j	.L19
 400              	.L22:
  64:test/Threads_C_API_test.cpp ****     }
 401              		.loc 1 64 9 is_stmt 1 discriminator 1
  64:test/Threads_C_API_test.cpp ****     }
 402              		.loc 1 64 20 is_stmt 0 discriminator 1
 403 02cc 17050000 		lla	a0,.LC5
 403      13050500 
 404 02d4 97000000 		call	_Z11printStringPKc@plt
 404      E7800000 
 405              	.LVL54:
  64:test/Threads_C_API_test.cpp ****     }
 406              		.loc 1 64 31 is_stmt 1 discriminator 1
  64:test/Threads_C_API_test.cpp ****     }
 407              		.loc 1 64 39 is_stmt 0 discriminator 1
 408 02dc 13060000 		li	a2,0
 409 02e0 9305A000 		li	a1,10
 410 02e4 13850400 		mv	a0,s1
GAS LISTING /tmp/ccjVey4k.s 			page 13


 411 02e8 97000000 		call	_Z8printIntiii@plt
 411      E7800000 
 412              	.LVL55:
  64:test/Threads_C_API_test.cpp ****     }
 413              		.loc 1 64 44 is_stmt 1 discriminator 1
  64:test/Threads_C_API_test.cpp ****     }
 414              		.loc 1 64 55 is_stmt 0 discriminator 1
 415 02f0 17050000 		lla	a0,.LC1
 415      13050500 
 416 02f8 97000000 		call	_Z11printStringPKc@plt
 416      E7800000 
 417              	.LVL56:
  63:test/Threads_C_API_test.cpp ****         printString("C: i="); printInt(i); printString("\n");
 418              		.loc 1 63 5 is_stmt 1 discriminator 1
 419 0300 9B841400 		addiw	s1,s1,1
 420              	.LVL57:
 421 0304 93F4F40F 		andi	s1,s1,0xff
 422              	.LVL58:
 423              	.L19:
  63:test/Threads_C_API_test.cpp ****         printString("C: i="); printInt(i); printString("\n");
 424              		.loc 1 63 5 discriminator 2
  63:test/Threads_C_API_test.cpp ****         printString("C: i="); printInt(i); printString("\n");
 425              		.loc 1 63 14 discriminator 2
 426 0308 93075000 		li	a5,5
 427 030c E3F097FC 		bleu	s1,a5,.L22
  67:test/Threads_C_API_test.cpp ****     finishedC = true;
 428              		.loc 1 67 5
  67:test/Threads_C_API_test.cpp ****     finishedC = true;
 429              		.loc 1 67 16 is_stmt 0
 430 0310 17050000 		lla	a0,.LC9
 430      13050500 
 431 0318 97000000 		call	_Z11printStringPKc@plt
 431      E7800000 
 432              	.LVL59:
  68:test/Threads_C_API_test.cpp ****     TCB::running->setFinished(true);
 433              		.loc 1 68 5 is_stmt 1
  68:test/Threads_C_API_test.cpp ****     TCB::running->setFinished(true);
 434              		.loc 1 68 15 is_stmt 0
 435 0320 93071000 		li	a5,1
 436 0324 17070000 		sb	a5,.LANCHOR0+1,a4
 436      2300F700 
  69:test/Threads_C_API_test.cpp ****     thread_dispatch();
 437              		.loc 1 69 5 is_stmt 1
  69:test/Threads_C_API_test.cpp ****     thread_dispatch();
 438              		.loc 1 69 30 is_stmt 0
 439 032c 17070000 		la	a4,_ZN3TCB7runningE
 439      03370700 
 440 0334 03370700 		ld	a4,0(a4)
 441              	.LVL60:
 442              	.LBB22:
 443              	.LBB23:
 444              		.loc 2 68 36 is_stmt 1
 445              		.loc 2 68 51 is_stmt 0
 446 0338 2300F702 		sb	a5,32(a4)
 447              	.LVL61:
 448              	.LBE23:
 449              	.LBE22:
GAS LISTING /tmp/ccjVey4k.s 			page 14


  70:test/Threads_C_API_test.cpp **** }
 450              		.loc 1 70 5 is_stmt 1
  70:test/Threads_C_API_test.cpp **** }
 451              		.loc 1 70 20 is_stmt 0
 452 033c 97000000 		call	_Z15thread_dispatchv@plt
 452      E7800000 
 453              	.LVL62:
  71:test/Threads_C_API_test.cpp **** 
 454              		.loc 1 71 1
 455 0344 83308101 		ld	ra,24(sp)
 456              		.cfi_restore 1
 457 0348 03340101 		ld	s0,16(sp)
 458              		.cfi_restore 8
 459              		.cfi_def_cfa 2, 32
 460 034c 83348100 		ld	s1,8(sp)
 461              		.cfi_restore 9
 462              	.LVL63:
 463 0350 03390100 		ld	s2,0(sp)
 464              		.cfi_restore 18
 465              	.LVL64:
 466 0354 13010102 		addi	sp,sp,32
 467              		.cfi_def_cfa_offset 0
 468 0358 67800000 		jr	ra
 469              		.cfi_endproc
 470              	.LFE66:
 472              		.section	.rodata.str1.8
 473 007d 000000   		.align	3
 474              	.LC10:
 475 0080 423A2069 		.string	"B: i="
 475      3D00
 476 0086 0000     		.align	3
 477              	.LC11:
 478 0088 42206669 		.string	"B finished!\n"
 478      6E697368 
 478      6564210A 
 478      00
 479              		.text
 480              		.align	2
 482              	_ZL11workerBodyBPv:
 483              	.LFB65:
  31:test/Threads_C_API_test.cpp ****     for (uint64 i = 0; i < 16; i++) {
 484              		.loc 1 31 36 is_stmt 1
 485              		.cfi_startproc
 486              	.LVL65:
 487 035c 130101FE 		addi	sp,sp,-32
 488              		.cfi_def_cfa_offset 32
 489 0360 233C1100 		sd	ra,24(sp)
 490 0364 23388100 		sd	s0,16(sp)
 491 0368 23349100 		sd	s1,8(sp)
 492 036c 23302101 		sd	s2,0(sp)
 493              		.cfi_offset 1, -8
 494              		.cfi_offset 8, -16
 495              		.cfi_offset 9, -24
 496              		.cfi_offset 18, -32
 497 0370 13040102 		addi	s0,sp,32
 498              		.cfi_def_cfa 8, 0
  32:test/Threads_C_API_test.cpp ****         printString("B: i="); printInt(i); printString("\n");
GAS LISTING /tmp/ccjVey4k.s 			page 15


 499              		.loc 1 32 5
 500              	.LVL66:
 501              	.LBB24:
  32:test/Threads_C_API_test.cpp ****         printString("B: i="); printInt(i); printString("\n");
 502              		.loc 1 32 17 is_stmt 0
 503 0374 13090000 		li	s2,0
 504 0378 6F008003 		j	.L29
 505              	.LVL67:
 506              	.L26:
 507              	.LBB25:
 508              	.LBB26:
 509              	.LBB27:
  36:test/Threads_C_API_test.cpp ****         }
 510              		.loc 1 36 13 is_stmt 1 discriminator 2
  36:test/Threads_C_API_test.cpp ****         }
 511              		.loc 1 36 28 is_stmt 0 discriminator 2
 512 037c 97000000 		call	_Z15thread_dispatchv@plt
 512      E7800000 
 513              	.LVL68:
 514              	.LBE27:
  34:test/Threads_C_API_test.cpp ****             for (uint64 k = 0; k < 30000; k++) { /* busy wait */ }
 515              		.loc 1 34 9 is_stmt 1 discriminator 2
 516 0384 93841400 		addi	s1,s1,1
 517              	.LVL69:
 518              	.L28:
  34:test/Threads_C_API_test.cpp ****             for (uint64 k = 0; k < 30000; k++) { /* busy wait */ }
 519              		.loc 1 34 30 discriminator 1
 520 0388 B7270000 		li	a5,8192
 521 038c 9387F770 		addi	a5,a5,1807
 522 0390 63EE9700 		bgtu	s1,a5,.L25
 523              	.LBB29:
 524              	.LBB28:
  35:test/Threads_C_API_test.cpp ****             thread_dispatch();
 525              		.loc 1 35 25 is_stmt 0
 526 0394 13070000 		li	a4,0
 527              	.L27:
 528              	.LVL70:
  35:test/Threads_C_API_test.cpp ****             thread_dispatch();
 529              		.loc 1 35 34 is_stmt 1 discriminator 3
 530 0398 B7770000 		li	a5,28672
 531 039c 9387F752 		addi	a5,a5,1327
 532 03a0 E3EEE7FC 		bgtu	a4,a5,.L26
  35:test/Threads_C_API_test.cpp ****             thread_dispatch();
 533              		.loc 1 35 13 discriminator 2
 534 03a4 13071700 		addi	a4,a4,1
 535              	.LVL71:
 536 03a8 6FF01FFF 		j	.L27
 537              	.LVL72:
 538              	.L25:
 539              	.LBE28:
 540              	.LBE29:
 541              	.LBE26:
 542              	.LBE25:
  32:test/Threads_C_API_test.cpp ****         printString("B: i="); printInt(i); printString("\n");
 543              		.loc 1 32 5 discriminator 2
 544 03ac 13091900 		addi	s2,s2,1
 545              	.LVL73:
GAS LISTING /tmp/ccjVey4k.s 			page 16


 546              	.L29:
  32:test/Threads_C_API_test.cpp ****         printString("B: i="); printInt(i); printString("\n");
 547              		.loc 1 32 26 discriminator 1
 548 03b0 9307F000 		li	a5,15
 549 03b4 63E02705 		bgtu	s2,a5,.L24
 550              	.LBB31:
  33:test/Threads_C_API_test.cpp ****         for (uint64 j = 0; j < 10000; j++) {
 551              		.loc 1 33 9
  33:test/Threads_C_API_test.cpp ****         for (uint64 j = 0; j < 10000; j++) {
 552              		.loc 1 33 20 is_stmt 0
 553 03b8 17050000 		lla	a0,.LC10
 553      13050500 
 554 03c0 97000000 		call	_Z11printStringPKc@plt
 554      E7800000 
 555              	.LVL74:
  33:test/Threads_C_API_test.cpp ****         for (uint64 j = 0; j < 10000; j++) {
 556              		.loc 1 33 31 is_stmt 1
  33:test/Threads_C_API_test.cpp ****         for (uint64 j = 0; j < 10000; j++) {
 557              		.loc 1 33 39 is_stmt 0
 558 03c8 13060000 		li	a2,0
 559 03cc 9305A000 		li	a1,10
 560 03d0 1B050900 		sext.w	a0,s2
 561 03d4 97000000 		call	_Z8printIntiii@plt
 561      E7800000 
 562              	.LVL75:
  33:test/Threads_C_API_test.cpp ****         for (uint64 j = 0; j < 10000; j++) {
 563              		.loc 1 33 44 is_stmt 1
  33:test/Threads_C_API_test.cpp ****         for (uint64 j = 0; j < 10000; j++) {
 564              		.loc 1 33 55 is_stmt 0
 565 03dc 17050000 		lla	a0,.LC1
 565      13050500 
 566 03e4 97000000 		call	_Z11printStringPKc@plt
 566      E7800000 
 567              	.LVL76:
  34:test/Threads_C_API_test.cpp ****             for (uint64 k = 0; k < 30000; k++) { /* busy wait */ }
 568              		.loc 1 34 9 is_stmt 1
 569              	.LBB30:
  34:test/Threads_C_API_test.cpp ****             for (uint64 k = 0; k < 30000; k++) { /* busy wait */ }
 570              		.loc 1 34 21 is_stmt 0
 571 03ec 93040000 		li	s1,0
 572 03f0 6FF09FF9 		j	.L28
 573              	.LVL77:
 574              	.L24:
 575              	.LBE30:
 576              	.LBE31:
 577              	.LBE24:
  39:test/Threads_C_API_test.cpp ****     finishedB = true;
 578              		.loc 1 39 5 is_stmt 1
  39:test/Threads_C_API_test.cpp ****     finishedB = true;
 579              		.loc 1 39 16 is_stmt 0
 580 03f4 17050000 		lla	a0,.LC11
 580      13050500 
 581 03fc 97000000 		call	_Z11printStringPKc@plt
 581      E7800000 
 582              	.LVL78:
  40:test/Threads_C_API_test.cpp ****     TCB::running->setFinished(true);
 583              		.loc 1 40 5 is_stmt 1
GAS LISTING /tmp/ccjVey4k.s 			page 17


  40:test/Threads_C_API_test.cpp ****     TCB::running->setFinished(true);
 584              		.loc 1 40 15 is_stmt 0
 585 0404 93071000 		li	a5,1
 586 0408 17070000 		sb	a5,.LANCHOR0+2,a4
 586      2300F700 
  41:test/Threads_C_API_test.cpp ****     thread_dispatch();
 587              		.loc 1 41 5 is_stmt 1
  41:test/Threads_C_API_test.cpp ****     thread_dispatch();
 588              		.loc 1 41 30 is_stmt 0
 589 0410 17070000 		la	a4,_ZN3TCB7runningE
 589      03370700 
 590 0418 03370700 		ld	a4,0(a4)
 591              	.LVL79:
 592              	.LBB32:
 593              	.LBB33:
 594              		.loc 2 68 36 is_stmt 1
 595              		.loc 2 68 51 is_stmt 0
 596 041c 2300F702 		sb	a5,32(a4)
 597              	.LVL80:
 598              	.LBE33:
 599              	.LBE32:
  42:test/Threads_C_API_test.cpp **** }
 600              		.loc 1 42 5 is_stmt 1
  42:test/Threads_C_API_test.cpp **** }
 601              		.loc 1 42 20 is_stmt 0
 602 0420 97000000 		call	_Z15thread_dispatchv@plt
 602      E7800000 
 603              	.LVL81:
  43:test/Threads_C_API_test.cpp **** 
 604              		.loc 1 43 1
 605 0428 83308101 		ld	ra,24(sp)
 606              		.cfi_restore 1
 607 042c 03340101 		ld	s0,16(sp)
 608              		.cfi_restore 8
 609              		.cfi_def_cfa 2, 32
 610 0430 83348100 		ld	s1,8(sp)
 611              		.cfi_restore 9
 612 0434 03390100 		ld	s2,0(sp)
 613              		.cfi_restore 18
 614              	.LVL82:
 615 0438 13010102 		addi	sp,sp,32
 616              		.cfi_def_cfa_offset 0
 617 043c 67800000 		jr	ra
 618              		.cfi_endproc
 619              	.LFE65:
 621              		.section	.rodata.str1.8
 622 0095 000000   		.align	3
 623              	.LC12:
 624 0098 413A2069 		.string	"A: i="
 624      3D00
 625              		.text
 626              		.align	2
 628              	_ZL11workerBodyAPv:
 629              	.LFB64:
  18:test/Threads_C_API_test.cpp ****     for (uint64 i = 0; i < 10; i++) {
 630              		.loc 1 18 36 is_stmt 1
 631              		.cfi_startproc
GAS LISTING /tmp/ccjVey4k.s 			page 18


 632              	.LVL83:
 633 0440 130101FE 		addi	sp,sp,-32
 634              		.cfi_def_cfa_offset 32
 635 0444 233C1100 		sd	ra,24(sp)
 636 0448 23388100 		sd	s0,16(sp)
 637 044c 23349100 		sd	s1,8(sp)
 638 0450 23302101 		sd	s2,0(sp)
 639              		.cfi_offset 1, -8
 640              		.cfi_offset 8, -16
 641              		.cfi_offset 9, -24
 642              		.cfi_offset 18, -32
 643 0454 13040102 		addi	s0,sp,32
 644              		.cfi_def_cfa 8, 0
  19:test/Threads_C_API_test.cpp ****         printString("A: i="); printInt(i); printString("\n");
 645              		.loc 1 19 5
 646              	.LVL84:
 647              	.LBB34:
  19:test/Threads_C_API_test.cpp ****         printString("A: i="); printInt(i); printString("\n");
 648              		.loc 1 19 17 is_stmt 0
 649 0458 13090000 		li	s2,0
 650 045c 6F008003 		j	.L37
 651              	.LVL85:
 652              	.L34:
 653              	.LBB35:
 654              	.LBB36:
 655              	.LBB37:
  23:test/Threads_C_API_test.cpp ****         }
 656              		.loc 1 23 13 is_stmt 1 discriminator 2
  23:test/Threads_C_API_test.cpp ****         }
 657              		.loc 1 23 28 is_stmt 0 discriminator 2
 658 0460 97000000 		call	_Z15thread_dispatchv@plt
 658      E7800000 
 659              	.LVL86:
 660              	.LBE37:
  21:test/Threads_C_API_test.cpp ****             for (uint64 k = 0; k < 30000; k++) { /* busy wait */ }
 661              		.loc 1 21 9 is_stmt 1 discriminator 2
 662 0468 93841400 		addi	s1,s1,1
 663              	.LVL87:
 664              	.L36:
  21:test/Threads_C_API_test.cpp ****             for (uint64 k = 0; k < 30000; k++) { /* busy wait */ }
 665              		.loc 1 21 30 discriminator 1
 666 046c B7270000 		li	a5,8192
 667 0470 9387F770 		addi	a5,a5,1807
 668 0474 63EE9700 		bgtu	s1,a5,.L33
 669              	.LBB39:
 670              	.LBB38:
  22:test/Threads_C_API_test.cpp ****             thread_dispatch();
 671              		.loc 1 22 25 is_stmt 0
 672 0478 13070000 		li	a4,0
 673              	.L35:
 674              	.LVL88:
  22:test/Threads_C_API_test.cpp ****             thread_dispatch();
 675              		.loc 1 22 34 is_stmt 1 discriminator 3
 676 047c B7770000 		li	a5,28672
 677 0480 9387F752 		addi	a5,a5,1327
 678 0484 E3EEE7FC 		bgtu	a4,a5,.L34
  22:test/Threads_C_API_test.cpp ****             thread_dispatch();
GAS LISTING /tmp/ccjVey4k.s 			page 19


 679              		.loc 1 22 13 discriminator 2
 680 0488 13071700 		addi	a4,a4,1
 681              	.LVL89:
 682 048c 6FF01FFF 		j	.L35
 683              	.LVL90:
 684              	.L33:
 685              	.LBE38:
 686              	.LBE39:
 687              	.LBE36:
 688              	.LBE35:
  19:test/Threads_C_API_test.cpp ****         printString("A: i="); printInt(i); printString("\n");
 689              		.loc 1 19 5 discriminator 2
 690 0490 13091900 		addi	s2,s2,1
 691              	.LVL91:
 692              	.L37:
  19:test/Threads_C_API_test.cpp ****         printString("A: i="); printInt(i); printString("\n");
 693              		.loc 1 19 26 discriminator 1
 694 0494 93079000 		li	a5,9
 695 0498 63E02705 		bgtu	s2,a5,.L32
 696              	.LBB41:
  20:test/Threads_C_API_test.cpp ****         for (uint64 j = 0; j < 10000; j++) {
 697              		.loc 1 20 9
  20:test/Threads_C_API_test.cpp ****         for (uint64 j = 0; j < 10000; j++) {
 698              		.loc 1 20 20 is_stmt 0
 699 049c 17050000 		lla	a0,.LC12
 699      13050500 
 700 04a4 97000000 		call	_Z11printStringPKc@plt
 700      E7800000 
 701              	.LVL92:
  20:test/Threads_C_API_test.cpp ****         for (uint64 j = 0; j < 10000; j++) {
 702              		.loc 1 20 31 is_stmt 1
  20:test/Threads_C_API_test.cpp ****         for (uint64 j = 0; j < 10000; j++) {
 703              		.loc 1 20 39 is_stmt 0
 704 04ac 13060000 		li	a2,0
 705 04b0 9305A000 		li	a1,10
 706 04b4 1B050900 		sext.w	a0,s2
 707 04b8 97000000 		call	_Z8printIntiii@plt
 707      E7800000 
 708              	.LVL93:
  20:test/Threads_C_API_test.cpp ****         for (uint64 j = 0; j < 10000; j++) {
 709              		.loc 1 20 44 is_stmt 1
  20:test/Threads_C_API_test.cpp ****         for (uint64 j = 0; j < 10000; j++) {
 710              		.loc 1 20 55 is_stmt 0
 711 04c0 17050000 		lla	a0,.LC1
 711      13050500 
 712 04c8 97000000 		call	_Z11printStringPKc@plt
 712      E7800000 
 713              	.LVL94:
  21:test/Threads_C_API_test.cpp ****             for (uint64 k = 0; k < 30000; k++) { /* busy wait */ }
 714              		.loc 1 21 9 is_stmt 1
 715              	.LBB40:
  21:test/Threads_C_API_test.cpp ****             for (uint64 k = 0; k < 30000; k++) { /* busy wait */ }
 716              		.loc 1 21 21 is_stmt 0
 717 04d0 93040000 		li	s1,0
 718 04d4 6FF09FF9 		j	.L36
 719              	.LVL95:
 720              	.L32:
GAS LISTING /tmp/ccjVey4k.s 			page 20


 721              	.LBE40:
 722              	.LBE41:
 723              	.LBE34:
  26:test/Threads_C_API_test.cpp ****     TCB::running->setFinished(true);
 724              		.loc 1 26 5 is_stmt 1
  26:test/Threads_C_API_test.cpp ****     TCB::running->setFinished(true);
 725              		.loc 1 26 16 is_stmt 0
 726 04d8 17050000 		lla	a0,.LC9
 726      13050500 
 727 04e0 97000000 		call	_Z11printStringPKc@plt
 727      E7800000 
 728              	.LVL96:
  27:test/Threads_C_API_test.cpp ****     finishedA = true;
 729              		.loc 1 27 5 is_stmt 1
  27:test/Threads_C_API_test.cpp ****     finishedA = true;
 730              		.loc 1 27 30 is_stmt 0
 731 04e8 97070000 		la	a5,_ZN3TCB7runningE
 731      83B70700 
 732 04f0 03B70700 		ld	a4,0(a5)
 733              	.LVL97:
 734              	.LBB42:
 735              	.LBB43:
 736              		.loc 2 68 36 is_stmt 1
 737              		.loc 2 68 51 is_stmt 0
 738 04f4 93071000 		li	a5,1
 739 04f8 2300F702 		sb	a5,32(a4)
 740              	.LVL98:
 741              	.LBE43:
 742              	.LBE42:
  28:test/Threads_C_API_test.cpp **** }
 743              		.loc 1 28 5 is_stmt 1
  28:test/Threads_C_API_test.cpp **** }
 744              		.loc 1 28 15 is_stmt 0
 745 04fc 17070000 		sb	a5,.LANCHOR0+3,a4
 745      2300F700 
  29:test/Threads_C_API_test.cpp **** 
 746              		.loc 1 29 1
 747 0504 83308101 		ld	ra,24(sp)
 748              		.cfi_restore 1
 749 0508 03340101 		ld	s0,16(sp)
 750              		.cfi_restore 8
 751              		.cfi_def_cfa 2, 32
 752 050c 83348100 		ld	s1,8(sp)
 753              		.cfi_restore 9
 754 0510 03390100 		ld	s2,0(sp)
 755              		.cfi_restore 18
 756              	.LVL99:
 757 0514 13010102 		addi	sp,sp,32
 758              		.cfi_def_cfa_offset 0
 759 0518 67800000 		jr	ra
 760              		.cfi_endproc
 761              	.LFE64:
 763              		.section	.rodata.str1.8
 764 009e 0000     		.align	3
 765              	.LC13:
 766 00a0 54687265 		.string	"ThreadA created\n"
 766      61644120 
GAS LISTING /tmp/ccjVey4k.s 			page 21


 766      63726561 
 766      7465640A 
 766      00
 767 00b1 00000000 		.align	3
 767      000000
 768              	.LC14:
 769 00b8 54687265 		.string	"ThreadB created\n"
 769      61644220 
 769      63726561 
 769      7465640A 
 769      00
 770 00c9 00000000 		.align	3
 770      000000
 771              	.LC15:
 772 00d0 54687265 		.string	"ThreadC created\n"
 772      61644320 
 772      63726561 
 772      7465640A 
 772      00
 773 00e1 00000000 		.align	3
 773      000000
 774              	.LC16:
 775 00e8 54687265 		.string	"ThreadD created\n"
 775      61644420 
 775      63726561 
 775      7465640A 
 775      00
 776              		.text
 777              		.align	2
 778              		.globl	_Z18Threads_C_API_testv
 780              	_Z18Threads_C_API_testv:
 781              	.LFB68:
  95:test/Threads_C_API_test.cpp **** 
  96:test/Threads_C_API_test.cpp **** 
  97:test/Threads_C_API_test.cpp **** void Threads_C_API_test() {
 782              		.loc 1 97 27 is_stmt 1
 783              		.cfi_startproc
 784 051c 130101FD 		addi	sp,sp,-48
 785              		.cfi_def_cfa_offset 48
 786 0520 23341102 		sd	ra,40(sp)
 787 0524 23308102 		sd	s0,32(sp)
 788              		.cfi_offset 1, -8
 789              		.cfi_offset 8, -16
 790 0528 13040103 		addi	s0,sp,48
 791              		.cfi_def_cfa 8, 0
  98:test/Threads_C_API_test.cpp ****     thread_t threads[4];
 792              		.loc 1 98 5
  99:test/Threads_C_API_test.cpp ****     thread_create(&threads[0], workerBodyA, nullptr);
 793              		.loc 1 99 5
 794              		.loc 1 99 18 is_stmt 0
 795 052c 13060000 		li	a2,0
 796 0530 97050000 		lla	a1,_ZL11workerBodyAPv
 796      93850500 
 797 0538 130504FD 		addi	a0,s0,-48
 798 053c 97000000 		call	_Z13thread_createPP3TCBPFvPvES2_@plt
 798      E7800000 
 799              	.LVL100:
GAS LISTING /tmp/ccjVey4k.s 			page 22


 100:test/Threads_C_API_test.cpp ****     printString("ThreadA created\n");
 800              		.loc 1 100 5 is_stmt 1
 801              		.loc 1 100 16 is_stmt 0
 802 0544 17050000 		lla	a0,.LC13
 802      13050500 
 803 054c 97000000 		call	_Z11printStringPKc@plt
 803      E7800000 
 804              	.LVL101:
 101:test/Threads_C_API_test.cpp **** 
 102:test/Threads_C_API_test.cpp ****     thread_create(&threads[1], workerBodyB, nullptr);
 805              		.loc 1 102 5 is_stmt 1
 806              		.loc 1 102 18 is_stmt 0
 807 0554 13060000 		li	a2,0
 808 0558 97050000 		lla	a1,_ZL11workerBodyBPv
 808      93850500 
 809 0560 130584FD 		addi	a0,s0,-40
 810 0564 97000000 		call	_Z13thread_createPP3TCBPFvPvES2_@plt
 810      E7800000 
 811              	.LVL102:
 103:test/Threads_C_API_test.cpp ****     printString("ThreadB created\n");
 812              		.loc 1 103 5 is_stmt 1
 813              		.loc 1 103 16 is_stmt 0
 814 056c 17050000 		lla	a0,.LC14
 814      13050500 
 815 0574 97000000 		call	_Z11printStringPKc@plt
 815      E7800000 
 816              	.LVL103:
 104:test/Threads_C_API_test.cpp **** 
 105:test/Threads_C_API_test.cpp ****     thread_create(&threads[2], workerBodyC, nullptr);
 817              		.loc 1 105 5 is_stmt 1
 818              		.loc 1 105 18 is_stmt 0
 819 057c 13060000 		li	a2,0
 820 0580 97050000 		lla	a1,_ZL11workerBodyCPv
 820      93850500 
 821 0588 130504FE 		addi	a0,s0,-32
 822 058c 97000000 		call	_Z13thread_createPP3TCBPFvPvES2_@plt
 822      E7800000 
 823              	.LVL104:
 106:test/Threads_C_API_test.cpp ****     printString("ThreadC created\n");
 824              		.loc 1 106 5 is_stmt 1
 825              		.loc 1 106 16 is_stmt 0
 826 0594 17050000 		lla	a0,.LC15
 826      13050500 
 827 059c 97000000 		call	_Z11printStringPKc@plt
 827      E7800000 
 828              	.LVL105:
 107:test/Threads_C_API_test.cpp **** 
 108:test/Threads_C_API_test.cpp ****     thread_create(&threads[3], workerBodyD, nullptr);
 829              		.loc 1 108 5 is_stmt 1
 830              		.loc 1 108 18 is_stmt 0
 831 05a4 13060000 		li	a2,0
 832 05a8 97050000 		lla	a1,_ZL11workerBodyDPv
 832      93850500 
 833 05b0 130584FE 		addi	a0,s0,-24
 834 05b4 97000000 		call	_Z13thread_createPP3TCBPFvPvES2_@plt
 834      E7800000 
 835              	.LVL106:
GAS LISTING /tmp/ccjVey4k.s 			page 23


 109:test/Threads_C_API_test.cpp ****     printString("ThreadD created\n");
 836              		.loc 1 109 5 is_stmt 1
 837              		.loc 1 109 16 is_stmt 0
 838 05bc 17050000 		lla	a0,.LC16
 838      13050500 
 839 05c4 97000000 		call	_Z11printStringPKc@plt
 839      E7800000 
 840              	.LVL107:
 841 05cc 6F00C000 		j	.L41
 842              	.L40:
 110:test/Threads_C_API_test.cpp **** 
 111:test/Threads_C_API_test.cpp ****     while (!(finishedA && finishedB && finishedC && finishedD)) {
 112:test/Threads_C_API_test.cpp ****         thread_dispatch();
 843              		.loc 1 112 9 is_stmt 1
 844              		.loc 1 112 24 is_stmt 0
 845 05d0 97000000 		call	_Z15thread_dispatchv@plt
 845      E7800000 
 846              	.LVL108:
 847              	.L41:
 111:test/Threads_C_API_test.cpp ****         thread_dispatch();
 848              		.loc 1 111 5 is_stmt 1
 111:test/Threads_C_API_test.cpp ****         thread_dispatch();
 849              		.loc 1 111 12
 111:test/Threads_C_API_test.cpp ****         thread_dispatch();
 850              		.loc 1 111 14 is_stmt 0
 851 05d8 97070000 		lbu	a5,.LANCHOR0+3
 851      83C70700 
 111:test/Threads_C_API_test.cpp ****         thread_dispatch();
 852              		.loc 1 111 12
 853 05e0 E38807FE 		beqz	a5,.L40
 111:test/Threads_C_API_test.cpp ****         thread_dispatch();
 854              		.loc 1 111 27 discriminator 2
 855 05e4 97070000 		lbu	a5,.LANCHOR0+2
 855      83C70700 
 111:test/Threads_C_API_test.cpp ****         thread_dispatch();
 856              		.loc 1 111 24 discriminator 2
 857 05ec E38207FE 		beqz	a5,.L40
 111:test/Threads_C_API_test.cpp ****         thread_dispatch();
 858              		.loc 1 111 40 discriminator 4
 859 05f0 97070000 		lbu	a5,.LANCHOR0+1
 859      83C70700 
 111:test/Threads_C_API_test.cpp ****         thread_dispatch();
 860              		.loc 1 111 37 discriminator 4
 861 05f8 E38C07FC 		beqz	a5,.L40
 111:test/Threads_C_API_test.cpp ****         thread_dispatch();
 862              		.loc 1 111 53 discriminator 6
 863 05fc 97070000 		lbu	a5,.LANCHOR0
 863      83C70700 
 111:test/Threads_C_API_test.cpp ****         thread_dispatch();
 864              		.loc 1 111 12 discriminator 6
 865 0604 E38607FC 		beqz	a5,.L40
 113:test/Threads_C_API_test.cpp ****     }
 114:test/Threads_C_API_test.cpp **** 
 115:test/Threads_C_API_test.cpp **** }
 866              		.loc 1 115 1
 867 0608 83308102 		ld	ra,40(sp)
 868              		.cfi_restore 1
GAS LISTING /tmp/ccjVey4k.s 			page 24


 869 060c 03340102 		ld	s0,32(sp)
 870              		.cfi_restore 8
 871              		.cfi_def_cfa 2, 48
 872 0610 13010103 		addi	sp,sp,48
 873              		.cfi_def_cfa_offset 0
 874 0614 67800000 		jr	ra
 875              		.cfi_endproc
 876              	.LFE68:
 878              		.bss
 879              		.set	.LANCHOR0,. + 0
 882              	_ZL9finishedD:
 883 0000 00       		.zero	1
 886              	_ZL9finishedC:
 887 0001 00       		.zero	1
 890              	_ZL9finishedB:
 891 0002 00       		.zero	1
 894              	_ZL9finishedA:
 895 0003 00       		.zero	1
 896              		.text
 897              	.Letext0:
 898              		.file 3 "test/../h/../lib/hw.h"
 899              		.file 4 "test/../h/../h/../h/wait_list.hpp"
 900              		.file 5 "test/../h/syscall_c.hpp"
 901              		.file 6 "test/printing.hpp"
GAS LISTING /tmp/ccjVey4k.s 			page 25

